 tzweb

 Timestamp is 5356cf8b (Tue Apr 22 16:22:35 2014)

 Preferred load address is 10000000

 Start         Length     Name                   Class
 0001:00000000 0009c717H .text                   CODE
 0002:00000000 0000012cH .rdata                  DATA
 0002:00000130 00000f00H .edata                  DATA
 0003:00000000 00000104H .CRT$XCA                DATA
 0003:00000104 00000104H .CRT$XCZ                DATA
 0003:00000208 00000104H .CRT$XIA                DATA
 0003:0000030c 00000104H .CRT$XIZ                DATA
 0003:00000410 00013978H .data                   DATA
 0003:00013d88 00000038H .bss                    DATA
 0004:00000000 00000064H .idata$2                DATA
 0004:00000064 00000014H .idata$3                DATA
 0004:00000078 000001d4H .idata$4                DATA
 0004:0000024c 000001d4H .idata$5                DATA
 0004:00000420 00000281H .idata$6                DATA

  Address         Publics by Value              Rva+Base     Lib:Object

 0001:000001e0       _DllMain@12                100011e0 f   zdllinst.obj
 0001:00000206       _GetDLL_Instance@4         10001206 f   zdllinst.obj
 0001:00000220       _GenJSP_TableExport@16     10001220 f   tzwebgl1.obj
 0001:00000a3e       _CreateNoPosStyleString@12 10001a3e f   tzwebgl1.obj
 0001:00000a7f       _CreateDisabledString@8    10001a7f f   tzwebgl1.obj
 0001:00000b02       _CreateAbsolPosStringTable@16 10001b02 f   tzwebgl1.obj
 0001:00000d44       _GenJSP_Action@28          10001d44 f   tzwebgl1.obj
 0001:00005a85       _CreateRelPosString@16     10006a85 f   tzwebgl1.obj
 0001:00005cd7       _CreateAbsolPosString@16   10006cd7 f   tzwebgl1.obj
 0001:00005f29       _CreateSizeString@8        10006f29 f   tzwebgl1.obj
 0001:000060db       _CreateRelStyleString@20   100070db f   tzwebgl1.obj
 0001:00006152       _CreateAbsolStyleString@20 10007152 f   tzwebgl1.obj
 0001:000061c6       _FixStyleString@16         100071c6 f   tzwebgl1.obj
 0001:00006254       _PIX_PER_DU@8              10007254 f   tzwebgl1.obj
 0001:00006299       _GenJSP_OutputMapRecurs@16 10007299 f   tzwebgl1.obj
 0001:000079db       _GenJSP_InputMapRecurs@20  100089db f   tzwebgl1.obj
 0001:00010671       _GenJSP_CrteCtrlsRecurs@40 10011671 f   tzwebgl1.obj
 0001:000339f0       _GenJSPJ_OutputMapRecurs@20 100349f0 f   tzwebgl2.obj
 0001:00035364       _GenJSPJ_CrteCtrlsRecurs@44 10036364 f   tzwebgl2.obj
 0001:0004b541       _GenJSPJ_InputMapRecurs@24 1004c541 f   tzwebgl2.obj
 0001:00055338       _GenJSPJ_Action@28         10056338 f   tzwebgl2.obj
 0001:00066ed0       _BuildMainNavSection@12    10067ed0 f   tzwebgl3.obj
 0001:000674f0       _GenJSP_CrteJPG@32         100684f0 f   tzwebgl3.obj
 0001:000684ab       _GenJSP_ChildFunctions@16  100694ab f   tzwebgl3.obj
 0001:000684cb       _GenJSP_CrteGroupTable@32  100694cb f   tzwebgl3.obj
 0001:0006c883       _GenJSP_CrteComboBox@36    1006d883 f   tzwebgl3.obj
 0001:0007002f       _GenJSP_CrteEditBox@40     1007102f f   tzwebgl3.obj
 0001:00071ccd       _GenJSP_CrteCheckBox@40    10072ccd f   tzwebgl3.obj
 0001:00072c84       _GenJSP_CrteCtrlsRadio@32  10073c84 f   tzwebgl3.obj
 0001:00073904       _GenJSP_CrteText@44        10074904 f   tzwebgl3.obj
 0001:0007599c       _GenJSP_CrteListBox@32     1007699c f   tzwebgl3.obj
 0001:00077805       _GenJSP_EmailEntries@20    10078805 f   tzwebgl3.obj
 0001:00078a45       _GenJSP_CrteCalendar@40    10079a45 f   tzwebgl3.obj
 0001:0007979f       _GenJSP_MenuFunctions@24   1007a79f f   tzwebgl3.obj
 0001:00079fd4       _BuildSideNavSection@20    1007afd4 f   tzwebgl3.obj
 0001:0007aec5       _CreateTabIndexString@8    1007bec5 f   tzwebgl3.obj
 0001:00080040       _BuildSideNavSectionJ@20   10081040 f   tzwebgl4.obj
 0001:00080ea7       _GenJSPJ_CrteMLEdit@44     10081ea7 f   tzwebgl4.obj
 0001:0008278b       _GenJSPJ_CrteListBox@32    1008378b f   tzwebgl4.obj
 0001:000846b8       _GenJSPJ_CrteJPG@32        100856b8 f   tzwebgl4.obj
 0001:000857b9       _GenJSPJ_CrteText@48       100867b9 f   tzwebgl4.obj
 0001:00088016       _GenJSPJ_CrteEditBox@44    10089016 f   tzwebgl4.obj
 0001:0008a0a6       _GenJSPJ_CrteGroupTable@36 1008b0a6 f   tzwebgl4.obj
 0001:0008ecbd       _GenJSPJ_CrteCtrlsRadio@36 1008fcbd f   tzwebgl4.obj
 0001:0008f9dc       _GenJSPJ_CrteComboBox@40   100909dc f   tzwebgl4.obj
 0001:0009355d       _GenJSPJ_CrteCheckBox@44   1009455d f   tzwebgl4.obj
 0001:00094607       _GenJSPJ_CrteCalendar@44   10095607 f   tzwebgl4.obj
 0001:0009b2f8       _WL_QC@20                  1009c2f8 f   tzvmlip:tzvmlip.dll
 0001:0009b2fe       _zIntegerToString@12       1009c2fe f   tzvmlip:tzvmlip.dll
 0001:0009b304       _zReplicate@16             1009c304 f   tzvmlip:tzvmlip.dll
 0001:0009b30a       _zAppendQuotedString@16    1009c30a f   tzvmlip:tzvmlip.dll
 0001:0009b310       _zSearchAndReplace@16      1009c310 f   tzvmlip:tzvmlip.dll
 0001:0009b316       _SetCursorNextEntity@12    1009c316 f   kzoengaa:KZOENGAA.DLL
 0001:0009b31c       _ResetViewFromSubobject@4  1009c31c f   kzoengaa:KZOENGAA.DLL
 0001:0009b322       _SetViewToSubobject@8      1009c322 f   kzoengaa:KZOENGAA.DLL
 0001:0009b328       _CheckExistenceOfEntity@8  1009c328 f   kzoengaa:KZOENGAA.DLL
 0001:0009b32e       _ZeidonStringConcat@28     1009c32e f   kzoengaa:KZOENGAA.DLL
 0001:0009b334       _ZeidonStringCopy@28       1009c334 f   kzoengaa:KZOENGAA.DLL
 0001:0009b33a       _SetCursorFirstEntityByString@20 1009c33a f   kzoengaa:KZOENGAA.DLL
 0001:0009b340       _ZeidonStringCompare@28    1009c340 f   kzoengaa:KZOENGAA.DLL
 0001:0009b346       _GetVariableFromAttribute@36 1009c346 f   kzoengaa:KZOENGAA.DLL
 0001:0009b34c       _SetCursorFirstEntity@12   1009c34c f   kzoengaa:KZOENGAA.DLL
 0001:0009b352       _GetIntegerFromAttribute@16 1009c352 f   kzoengaa:KZOENGAA.DLL
 0001:0009b358       ??1ZDecimal@@QAE@XZ        1009c358 f   kzoengaa:KZOENGAA.DLL
 0001:0009b35e       ??BZDecimal@@QAEJXZ        1009c35e f   kzoengaa:KZOENGAA.DLL
 0001:0009b364       ??H@YG?AVZDecimal@@V0@J@Z  1009c364 f   kzoengaa:KZOENGAA.DLL
 0001:0009b36a       ??D@YG?AVZDecimal@@JV0@@Z  1009c36a f   kzoengaa:KZOENGAA.DLL
 0001:0009b370       ??0ZDecimal@@QAE@N@Z       1009c370 f   kzoengaa:KZOENGAA.DLL
 0001:0009b376       _ZeidonStringConvertFromNumber@64 1009c376 f   kzoengaa:KZOENGAA.DLL
 0001:0009b37c       _MessageSend@24            1009c37c f   kzoengaa:KZOENGAA.DLL
 0001:0009b382       _SetEntityCursor@40        1009c382 f   kzoengaa:KZOENGAA.DLL
 0001:0009b388       _SetNameForView@16         1009c388 f   kzoengaa:KZOENGAA.DLL
 0001:0009b38e       _CreateViewFromView@8      1009c38e f   kzoengaa:KZOENGAA.DLL
 0001:0009b394       _DropView@4                1009c394 f   kzoengaa:KZOENGAA.DLL
 0001:0009b39a       _CompareAttributeToInteger@16 1009c39a f   kzoengaa:KZOENGAA.DLL
 0001:0009b3a0       _CreateViewFromViewForTask@12 1009c3a0 f   kzoengaa:KZOENGAA.DLL
 0001:0009b3a6       _CompareAttributeToString@16 1009c3a6 f   kzoengaa:KZOENGAA.DLL
 0001:0009b3ac       _OrderEntityForView@12     1009c3ac f   kzoengaa:KZOENGAA.DLL
 0001:0009b3b2       _SetCursorPrevEntity@12    1009c3b2 f   kzoengaa:KZOENGAA.DLL
 0001:0009b3b8       _TraceLineS@8              1009c3b8 f   kzoengaa:KZOENGAA.DLL
 0001:0009b3be       ??G@YG?AVZDecimal@@V0@H@Z  1009c3be f   kzoengaa:KZOENGAA.DLL
 0001:0009b3c4       _ZeidonCopyWithinString@16 1009c3c4 f   kzoengaa:KZOENGAA.DLL
 0001:0009b3ca       _GetBlobFromAttribute@20   1009c3ca f   kzoengaa:KZOENGAA.DLL
 0001:0009b3d0       _SetAttributeFromString@16 1009c3d0 f   kzoengaa:KZOENGAA.DLL
 0001:0009b3d6       _SysReadZeidonIni@16       1009c3d6 f   kzoengaa:KZOENGAA.DLL
 0001:0009b3dc       _GetViewByName@16          1009c3dc f   kzoengaa:KZOENGAA.DLL
 0001:0009b3e2       _SetCursorFirstEntityByInteger@20 1009c3e2 f   kzoengaa:KZOENGAA.DLL
 0001:0009b3e8       _GetStringFromAttribute@16 1009c3e8 f   kzoengaa:KZOENGAA.DLL
 0001:0009b3ee       _CompareAttributeToAttribute@24 1009c3ee f   kzoengaa:KZOENGAA.DLL
 0001:0009b400       __chkstk                   1009c400 f   msvcrtd:chkstk.obj
 0001:0009b400       __alloca_probe             1009c400 f   msvcrtd:chkstk.obj
 0001:0009b430       _strlen                    1009c430 f   msvcrtd:MSVCRTD.dll
 0001:0009b436       __stricmp                  1009c436 f   msvcrtd:MSVCRTD.dll
 0001:0009b440       __CRT_INIT@12              1009c440 f   msvcrtd:crtdll.obj
 0001:0009b550       __DllMainCRTStartup@12     1009c550 f   msvcrtd:crtdll.obj
 0001:0009b644       __free_dbg                 1009c644 f   msvcrtd:MSVCRTD.dll
 0001:0009b64a       __initterm                 1009c64a f   msvcrtd:MSVCRTD.dll
 0001:0009b650       __onexit                   1009c650 f   msvcrtd:atonexit.obj
 0001:0009b690       _atexit                    1009c690 f   msvcrtd:atonexit.obj
 0001:0009b6a8       __malloc_dbg               1009c6a8 f   msvcrtd:MSVCRTD.dll
 0001:0009b6ae       ___dllonexit               1009c6ae f   msvcrtd:MSVCRTD.dll
 0001:0009b6b4       _IsFlagSequenceSet@8       1009c6b4 f   zdrapp:ZDrApp.dll
 0001:0009b6ba       _AreBitsSetInFlag@8        1009c6ba f   zdrapp:ZDrApp.dll
 0001:0009b6c0       _TX_GetTextRptCtrlBOI@60   1009c6c0 f   zdctl:ZdCtl.dll
 0002:0000001c       ??_C@_08JKC@crtdll?4c?$AA@ 1009e01c     msvcrtd:crtdll.obj
 0003:00000000       ___xc_a                    100a0000     msvcrtd:cinitexe.obj
 0003:00000104       ___xc_z                    100a0104     msvcrtd:cinitexe.obj
 0003:00000208       ___xi_a                    100a0208     msvcrtd:cinitexe.obj
 0003:0000030c       ___xi_z                    100a030c     msvcrtd:cinitexe.obj
 0003:00000410       ??_C@_08HCPL@CtrlCtrl?$AA@ 100a0410     tzwebgl1.obj
 0003:0000041c       ??_C@_01KCD@?$HN?$AA@      100a041c     tzwebgl1.obj
 0003:00000420       ??_C@_04DHOG@?5?5?5?$HN?$AA@ 100a0420     tzwebgl1.obj
 0003:00000428       ??_C@_0DJ@HBNP@?$FO?$CJ?4innerHTML?5?$DN?5?$FOClick?5here?5to?5di@ 100a0428     tzwebgl1.obj
 0003:0000046c       ??_C@_0CC@KPIC@?8?$CJ?4src?$DN?$FO?4?1images?1btn_expand?4gif?$FO@ 100a046c     tzwebgl1.obj
 0003:00000494       ??_C@_0BL@BMKB@?$FO?$CJ?4style?4display?5?$DN?5?$FOnone?$FO?$DL?$AA@ 100a0494     tzwebgl1.obj
 0003:000004b4       ??_C@_0L@FOID@?5?5?5?5?5?5else?$AA@ 100a04b4     tzwebgl1.obj
 0003:000004c4       ??_C@_07FFPM@?5?5?5?5?5?5?$HN?$AA@ 100a04c4     tzwebgl1.obj
 0003:000004d0       ??_C@_0DC@PAAL@?$FO?$CJ?4innerHTML?5?$DN?5?$FOCopy?5and?5paste?5c@ 100a04d0     tzwebgl1.obj
 0003:0000050c       ??_C@_0CG@FFMM@?5?5?5?5?5?5?5?5?5document?4getElementById@ 100a050c     tzwebgl1.obj
 0003:0000053c       ??_C@_0CG@NDIF@?8?$CJ?4src?$DN?$FO?4?1images?1btn_contract?9o?4@ 100a053c     tzwebgl1.obj
 0003:0000056c       ??_C@_0CH@LKHH@?5?5?5?5?5?5?5?5?5document?4getElementById@ 100a056c     tzwebgl1.obj
 0003:0000059c       ??_C@_0N@LACA@?$FO?$CJ?4select?$CI?$CJ?$DL?$AA@ 100a059c     tzwebgl1.obj
 0003:000005ac       ??_C@_09OMKA@?$FO?$CJ?4value?$DL?$AA@ 100a05ac     tzwebgl1.obj
 0003:000005b8       ??_C@_0CG@LCMJ@?$FO?$CJ?4value?5?$DN?5document?4getElementBy@ 100a05b8     tzwebgl1.obj
 0003:000005e8       ??_C@_0CE@DEOG@?5?5?5?5?5?5?5?5?5document?4getElementById@ 100a05e8     tzwebgl1.obj
 0003:00000614       ??_C@_0BH@KKIA@?$FO?$CJ?4style?4display?5?$DN?5?$FO?$FO?$DL?$AA@ 100a0614     tzwebgl1.obj
 0003:00000630       ??_C@_0CF@OKGO@?5?5?5?5?5?5?5?5?5document?4getElementById@ 100a0630     tzwebgl1.obj
 0003:0000065c       ??_C@_07KKIO@?5?5?5?5?5?5?$HL?$AA@ 100a065c     tzwebgl1.obj
 0003:00000668       ??_C@_0CE@CDID@?$FO?$CJ?4src?4indexOf?$CI?$FObtn_expand?$FO?$CJ?5?$DO?$DN?5@ 100a0668     tzwebgl1.obj
 0003:00000694       ??_C@_0CI@NBPK@?5?5?5?5?5?5if?5?$CIdocument?4getElementByI@ 100a0694     tzwebgl1.obj
 0003:000006c4       ??_C@_04MIJE@?5?5?5?$HL?$AA@ 100a06c4     tzwebgl1.obj
 0003:000006cc       ??_C@_0CF@GDHK@?5?5?5if?5?$CI?5_IsDocDisabled?$CI?5?$CJ?5?$DN?$DN?5fal@ 100a06cc     tzwebgl1.obj
 0003:000006f8       ??_C@_0BP@HJDB@?5?5?5?5?5?5isWindowClosing?5?$DN?5false?$DL?$AA@ 100a06f8     tzwebgl1.obj
 0003:00000720       ??_C@_0EL@JODO@?5?5?5?5?5?5?1?1?5This?5is?5for?5indicating?5@ 100a0720     tzwebgl1.obj
 0003:0000077c       ??_C@_01PFFB@?$HL?$AA@     100a077c     tzwebgl1.obj
 0003:00000780       ??_C@_01KHHK@?$FO?$AA@     100a0780     tzwebgl1.obj
 0003:00000784       ??_C@_0BB@GBFE@ExportOnClick?$CI?5?$CJ?$AA@ 100a0784     tzwebgl1.obj
 0003:00000798       ??_C@_09EMHJ@function?5?$AA@ 100a0798     tzwebgl1.obj
 0003:000007a4       ??_C@_01PCJP@Y?$AA@        100a07a4     tzwebgl1.obj
 0003:000007a8       ??_C@_0BD@GHNA@WebControlProperty?$AA@ 100a07a8     tzwebgl1.obj
 0003:000007c0       ??_C@_04EFNI@Name?$AA@     100a07c0     tzwebgl1.obj
 0003:000007c8       ??_C@_0BE@IAAK@Table?5Export?5Option?$AA@ 100a07c8     tzwebgl1.obj
 0003:000007e0       ??_C@_04GNHG@Grid?$AA@     100a07e0     tzwebgl1.obj
 0003:000007e8       ??_C@_0L@ELHM@ControlDef?$AA@ 100a07e8     tzwebgl1.obj
 0003:000007f8       ??_C@_03CHAC@Tag?$AA@      100a07f8     tzwebgl1.obj
 0003:000007fc       ??_C@_07FNBF@Control?$AA@  100a07fc     tzwebgl1.obj
 0003:00000808       ??_C@_0L@CPPK@?5disabled?5?$AA@ 100a0808     tzwebgl1.obj
 0003:00000818       ??_C@_07MPLK@Subtype?$AA@  100a0818     tzwebgl1.obj
 0003:00000824       ??_C@_05FMGG@left?3?$AA@   100a0824     tzwebgl1.obj
 0003:0000082c       ??_C@_03BGIO@px?$DL?$AA@   100a082c     tzwebgl1.obj
 0003:00000830       ??_C@_04DIFN@top?3?$AA@    100a0830     tzwebgl1.obj
 0003:00000838       ??_C@_0BD@OKJC@position?3absolute?$DL?$AA@ 100a0838     tzwebgl1.obj
 0003:00000850       ??_C@_07HPBM@PSDLG_Y?$AA@  100a0850     tzwebgl1.obj
 0003:0000085c       ??_C@_07NFIL@PSDLG_X?$AA@  100a085c     tzwebgl1.obj
 0003:00000868       ??_C@_0N@EIFG@?5?5?5?5?5?5break?$DL?$AA@ 100a0868     tzwebgl1.obj
 0003:00000878       ??_C@_0DA@GPED@?5?5?5?5?5?5?5?5?5strURL?5?$DN?5response?4encod@ 100a0878     tzwebgl1.obj
 0003:000008b4       ??_C@_0CI@OPPD@?5?5?5?5?5?5?5?5?5?1?1?5Stay?5on?5Window?5with?5@ 100a08b4     tzwebgl1.obj
 0003:000008e4       ??_C@_0BJ@EHGC@?5?5?5?5?5?5?5?5?5?5?5?5fis?4close?$CI?$CJ?$DL?$AA@ 100a08e4     tzwebgl1.obj
 0003:00000904       ??_C@_0FD@EPGH@?5?5?5?5?5?5?5?5?5?5?5?5?5?5?5vAppSubtask?4Trace@ 100a0904     tzwebgl1.obj
 0003:00000968       ??_C@_0BL@NNAE@?5?5?5?5?5?5?5?5?5?5?5?5?5?5?5?1?1TraceLine?$AA@ 100a0968     tzwebgl1.obj
 0003:00000988       ??_C@_0P@DMDP@?5?5?5?5?5?5?5?5?5?5?5?5?$HL?5?$AA@ 100a0988     tzwebgl1.obj
 0003:0000099c       ??_C@_0DI@KPJB@?5?5?5?5?5?5?5?5?5?5?5?5if?5?$CIInputFile?$CB?$DNnull?5@ 100a099c     tzwebgl1.obj
 0003:000009e0       ??_C@_0M@KGPO@?5?5?5?5?5?5?5?5?5?$HL?5?$AA@ 100a09e0     tzwebgl1.obj
 0003:000009f0       ??_C@_0BO@KFHO@?5?5?5?5?5?5?5?5?5catch?5?$CIException?5e?$CJ?5?$AA@ 100a09f0     tzwebgl1.obj
 0003:00000a14       ??_C@_0BP@NJDP@?5?5?5?5?5?5?5?5?5?5?5?5outStream?4close?$CI?$CJ?$DL?$AA@ 100a0a14     tzwebgl1.obj
 0003:00000a3c       ??_C@_0CA@JLBH@?5?5?5?5?5?5?5?5?5?5?5?5outStream?4flush?$CI?$CJ?$DL?5?$AA@ 100a0a3c     tzwebgl1.obj
 0003:00000a64       ??_C@_0P@ELMA@?5?5?5?5?5?5?5?5?5?5?5?5?$HN?5?$AA@ 100a0a64     tzwebgl1.obj
 0003:00000a78       ??_C@_0CE@LHPJ@?5?5?5?5?5?5?5?5?5?5?5?5?5?5?5outStream?4write?$CIc@ 100a0a78     tzwebgl1.obj
 0003:00000aa4       ??_C@_0CH@NCOH@?5?5?5?5?5?5?5?5?5?5?5?5while?5?$CI?$CIc?$DNfis?4read?$CI?$CJ@ 100a0aa4     tzwebgl1.obj
 0003:00000ad4       ??_C@_0BH@BHKF@?5?5?5?5?5?5?5?5?5?5?5?5int?5c?5?$DN?50?$DL?$AA@ 100a0ad4     tzwebgl1.obj
 0003:00000af0       ??_C@_0EI@PJGA@?5?5?5?5?5?5?5?5?5?5?5?5ServletOutputStream?5@ 100a0af0     tzwebgl1.obj
 0003:00000b48       ??_C@_0GM@BHBF@?5?5?5?5?5?5?5?5?5?5?5?5response?4setHeader?$CI?$FO@ 100a0b48     tzwebgl1.obj
 0003:00000bcc       ??_C@_0DC@LEGH@?5?5?5?5?5?5?5?5?5?5?5?5response?4setContentT@ 100a0bcc     tzwebgl1.obj
 0003:00000c08       ??_C@_0DP@PBBL@?5?5?5?5?5?5?5?5?5?5?5?5String?5contenttype?5?$DN@ 100a0c08     tzwebgl1.obj
 0003:00000c54       ??_C@_0GD@PFEH@?5?5?5?5?5?5?5?5?5?5?5?5vAppSubtask?4TraceLin@ 100a0c54     tzwebgl1.obj
 0003:00000ccc       ??_C@_0N@KGFE@?5?5?5?5?5?5?5?5?5try?$AA@ 100a0ccc     tzwebgl1.obj
 0003:00000cdc       ??_C@_0EA@GFKF@?5?5?5?5?5?5?5?5?5FileInputStream?5fis?5?$DN?5n@ 100a0cdc     tzwebgl1.obj
 0003:00000d28       ??_C@_0DD@MEIK@?5?5?5?5?5?5?5?5?5File?5InputFile?5?$DN?5new?5Fi@ 100a0d28     tzwebgl1.obj
 0003:00000d68       ??_C@_0DP@PPJI@?5?5?5?5?5?5?5?5?5sSourceFileNameOnly?5?$DN?5s@ 100a0d68     tzwebgl1.obj
 0003:00000db4       ??_C@_0DH@GHBF@?5?5?5?5?5?5?5?5?5?1?1?5Get?5the?5filename?5onl@ 100a0db4     tzwebgl1.obj
 0003:00000df8       ??_C@_0DH@KGJG@?5?5?5?5?5?5?5?5?5?5?5?5sExtension?5?$DN?5sDownlo@ 100a0df8     tzwebgl1.obj
 0003:00000e3c       ??_C@_0BN@HFIG@?5?5?5?5?5?5?5?5?5?5?5?5sExtension?5?$DN?5?$FO?$FO?$DL?$AA@ 100a0e3c     tzwebgl1.obj
 0003:00000e60       ??_C@_0BE@ILD@?5?5?5?5?5?5?5?5?5if?5?$CIx?5?$DO?5l?$CJ?$AA@ 100a0e60     tzwebgl1.obj
 0003:00000e78       ??_C@_0BN@KNKC@?5?5?5?5?5?5?5?5?5?1?1?5to?5capture?5this?4?$AA@ 100a0e78     tzwebgl1.obj
 0003:00000e9c       ??_C@_0DJ@MOGK@?5?5?5?5?5?5?5?5?5?1?1?5in?5case?5we?5want?5to?5c@ 100a0e9c     tzwebgl1.obj
 0003:00000ee0       ??_C@_0DL@GBGD@?5?5?5?5?5?5?5?5?5?1?1?5Right?5now?5we?5are?5not@ 100a0ee0     tzwebgl1.obj
 0003:00000f28       ??_C@_0DK@DDEG@?5?5?5?5?5?5?5?5?5?1?1?5there?5must?5be?5a?5peri@ 100a0f28     tzwebgl1.obj
 0003:00000f70       ??_C@_0DM@PKAN@?5?5?5?5?5?5?5?5?5?1?1?5If?5x?5?$DO?5l?5then?5the?5fi@ 100a0f70     tzwebgl1.obj
 0003:00000fb8       ??_C@_0CO@JEIE@?5?5?5?5?5?5?5?5?5x?5?$DN?5sDownloadFile?4lastI@ 100a0fb8     tzwebgl1.obj
 0003:00000ff0       ??_C@_0CN@MOPK@?5?5?5?5?5?5?5?5?5l?5?$DN?5sDownloadFile?4lastI@ 100a0ff0     tzwebgl1.obj
 0003:00001028       ??_C@_0DM@KHMC@?5?5?5?5?5?5?5?5?5sDownloadFile?5?$DN?5sDownlo@ 100a1028     tzwebgl1.obj
 0003:00001070       ??_C@_0CA@BBJI@?5?5?5?5?5?5?5?5?5?1?1?5Replace?5any?5quotes?4?$AA@ 100a1070     tzwebgl1.obj
 0003:00001098       ??_C@_0CJ@OGNB@?4TraceLine?$CI?5?$FOEntity?5does?5not?5exi@ 100a1098     tzwebgl1.obj
 0003:000010cc       ??_C@_0DF@CCLF@?4TraceLine?$CI?5?$FODownload?5File?5Name?3@ 100a10cc     tzwebgl1.obj
 0003:0000110c       ??_C@_0N@FFAI@?5?5?5?5?5?5?5?5?5?5?5?5?$AA@ 100a110c     tzwebgl1.obj
 0003:0000111c       ??_C@_03GEOI@?5?$CJ?$DL?$AA@ 100a111c     tzwebgl1.obj
 0003:00001120       ??_C@_07NAFL@?$FO?0?5?$FO?$FO?0?5?$AA@ 100a1120     tzwebgl1.obj
 0003:0000112c       ??_C@_0DC@HDCH@?4GetStringFromAttributeByContext@ 100a112c     tzwebgl1.obj
 0003:00001168       ??_C@_0BN@HPJJ@?5?5?5?5?5?5?5?5?5?5?5?5sDownloadFile?5?$DN?5?$AA@ 100a1168     tzwebgl1.obj
 0003:0000118c       ??_C@_03GFKF@254?$AA@      100a118c     tzwebgl1.obj
 0003:00001190       ??_C@_01FLOP@I?$AA@        100a1190     tzwebgl1.obj
 0003:00001194       ??_C@_0BB@JMAC@CtrlMapER_Domain?$AA@ 100a1194     tzwebgl1.obj
 0003:000011a8       ??_C@_0N@FPPC@MaxStringLth?$AA@ 100a11a8     tzwebgl1.obj
 0003:000011b8       ??_C@_0CC@IDPG@?5?5?5?5?5?5?1?1?5Download?5File?5Processin@ 100a11b8     tzwebgl1.obj
 0003:000011e0       ??_C@_02IHLC@?5?5?$AA@     100a11e0     tzwebgl1.obj
 0003:000011e4       ??_C@_0DP@CDDF@?5?5?5?5?5?5vAppSubtask?4TraceLine?$CI?5?$FORe@ 100a11e4     tzwebgl1.obj
 0003:00001230       ??_C@_0DK@LHJC@?5?5?5?5?5?5strURL?5?$DN?5response?4encodeRe@ 100a1230     tzwebgl1.obj
 0003:00001278       ??_C@_06FIGI@?4jsp?$FO?$DL?$AA@ 100a1278     tzwebgl1.obj
 0003:00001280       ??_C@_0BJ@NLBD@?5?5?5?5?5?5?5?5?5strLastPage?5?$DN?5?$FO?$AA@ 100a1280     tzwebgl1.obj
 0003:000012a0       ??_C@_0CN@GBLE@?5?5?5?5?5?5?5?5?5strLastPage?5?$DN?5strLastPa@ 100a12a0     tzwebgl1.obj
 0003:000012d8       ??_C@_0FE@FEGI@?5?5?5?5?5?5?5?5?5vKZXMLPGO?4DeleteEntity?$CI@ 100a12d8     tzwebgl1.obj
 0003:0000133c       ??_C@_0FI@IAA@?5?5?5?5?5?5?5?5?5strLastPage?5?$DN?5vKZXMLPGO@ 100a133c     tzwebgl1.obj
 0003:000013a8       ??_C@_0EK@OGMO@?5?5?5?5?5?5nRC?5?$DN?5vKZXMLPGO?4CheckExist@ 100a13a8     tzwebgl1.obj
 0003:00001400       ??_C@_0BP@OOD@?5?5?5?5?5?5?1?1?5Return?5to?5Last?5Window?$AA@ 100a1400     tzwebgl1.obj
 0003:00001428       ??_C@_0DN@DBBL@?5?5?5?5?5?5nRC?5?$DN?50?$DL?5?5?1?1?5No?5redirectio@ 100a1428     tzwebgl1.obj
 0003:00001474       ??_C@_0EF@PHLE@?5?5?5?5?5?5strPopupWindowSZY?5?$DN?5reques@ 100a1474     tzwebgl1.obj
 0003:000014c8       ??_C@_0EF@KIFE@?5?5?5?5?5?5strPopupWindowSZX?5?$DN?5reques@ 100a14c8     tzwebgl1.obj
 0003:0000151c       ??_C@_0EH@CJJA@?5?5?5?5?5?5strOpenPopupWindow?5?$DN?5reque@ 100a151c     tzwebgl1.obj
 0003:00001574       ??_C@_0DL@CPAE@?5?5?5?5?5?5nRC?5?$DN?50?$DL?5?5?1?1?5Don?8t?5need?5to@ 100a1574     tzwebgl1.obj
 0003:000015bc       ??_C@_0EK@ECBF@?5?5?5?5?5?5vKZXMLPGO?4SetAttribute?$CI?5st@ 100a15bc     tzwebgl1.obj
 0003:00001614       ??_C@_0FA@COOM@?5?5?5?5?5?5vKZXMLPGO?4CreateEntity?$CI?5st@ 100a1614     tzwebgl1.obj
 0003:00001674       ??_C@_0EE@JOCA@?5?5?5?5?5?5vAppSubtask?4TraceLine?$CI?5?$FONe@ 100a1674     tzwebgl1.obj
 0003:000016c8       ??_C@_0L@CJHF@WindowName?$AA@ 100a16c8     tzwebgl1.obj
 0003:000016d8       ??_C@_0L@IKFC@DialogName?$AA@ 100a16d8     tzwebgl1.obj
 0003:000016e8       ??_C@_0DF@DMLG@?5?5?5?5?5?5strURL?5?$DN?5response?4encodeRe@ 100a16e8     tzwebgl1.obj
 0003:00001728       ??_C@_0BF@NOKI@?5?5?5?5?5?5?1?1?5Next?5Window?$AA@ 100a1728     tzwebgl1.obj
 0003:00001744       ??_C@_0CG@NGAI@?5?5?5?5?5?5nRC?5?$DN?51?$DL?5?5?1?1?5do?5the?5redire@ 100a1744     tzwebgl1.obj
 0003:00001774       ??_C@_08NGP@?4jsp?$FO?5?$CJ?$DL?$AA@ 100a1774     tzwebgl1.obj
 0003:00001780       ??_C@_0CN@MJGA@?5?5?5?5?5?5strURL?5?$DN?5response?4encodeRe@ 100a1780     tzwebgl1.obj
 0003:000017b8       ??_C@_0CF@PCLC@?5?5?5?5?5?5?1?1?5Stay?5on?5Window?5with?5Ref@ 100a17b8     tzwebgl1.obj
 0003:000017e4       ??_C@_0DD@PCFI@?5?5?5?5?5?5vAppSubtask?4SetName?$CI?5strSe@ 100a17e4     tzwebgl1.obj
 0003:00001824       ??_C@_0CJ@KBBF@?5?5?5?5?5?5?5?5?5nRC?5?$DN?51?$DL?5?5?1?1?5do?5the?5red@ 100a1824     tzwebgl1.obj
 0003:00001858       ??_C@_0FA@HGHE@?5?5?5?5?5?5?5?5?5?5?5?5vKZXMLPGO?4SetAttribu@ 100a1858     tzwebgl1.obj
 0003:000018b8       ??_C@_0FG@JMO@?5?5?5?5?5?5?5?5?5?5?5?5vKZXMLPGO?4CreateEnti@ 100a18b8     tzwebgl1.obj
 0003:00001920       ??_C@_0DL@BFIJ@?5?5?5?5?5?5?5?5?5if?5?$CI?5strFunctionCall?4eq@ 100a1920     tzwebgl1.obj
 0003:00001968       ??_C@_0CC@HIKL@?5?5?5?5?5?5?5?5?5?5?5?5strFunctionCall?5?$DN?5?$FO?$FO@ 100a1968     tzwebgl1.obj
 0003:00001990       ??_C@_0O@JPJH@?5?5?5?5?5?5?5?5?5else?$AA@ 100a1990     tzwebgl1.obj
 0003:000019a0       ??_C@_0GH@IIOJ@?5?5?5?5?5?5?5?5?5?5?5?5strFunctionCall?5?$DN?5vK@ 100a19a0     tzwebgl1.obj
 0003:00001a1c       ??_C@_0FF@FBFF@?5?5?5?5?5?5?5?5?5nRC?5?$DN?5vKZXMLPGO?4CheckEx@ 100a1a1c     tzwebgl1.obj
 0003:00001a84       ??_C@_0EH@EFGJ@?5?5?5?5?5?5?5?5?5vAppSubtask?4TraceLine?$CI?5@ 100a1a84     tzwebgl1.obj
 0003:00001adc       ??_C@_0EB@DKPP@?5?5?5?5?5?5?5?5?5strURL?5?$DN?5response?4encod@ 100a1adc     tzwebgl1.obj
 0003:00001b2c       ??_C@_0EN@CFCA@?5?5?5?5?5?5?5?5?5vKZXMLPGO?4DeleteEntity?$CI@ 100a1b2c     tzwebgl1.obj
 0003:00001b88       ??_C@_0ED@JLBN@?5?5?5?5?5?5?5?5?5strNextJSP_Name?5?$DN?5strDi@ 100a1b88     tzwebgl1.obj
 0003:00001bd8       ??_C@_0GA@NBBC@?5?5?5?5?5?5?5?5?5strWindowName?5?$DN?5vKZXMLP@ 100a1bd8     tzwebgl1.obj
 0003:00001c4c       ??_C@_0GA@DLKD@?5?5?5?5?5?5?5?5?5strDialogName?5?$DN?5vKZXMLP@ 100a1c4c     tzwebgl1.obj
 0003:00001cc0       ??_C@_0BG@CBHL@?5?5?5?5?5?5if?5?$CI?5nRC?5?$DO?$DN?50?5?$CJ?$AA@ 100a1cc0     tzwebgl1.obj
 0003:00001cdc       ??_C@_0FC@DFNB@?5?5?5?5?5?5nRC?5?$DN?5vKZXMLPGO?4CheckExist@ 100a1cdc     tzwebgl1.obj
 0003:00001d40       ??_C@_0BN@HNFB@?5?5?5?5?5?5?1?1?5Dynamic?5Next?5Window?$AA@ 100a1d40     tzwebgl1.obj
 0003:00001d64       ??_C@_08DBLF@?5?5?5?5?5?5?$HN?5?$AA@ 100a1d64     tzwebgl1.obj
 0003:00001d70       ??_C@_0CA@DOCI@?5?5?5?5?5?5?5?5?5out?4println?$CI?$FOerror?$FO?$CJ?$DL?5?$AA@ 100a1d70     tzwebgl1.obj
 0003:00001d98       ??_C@_0CI@LLLJ@?5?5?5?5?5?5?$HNcatch?$CIInterruptedExceptio@ 100a1d98     tzwebgl1.obj
 0003:00001dc8       ??_C@_0BO@HKCE@?5?5?5?5?5?5?5?5?5Thread?4sleep?$CI5000?$CJ?$DL?5?$AA@ 100a1dc8     tzwebgl1.obj
 0003:00001dec       ??_C@_0M@8?5?5?5?5?5?5try?$HL?5?$AA@ 100a1dec     tzwebgl1.obj
 0003:00001dfc       ??_C@_07PEG@?$FO?0?50?5?$CJ?$DL?$AA@ 100a1dfc     tzwebgl1.obj
 0003:00001e08       ??_C@_0L@DLBM@?5?5?$FO?0?5?$FO?$FO?5?$CJ?$DL?$AA@ 100a1e08     tzwebgl1.obj
 0003:00001e18       ??_C@_01PJCK@?4?$AA@       100a1e18     tzwebgl1.obj
 0003:00001e1c       ??_C@_0DE@NJIO@?5?5?5?5?5?5vAppSubtask?4TraceLine?$CI?5?$FOCa@ 100a1e1c     tzwebgl1.obj
 0003:00001e5c       ??_C@_0P@IOJN@?5?5?5?5?5?5nRC?5?$DN?50?$DL?$AA@ 100a1e5c     tzwebgl1.obj
 0003:00001e70       ??_C@_0BK@NMPI@?5?5?5?5?5?5?1?1?5Action?5Operation?$AA@ 100a1e70     tzwebgl1.obj
 0003:00001e90       ??_C@_0CO@BAN@?5?5?5?5?5?5?5?5?5vAppSubtask?4TraceLine?$CI?5@ 100a1e90     tzwebgl1.obj
 0003:00001ec8       ??_C@_0L@OBGC@?5?5?5?5?5?5?5?5?5?$HN?$AA@ 100a1ec8     tzwebgl1.obj
 0003:00001ed8       ??_C@_0O@CAHG@?5?5?5?5?5?5?5?5?5?5?5?5?$HN?$AA@ 100a1ed8     tzwebgl1.obj
 0003:00001ee8       ??_C@_0CA@JLJO@?4SetCursorNext?$CI?5strSessionId?0?5?$FO?$AA@ 100a1ee8     tzwebgl1.obj
 0003:00001f10       ??_C@_0BK@MCHM@?5?5?5?5?5?5?5?5?5?5?5?5?5?5?5?5?5?5nRCk?5?$DN?5?$AA@ 100a1f10     tzwebgl1.obj
 0003:00001f30       ??_C@_0BE@BOG@?5?5?5?5?5?5?5?5?5?5?5?5?5?5?5else?$AA@ 100a1f30     tzwebgl1.obj
 0003:00001f48       ??_C@_0BB@EGAF@?5?5?5?5?5?5?5?5?5?5?5?5?5?5?5?$HN?$AA@ 100a1f48     tzwebgl1.obj
 0003:00001f5c       ??_C@_0BN@DMAA@?5?5?5?5?5?5?5?5?5?5?5?5?5?5?5?5?5?5nRCk?5?$DN?5?91?$DL?$AA@ 100a1f5c     tzwebgl1.obj
 0003:00001f80       ??_C@_0FH@MNIK@?5?5?5?5?5?5?5?5?5?5?5?5?5?5?5?5?5?5?1?1?5Stop?5while?5@ 100a1f80     tzwebgl1.obj
 0003:00001fe8       ??_C@_0BB@LJHH@?5?5?5?5?5?5?5?5?5?5?5?5?5?5?5?$HL?$AA@ 100a1fe8     tzwebgl1.obj
 0003:00001ffc       ??_C@_0DE@GMFD@?5?5?5?5?5?5?5?5?5?5?5?5?5?5?5if?5?$CI?5strKey?4equal@ 100a1ffc     tzwebgl1.obj
 0003:0000203c       ??_C@_0DD@FLMO@?5?5?5?5?5?5?5?5?5?5?5?5?5?5?5strKey?5?$DN?5Integer?4@ 100a203c     tzwebgl1.obj
 0003:0000207c       ??_C@_0BP@EALJ@?4GetEntityKey?$CI?5strSessionId?0?5?$FO?$AA@ 100a207c     tzwebgl1.obj
 0003:000020a4       ??_C@_0BI@EKME@?5?5?5?5?5?5?5?5?5?5?5?5?5?5?5lEKey?5?$DN?5?$AA@ 100a20a4     tzwebgl1.obj
 0003:000020c0       ??_C@_0O@NPAE@?5?5?5?5?5?5?5?5?5?5?5?5?$HL?$AA@ 100a20c0     tzwebgl1.obj
 0003:000020d0       ??_C@_0CA@IMLC@?5?5?5?5?5?5?5?5?5?5?5?5while?5?$CI?5nRCk?5?$DO?$DN?50?5?$CJ?$AA@ 100a20d0     tzwebgl1.obj
 0003:000020f8       ??_C@_08IKFA@?$FO?0?5?$FO?$FO?5?$CJ?$DL?$AA@ 100a20f8     tzwebgl1.obj
 0003:00002104       ??_C@_0CB@LFJA@?4SetCursorFirst?$CI?5strSessionId?0?5?$FO@ 100a2104     tzwebgl1.obj
 0003:0000212c       ??_C@_0BE@BCLM@?5?5?5?5?5?5?5?5?5?5?5?5nRCk?5?$DN?5?$AA@ 100a212c     tzwebgl1.obj
 0003:00002144       ??_C@_0FF@LBDJ@?5?5?5?5?5?5?5?5?5?1?1?5This?5is?5temp?5code?5be@ 100a2144     tzwebgl1.obj
 0003:000021ac       ??_C@_0L@BOBA@?5?5?5?5?5?5?5?5?5?$HL?$AA@ 100a21ac     tzwebgl1.obj
 0003:000021bc       ??_C@_0BI@KPDO@?5?5?5?5?5?5?5?5?5if?5?$CI?5nRC?5?$DM?50?5?$CJ?$AA@ 100a21bc     tzwebgl1.obj
 0003:000021d8       ??_C@_0BD@LCJO@?$FO?0?5strEntityKey?5?$CJ?$DL?$AA@ 100a21d8     tzwebgl1.obj
 0003:000021f0       ??_C@_0CF@NFMM@?4SetCursorEntityKey?$CI?5strSessionI@ 100a21f0     tzwebgl1.obj
 0003:0000221c       ??_C@_0BO@KLIF@?5View?5Key?3?5?$FO?0?5strEntityKey?5?$CJ?$DL?$AA@ 100a221c     tzwebgl1.obj
 0003:00002240       ??_C@_0CG@FEPJ@?5?5?5?5?5?5?5?5?5vAppSubtask?4TraceLine?$CI?5@ 100a2240     tzwebgl1.obj
 0003:00002270       ??_C@_0BF@MOFB@?5?5?5?5?5?5if?5?$CI?5nRC?5?$DO?50?5?$CJ?$AA@ 100a2270     tzwebgl1.obj
 0003:0000228c       ??_C@_0FA@EGMN@?5?5?5?5?5?5String?5strEntityKey?5?$DN?5?$CIStr@ 100a228c     tzwebgl1.obj
 0003:000022ec       ??_C@_0DP@HHAC@?5?5?5?5?5?5?1?1?5Position?5on?5the?5entity?5@ 100a22ec     tzwebgl1.obj
 0003:00002338       ??_C@_0BC@CKIG@CtrlMapLOD_Entity?$AA@ 100a2338     tzwebgl1.obj
 0003:00002350       ??_C@_0N@CCGH@GridComboCtl?$AA@ 100a2350     tzwebgl1.obj
 0003:00002360       ??_C@_08EIKH@ComboBox?$AA@ 100a2360     tzwebgl1.obj
 0003:0000236c       ??_C@_09LDOO@BitmapBtn?$AA@ 100a236c     tzwebgl1.obj
 0003:00002378       ??_C@_06KLJN@Bitmap?$AA@   100a2378     tzwebgl1.obj
 0003:00002380       ??_C@_0M@OEDG@GridEditCtl?$AA@ 100a2380     tzwebgl1.obj
 0003:00002390       ??_C@_07BH@PushBtn?$AA@    100a2390     tzwebgl1.obj
 0003:0000239c       ??_C@_0M@HLHC@vDialogTemp?$AA@ 100a239c     tzwebgl1.obj
 0003:000023ac       ??_C@_07MCNN@ActCtrl?$AA@  100a23ac     tzwebgl1.obj
 0003:000023b8       ??_C@_0BC@GGPL@?5?5?5?5?5?5?5?5?5nRC?5?$DN?50?$DL?$AA@ 100a23b8     tzwebgl1.obj
 0003:000023d0       ??_C@_0DJ@FPHI@?5?5?5?5?5?5?5?5?5?1?1?5No?5redirection?0?5we?5a@ 100a23d0     tzwebgl1.obj
 0003:00002414       ??_C@_0FI@OOOM@?5?5?5?5?5?5?5?5?5strErrorMsg?5?$DN?5?$FOYou?5type@ 100a2414     tzwebgl1.obj
 0003:00002480       ??_C@_0DA@NBAB@?5?5?5?5?5?5?5?5?5strErrorTitle?5?$DN?5?$FOINCORR@ 100a2480     tzwebgl1.obj
 0003:000024bc       ??_C@_0FB@FHBH@?5?5?5?5?5?5?5?5?5?1?1?5The?5user?5has?5not?5ent@ 100a24bc     tzwebgl1.obj
 0003:00002520       ??_C@_0DJ@OMFG@?5?5?5?5?5?5?5?5?5vAppSubtask?4TraceLine?$CI?$FO@ 100a2520     tzwebgl1.obj
 0003:00002564       ??_C@_0BP@LBFB@?5?5?5?5?5?5if?5?$CIresponse2?4isValid?$CI?$CJ?$CJ?$AA@ 100a2564     tzwebgl1.obj
 0003:0000258c       ??_C@_0LH@CAIA@?5?5?5?5?5?5ReCaptchaResponse?5response@ 100a258c     tzwebgl1.obj
 0003:00002668       ??_C@_0L@GPMM@?$FO?0?5false?$CJ?$DL?$AA@ 100a2668     tzwebgl1.obj
 0003:00002678       ??_C@_0DK@CBB@?5?5?5?5?5?5ReCaptcha?5captcha?5?$DN?5ReCapt@ 100a2678     tzwebgl1.obj
 0003:000026c0       ??_C@_0BH@EPDG@WebreCAPTCHAPrivateKey?$AA@ 100a26c0     tzwebgl1.obj
 0003:000026dc       ??_C@_0BG@LKLJ@WebreCAPTCHAPublicKey?$AA@ 100a26dc     tzwebgl1.obj
 0003:000026f8       ??_C@_09MKFK@reCAPTCHA?$AA@ 100a26f8     tzwebgl1.obj
 0003:00002704       ??_C@_0BF@IOBL@?5?5?5?5?5?5if?5?$CI?5nRC?5?$DM?50?5?$CJ?$AA@ 100a2704     tzwebgl1.obj
 0003:00002720       ??_C@_0DN@JCIM@?5?5?5?5?5?5nRC?5?$DN?5DoInputMapping?$CI?5requ@ 100a2720     tzwebgl1.obj
 0003:0000276c       ??_C@_0BH@BCED@?5?5?5?5?5?5?1?1?5Input?5Mapping?$AA@ 100a276c     tzwebgl1.obj
 0003:00002788       ??_C@_05NOBG@NoMap?$AA@    100a2788     tzwebgl1.obj
 0003:00002790       ??_C@_0BH@PJBD@?$FO?0?5strInputFileName?5?$CJ?$DL?$AA@ 100a2790     tzwebgl1.obj
 0003:000027ac       ??_C@_0BP@CGMA@?4SetAttribute?$CI?5strSessionId?0?5?$FO?$AA@ 100a27ac     tzwebgl1.obj
 0003:000027d4       ??_C@_0BD@NBJP@?5?5?5?5?5?5?5?5?5?5?5?5nRC?5?$DN?5?$AA@ 100a27d4     tzwebgl1.obj
 0003:000027ec       ??_C@_0BJ@FEFK@?5?5?5?5?5?5?5?5?5if?5?$CI?5nRC?5?$DO?$DN?50?5?$CJ?$AA@ 100a27ec     tzwebgl1.obj
 0003:0000280c       ??_C@_0BF@EFID@CtrlMapRelatedEntity?$AA@ 100a280c     tzwebgl1.obj
 0003:00002828       ??_C@_0CJ@CFBF@?4CheckExistenceOfEntity?$CI?5strSess@ 100a2828     tzwebgl1.obj
 0003:0000285c       ??_C@_0BA@NDHH@?5?5?5?5?5?5?5?5?5nRC?5?$DN?5?$AA@ 100a285c     tzwebgl1.obj
 0003:00002870       ??_C@_0CA@HEHB@?4TraceLine?$CI?5?$FOInvalid?5View?3?5?$FO?0?5?$FO?$AA@ 100a2870     tzwebgl1.obj
 0003:00002898       ??_C@_09EBOI@?5?5?5?5?5?5?5?5?5?$AA@ 100a2898     tzwebgl1.obj
 0003:000028a4       ??_C@_0BG@KDL@?5?5?5?5?5?5if?5?$CI?5nRC?5?$DM?$DN?50?5?$CJ?$AA@ 100a28a4     tzwebgl1.obj
 0003:000028c0       ??_C@_0BC@MOBH@?$FO?0?5vAppSubtask?5?$CJ?$DL?$AA@ 100a28c0     tzwebgl1.obj
 0003:000028d8       ??_C@_0BK@CPMA@?4GetView?$CI?5strSessionId?0?5?$FO?$AA@ 100a28d8     tzwebgl1.obj
 0003:000028f8       ??_C@_0N@KAON@?5?5?5?5?5?5nRC?5?$DN?5?$AA@ 100a28f8     tzwebgl1.obj
 0003:00002908       ??_C@_0BF@KOMI@CtrlMapLOD_Attribute?$AA@ 100a2908     tzwebgl1.obj
 0003:00002924       ??_C@_07KJOA@EditBox?$AA@  100a2924     tzwebgl1.obj
 0003:00002930       ??_C@_0BD@OGGF@?5?5?5?5?5?5?5?5?5nRC?5?$DN?5?91?$DL?$AA@ 100a2930     tzwebgl1.obj
 0003:00002948       ??_C@_0FA@KAFJ@?5?5?5?5?5?5?5?5?5vAppSubtask?4TraceLine?$CI?5@ 100a2948     tzwebgl1.obj
 0003:000029a8       ??_C@_0EB@EAFC@?5?5?5?5?5?5?5?5?5session?4setAttribute?$CI?5?$FO@ 100a29a8     tzwebgl1.obj
 0003:000029f8       ??_C@_0EF@OBGH@?5?5?5?5?5?5?5?5?5strErrorMsg?5?$DN?5?$FOY?2tFile?2@ 100a29f8     tzwebgl1.obj
 0003:00002a4c       ??_C@_0CB@HFBE@?5?5?5?5?5?5if?5?$CI?5iFileLth?5?$DO?510485760?5?$CJ@ 100a2a4c     tzwebgl1.obj
 0003:00002a74       ??_C@_0BI@COIG@File?5Transfer?5to?5Server?$AA@ 100a2a74     tzwebgl1.obj
 0003:00002a90       ??_C@_0CF@MFHC@?5?$DN?5new?5zeidon?4zView?$CI?5strSessionI@ 100a2a90     tzwebgl1.obj
 0003:00002abc       ??_C@_0BE@EIDP@?5?5?5?5?5?5zeidon?4zView?5?$AA@ 100a2abc     tzwebgl1.obj
 0003:00002ad4       ??_C@_0M@KDOF@CtrlMapView?$AA@ 100a2ad4     tzwebgl1.obj
 0003:00002ae4       ??_C@_0FH@OGJ@The?5Control?5with?5?8Download?5File?8@ 100a2ae4     tzwebgl1.obj
 0003:00002b4c       ??_C@_0BE@IKJH@CtrlMapER_Attribute?$AA@ 100a2b4c     tzwebgl1.obj
 0003:00002b64       ??_C@_0BJ@PFJL@Download?5File?5Generation?$AA@ 100a2b64     tzwebgl1.obj
 0003:00002b84       ??_C@_0DO@HDJC@The?5Control?5with?5?8Download?5File?8@ 100a2b84     tzwebgl1.obj
 0003:00002bd0       ??_C@_0N@COME@?5?5?5?5?5?5int?5x?$DL?$AA@ 100a2bd0     tzwebgl1.obj
 0003:00002be0       ??_C@_0N@BOMH@?5?5?5?5?5?5int?5l?$DL?$AA@ 100a2be0     tzwebgl1.obj
 0003:00002bf0       ??_C@_0CA@EAFD@?5?5?5?5?5?5String?5sExtension?5?$DN?5null?$DL?$AA@ 100a2bf0     tzwebgl1.obj
 0003:00002c18       ??_C@_0CJ@GPNN@?5?5?5?5?5?5String?5sSourceFileNameOnly@ 100a2c18     tzwebgl1.obj
 0003:00002c4c       ??_C@_0CD@MJDB@?5?5?5?5?5?5String?5sDownloadFile?5?$DN?5nul@ 100a2c4c     tzwebgl1.obj
 0003:00002c78       ??_C@_0DE@HBJB@?5?5?5?5?5?5vAppSubtask?4DropName?$CI?5strS@ 100a2c78     tzwebgl1.obj
 0003:00002cb8       ??_C@_0EJ@HLIH@?5?5?5?5?5?5strURL?5?$DN?5vAppSubtask?4MakeW@ 100a2cb8     tzwebgl1.obj
 0003:00002d10       ??_C@_08JAPK@EventAct?$AA@ 100a2d10     tzwebgl1.obj
 0003:00002d1c       ??_C@_0M@EOKN@vDialogCtrl?$AA@ 100a2d1c     tzwebgl1.obj
 0003:00002d2c       ??_C@_0BA@DLMM@?5?5?5?5?5?5?5?5?5break?$DL?$AA@ 100a2d2c     tzwebgl1.obj
 0003:00002d40       ??_C@_0DB@KNDO@?5?5?5?5?5?5?5?5?5nRC?5?$DN?52?$DL?5?5?1?1?5do?5the?5?$FOer@ 100a2d40     tzwebgl1.obj
 0003:00002d7c       ??_C@_0BJ@GBNG@?5?5?5?5?5?5if?5?$CI?5nOptRC?5?$DN?$DN?52?5?$CJ?$AA@ 100a2d7c     tzwebgl1.obj
 0003:00002d9c       ??_C@_07CKBE@?$FO?0?51?5?$CJ?$DL?$AA@ 100a2d9c     tzwebgl1.obj
 0003:00002da8       ??_C@_04BMMK@?$FO?0?5?$FO?$AA@ 100a2da8     tzwebgl1.obj
 0003:00002db0       ??_C@_0EA@CGIN@?5?5?5?5?5?5nOptRC?5?$DN?5vAppSubtask?4CallD@ 100a2db0     tzwebgl1.obj
 0003:00002dfc       ??_C@_06FPEO@Dialog?$AA@   100a2dfc     tzwebgl1.obj
 0003:00002e04       ??_C@_0GB@EBFN@?5?5?5?5?5?5?1?1?5these?5operations?5need?5t@ 100a2e04     tzwebgl1.obj
 0003:00002e78       ??_C@_0FO@PFDB@?5?5?5?5?5?5?1?1?5These?5are?5called?5becaus@ 100a2e78     tzwebgl1.obj
 0003:00002ee8       ??_C@_0CH@GBJ@?5?5?5?5?5?5?1?1?5Prebuild?1Posbuild?5Opera@ 100a2ee8     tzwebgl1.obj
 0003:00002f18       ??_C@_07DMBJ@ActOper?$AA@  100a2f18     tzwebgl1.obj
 0003:00002f24       ??_C@_04FCOP@Type?$AA@     100a2f24     tzwebgl1.obj
 0003:00002f2c       ??_C@_0M@PBMH@ActWndEvent?$AA@ 100a2f2c     tzwebgl1.obj
 0003:00002f3c       ??_C@_06NMFG@Action?$AA@   100a2f3c     tzwebgl1.obj
 0003:00002f44       ??_C@_06FCEH@Window?$AA@   100a2f44     tzwebgl1.obj
 0003:00002f4c       ??_C@_0BL@EL@WEB_UnregisterZeidonWindow?$AA@ 100a2f4c     tzwebgl1.obj
 0003:00002f6c       ??_C@_04JADA@?$FO?5?$CJ?$DL?$AA@ 100a2f6c     tzwebgl1.obj
 0003:00002f74       ??_C@_0CO@KGFP@?5?5?5?5?5?5session?4setAttribute?$CI?5?$FOZei@ 100a2f74     tzwebgl1.obj
 0003:00002fac       ??_C@_0BB@LNKO@?5?5?5?5?5?5bDone?5?$DN?51?$DL?$AA@ 100a2fac     tzwebgl1.obj
 0003:00002fc0       ??_C@_05JJFN@?$FO?5?$CJ?5?$CJ?$AA@ 100a2fc0     tzwebgl1.obj
 0003:00002fc8       ??_C@_0DG@ELK@?5?5?5while?5?$CI?5bDone?5?$DN?$DN?50?5?$CG?$CG?5strActi@ 100a2fc8     tzwebgl1.obj
 0003:00003008       ??_C@_01OAK@N?$AA@         100a3008     tzwebgl1.obj
 0003:0000300c       ??_C@_0BD@LJHE@position?3relative?$DL?$AA@ 100a300c     tzwebgl1.obj
 0003:00003024       ??_C@_0L@FBOC@px?$DLheight?3?$AA@ 100a3024     tzwebgl1.obj
 0003:00003034       ??_C@_06DHPL@width?3?$AA@  100a3034     tzwebgl1.obj
 0003:0000303c       ??_C@_07DEAD@SZDLG_Y?$AA@  100a303c     tzwebgl1.obj
 0003:00003048       ??_C@_07JOJE@SZDLG_X?$AA@  100a3048     tzwebgl1.obj
 0003:00003054       ??_C@_07OOOK@style?$DN?$FO?$AA@ 100a3054     tzwebgl1.obj
 0003:00003060       ??_C@_0P@LOLP@?4selectedIndex?$AA@ 100a3060     tzwebgl1.obj
 0003:00003074       ??_C@_0L@BGKA@OnClick?$CI?5?$CJ?$AA@ 100a3074     tzwebgl1.obj
 0003:00003084       ??_C@_07NOMM@ListBox?$AA@  100a3084     tzwebgl1.obj
 0003:00003090       ??_C@_0BG@KLAD@ZEIDON_ComboBoxSubmit?$AA@ 100a3090     tzwebgl1.obj
 0003:000030ac       ??_C@_0M@KMML@?4submit?$CI?5?$CJ?$DL?$AA@ 100a30ac     tzwebgl1.obj
 0003:000030bc       ??_C@_02FCDG@?$FO?$DL?$AA@ 100a30bc     tzwebgl1.obj
 0003:000030c0       ??_C@_0BD@DEMM@?4zAction?4value?5?$DN?5?$FO?$AA@ 100a30c0     tzwebgl1.obj
 0003:000030d8       ??_C@_0CL@NGHG@?5?5?5?5?5?5document?4body?4style?4cursor@ 100a30d8     tzwebgl1.obj
 0003:0000310c       ??_C@_0CE@MFMH@?5?5?5?5?5?5_DisableFormElements?$CI?5true@ 100a310c     tzwebgl1.obj
 0003:00003138       ??_C@_0DB@EECK@?5?5?5?5?5?5?1?1?5END?5of?5Javascript?5code?5@ 100a3138     tzwebgl1.obj
 0003:00003174       ??_C@_0CK@GOCN@?5?5?5?5?5?5?1?1?5Javascript?5code?5entered@ 100a3174     tzwebgl1.obj
 0003:000031a8       ??_C@_0O@EIME@WebJavaScript?$AA@ 100a31a8     tzwebgl1.obj
 0003:000031b8       ??_C@_0CO@JCJO@?5?5?5?5?5?5hControl?4value?5?$DN?5Control?4s@ 100a31b8     tzwebgl1.obj
 0003:000031f0       ??_C@_0BA@OFCP@?4selectedIndex?$DL?$AA@ 100a31f0     tzwebgl1.obj
 0003:00003204       ??_C@_0CH@LDBJ@?4zTableRowSelect?4value?5?$DN?5strEnti@ 100a3204     tzwebgl1.obj
 0003:00003234       ??_C@_0CG@BHNN@?5?5?5?5?5?5hControl?4value?5?$DN?5Control?4v@ 100a3234     tzwebgl1.obj
 0003:00003264       ??_C@_07MJFA@?4value?$DL?$AA@ 100a3264     tzwebgl1.obj
 0003:00003270       ??_C@_09ELHD@document?4?$AA@ 100a3270     tzwebgl1.obj
 0003:0000327c       ??_C@_09KDBE@?4value?5?$DN?5?$AA@ 100a327c     tzwebgl1.obj
 0003:00003288       ??_C@_02LEGB@?4h?$AA@      100a3288     tzwebgl1.obj
 0003:0000328c       ??_C@_0BA@CMAJ@?5?5?5?5?5?5document?4?$AA@ 100a328c     tzwebgl1.obj
 0003:000032a0       ??_C@_0O@JCDN@?5?5?5?5?5?5return?$DL?$AA@ 100a32a0     tzwebgl1.obj
 0003:000032b0       ??_C@_0N@KACM@?$CJ?5?$DN?$DN?5false?5?$CJ?$AA@ 100a32b0     tzwebgl1.obj
 0003:000032c0       ??_C@_0CD@JCED@?5?5?5if?5?$CIisChangedComboBox?$CIdocumen@ 100a32c0     tzwebgl1.obj
 0003:000032ec       ??_C@_0BG@LGIN@?$CI?5hControl?0?5Control?5?$CJ?$AA@ 100a32ec     tzwebgl1.obj
 0003:00003308       ??_C@_0CE@ELHC@?$CI?5hControl?0?5Control?0?5strEntityKe@ 100a3308     tzwebgl1.obj
 0003:00003334       ??_C@_03KLPN@?$CI?5?$CJ?$AA@ 100a3334     tzwebgl1.obj
 0003:00003338       ??_C@_06LCPC@OnBlur?$AA@   100a3338     tzwebgl1.obj
 0003:00003340       ??_C@_08FEI@OnChange?$AA@  100a3340     tzwebgl1.obj
 0003:0000334c       ??_C@_05MJIN@Event?$AA@    100a334c     tzwebgl1.obj
 0003:00003354       ??_C@_0BE@GIKE@PSDLG_Y?5A?5PSDLG_X?5A?$AA@ 100a3354     tzwebgl1.obj
 0003:0000336c       ??_C@_0EB@HCHL@?4SetAttributeFromVariable?$CI?5strSI@ 100a336c     tzwebgl1.obj
 0003:000033bc       ??_C@_0DH@EAG@?5?5?5?5?5?5?5?5?5?5?5?5?5?5?5strTemp?5?$DN?5?$FOtxtCom@ 100a33bc     tzwebgl1.obj
 0003:00003400       ??_C@_0CP@MEDF@?5?5?5?5?5?5?5?5?5?5?5?5if?5?$CI?5strAllowComment@ 100a3400     tzwebgl1.obj
 0003:00003438       ??_C@_0BD@HMLJ@?5?5?5?5?5?5?5?5?5?5?5?5?5?5?5?5?5?$HN?$AA@ 100a3438     tzwebgl1.obj
 0003:00003450       ??_C@_0DI@IMF@?4TraceLine?$CI?5?$FODoInputMapping?5SetC@ 100a3450     tzwebgl1.obj
 0003:00003494       ??_C@_0BF@JJAG@?5?5?5?5?5?5?5?5?5?5?5?5?5?5?5?5?5?5?5?5?$AA@ 100a3494     tzwebgl1.obj
 0003:000034b0       ??_C@_0DF@DEPC@?4SetCursorNext?$CI?5strSID?0?5?$FOSurveyM@ 100a34b0     tzwebgl1.obj
 0003:000034f0       ??_C@_0BL@GIDD@?5?5?5?5?5?5?5?5?5?5?5?5?5?5?5?5?5?5?5?5nRC?5?$DN?5?$AA@ 100a34f0     tzwebgl1.obj
 0003:00003510       ??_C@_0BI@LICD@?5?5?5?5?5?5?5?5?5?5?5?5?5?5?5?5?5?5?5?5?5?5?5?$AA@ 100a3510     tzwebgl1.obj
 0003:0000352c       ??_C@_0FF@MODB@?5?5?5?5?5?5?5?5?5?5?5?5?5?5?5?5?5?5?5?5?5?5?5?5?5?5?5?5?5?5?5?5@ 100a352c     tzwebgl1.obj
 0003:00003594       ??_C@_0BL@HKPE@?5?5?5?5?5?5?5?5?5?5?5?5?5?5?5?5?5?5?5?5?5?5else?$AA@ 100a3594     tzwebgl1.obj
 0003:000035b4       ??_C@_0GG@JNHL@?5?5?5?5?5?5?5?5?5?5?5?5?5?5?5?5?5?5?5?5?5?5?5?5?5?5?5?5?5?5?5?5@ 100a35b4     tzwebgl1.obj
 0003:00003630       ??_C@_0FB@LAJG@?4SetAttributeFromVariable?$CI?5strSI@ 100a3630     tzwebgl1.obj
 0003:00003694       ??_C@_0BO@EBEP@?5?5?5?5?5?5?5?5?5?5?5?5?5?5?5?5?5?5?5?5?5?5?5nRC?5?$DN?5?$AA@ 100a3694     tzwebgl1.obj
 0003:000036b8       ??_C@_0DF@DDDD@?5?5?5?5?5?5?5?5?5?5?5?5?5?5?5?5?5?5?5?5if?5?$CI?5strQues@ 100a36b8     tzwebgl1.obj
 0003:000036f8       ??_C@_0DL@MFL@?5?5?5?5?5?5?5?5?5?5?5?5?5?5?5?5?5?5?5?5?1?1if?5?$CI?5?$CBstrQ@ 100a36f8     tzwebgl1.obj
 0003:00003740       ??_C@_0EA@NPID@?4TraceLine?$CI?5?$FO?$CK?$CK?$CK?$CK?$CK?$CK?$CK?5Checkbox?5An@ 100a3740     tzwebgl1.obj
 0003:0000378c       ??_C@_0EJ@IDEF@?5?5?5?5?5?5?5?5?5?5?5?5?5?5?5?5?5?5?5?5strQuestionA@ 100a378c     tzwebgl1.obj
 0003:000037e4       ??_C@_0DH@PMGB@?4TraceLine?$CI?5?$FO?$CK?$CK?$CK?$CK?$CK?$CK?$CK?5Checkbox?5Co@ 100a37e4     tzwebgl1.obj
 0003:00003828       ??_C@_0EB@OMFL@?5?5?5?5?5?5?5?5?5?5?5?5?5?5?5?5?5?5?5?5strTemp?5?$DN?5?$FOc@ 100a3828     tzwebgl1.obj
 0003:00003878       ??_C@_0DH@HMAH@?4GetString?$CI?5strSID?0?5?$FOSurveyMulti@ 100a3878     tzwebgl1.obj
 0003:000038bc       ??_C@_0CL@GHDG@?5?5?5?5?5?5?5?5?5?5?5?5?5?5?5?5?5?5?5?5strQuestionC@ 100a38bc     tzwebgl1.obj
 0003:000038f0       ??_C@_0BD@IDML@?5?5?5?5?5?5?5?5?5?5?5?5?5?5?5?5?5?$HL?$AA@ 100a38f0     tzwebgl1.obj
 0003:00003908       ??_C@_0CE@CHMP@?5?5?5?5?5?5?5?5?5?5?5?5?5?5?5?5?5while?5?$CI?5nRC?5?$DN?$DN?5@ 100a3908     tzwebgl1.obj
 0003:00003934       ??_C@_0DG@LIF@?4SetCursorFirst?$CI?5strSID?0?5?$FOSurvey@ 100a3934     tzwebgl1.obj
 0003:00003974       ??_C@_0BH@DGJE@?5?5?5?5?5?5?5?5?5?5?5?5?5?5?5?5nRC?5?$DN?5?$AA@ 100a3974     tzwebgl1.obj
 0003:00003990       ??_C@_0CI@KBCD@?4TraceLine?$CI?5?$FO?$CK?$CK?$CK?$CK?$CK?$CK?$CK?5Checkbox?5?5?5@ 100a3990     tzwebgl1.obj
 0003:000039c0       ??_C@_0CB@OMGE@?5?5?5?5?5?5?5?5?5?5?5?5?5?5?5?5?5?5?1?1?5check?5boxes@ 100a39c0     tzwebgl1.obj
 0003:000039e8       ??_C@_0BA@HOFB@?5?5?5?5?5?5?5?5?5?5?5?5?5?5?$HN?$AA@ 100a39e8     tzwebgl1.obj
 0003:000039fc       ??_C@_0FP@MKIN@?5?5?5?5?5?5?5?5?5?5?5?5?5?5?5?5?5?5?5?5?5?5?5?5?5?5?5?5?5?5?5?5@ 100a39fc     tzwebgl1.obj
 0003:00003a70       ??_C@_0BI@ENMG@?5?5?5?5?5?5?5?5?5?5?5?5?5?5?5?5?5nRC?5?$DN?5?$AA@ 100a3a70     tzwebgl1.obj
 0003:00003a8c       ??_C@_0DN@GIIH@?4TraceLine?$CI?5?$FO?$CK?$CK?$CK?$CK?$CK?$CK?$CK?5Radio?5Answe@ 100a3a8c     tzwebgl1.obj
 0003:00003ad8       ??_C@_0EH@EHKA@?5?5?5?5?5?5?5?5?5?5?5?5?5?5?5?5?5?5strQuestionAns@ 100a3ad8     tzwebgl1.obj
 0003:00003b30       ??_C@_0DE@NKON@?4TraceLine?$CI?5?$FO?$CK?$CK?$CK?$CK?$CK?$CK?$CK?5Radio?5Contr@ 100a3b30     tzwebgl1.obj
 0003:00003b70       ??_C@_0CN@GJJD@?5?5?5?5?5?5?5?5?5?5?5?5?5?5?5?5?5?5strTemp?5?$DN?5?$FOchk@ 100a3b70     tzwebgl1.obj
 0003:00003ba8       ??_C@_0CD@DCJM@?5?5?5?5?5?5?5?5?5?5?5?5?5?5?5?5?5?5?1?1?5radio?5butto@ 100a3ba8     tzwebgl1.obj
 0003:00003bd4       ??_C@_0EP@BNFO@?5?5?5?5?5?5?5?5?5?5?5?5?5?5if?5?$CI?5strQuestionTy@ 100a3bd4     tzwebgl1.obj
 0003:00003c34       ??_C@_0IL@GBKK@?5?5?5?5?5?5?5?5?5?5?5?5if?5?$CI?5strQuestionType@ 100a3c34     tzwebgl1.obj
 0003:00003cdc       ??_C@_0DF@DBEN@?5?5?5?5?5?5?5?5?5?5?5?5?5?5strTemp?5?$DN?5?$FOchkAnsw@ 100a3cdc     tzwebgl1.obj
 0003:00003d1c       ??_C@_0DJ@DDMO@?5?5?5?5?5?5?5?5?5?5?5?5else?5if?5?$CI?5strQuestio@ 100a3d1c     tzwebgl1.obj
 0003:00003d60       ??_C@_0FM@PBAM@?5?5?5?5?5?5?5?5?5?5?5?5?5?5?5?5?5?5?5?5?5?5?5?5?5?5?5?5?5?5?5?5@ 100a3d60     tzwebgl1.obj
 0003:00003dd0       ??_C@_0EE@MKMP@?4SetAttributeFromVariable?$CI?5strSI@ 100a3dd0     tzwebgl1.obj
 0003:00003e24       ??_C@_0EE@JMOJ@?5?5?5?5?5?5?5?5?5?5?5?5?5?5?5strQuestionAnswer@ 100a3e24     tzwebgl1.obj
 0003:00003e78       ??_C@_0DG@DJGM@?5?5?5?5?5?5?5?5?5?5?5?5?5?5?5strTemp?5?$DN?5?$FOtxtAns@ 100a3e78     tzwebgl1.obj
 0003:00003eb8       ??_C@_0CE@CPNC@?4TraceLine?$CI?5?$FO?$CK?$CK?$CK?$CK?$CK?$CK?$CK?5Text?5?5?5?$FO?0?5?$FO@ 100a3eb8     tzwebgl1.obj
 0003:00003ee4       ??_C@_0DC@ECIL@?5?5?5?5?5?5?5?5?5?5?5?5if?5?$CI?5strQuestionType@ 100a3ee4     tzwebgl1.obj
 0003:00003f20       ??_C@_0FI@EFLF@?4SetCursorFirst?$CI?5strSID?0?5?$FOSurvey@ 100a3f20     tzwebgl1.obj
 0003:00003f8c       ??_C@_0DK@FMDP@?4TraceLine?$CI?5?$FO?$CK?$CK?$CK?$CK?$CK?$CK?$CK?5strQuestion@ 100a3f8c     tzwebgl1.obj
 0003:00003fd4       ??_C@_0DM@NHPN@?4TraceLine?$CI?5?$FO?$CK?$CK?$CK?$CK?$CK?$CK?$CK?5strQuestion@ 100a3fd4     tzwebgl1.obj
 0003:0000401c       ??_C@_0DL@PGOI@?5?5?5?5?5?5?5?5?5strAllowComment?$DN?5reques@ 100a401c     tzwebgl1.obj
 0003:00004064       ??_C@_0CH@JBCH@?5?5?5?5?5?5?5?5?5strTemp?5?$DN?5?$FOAllowComment@ 100a4064     tzwebgl1.obj
 0003:00004094       ??_C@_0DL@CIIC@?5?5?5?5?5?5?5?5?5strQuestionType?$DN?5reques@ 100a4094     tzwebgl1.obj
 0003:000040dc       ??_C@_0CH@GGIG@?5?5?5?5?5?5?5?5?5strTemp?5?$DN?5?$FOQuestionType@ 100a40dc     tzwebgl1.obj
 0003:0000410c       ??_C@_0DK@GMKD@?5?5?5?5?5?5?5?5?5strQuestionID?5?$DN?5request@ 100a410c     tzwebgl1.obj
 0003:00004154       ??_C@_0CF@DDNA@?5?5?5?5?5?5?5?5?5strTemp?5?$DN?5?$FOQuestionID?$FO?5@ 100a4154     tzwebgl1.obj
 0003:00004180       ??_C@_0CM@HGPK@?5?5?5?5?5?5for?5?$CIint?5i?$DN1?$DL?5i?$DM?$DNiQuestion@ 100a4180     tzwebgl1.obj
 0003:000041b4       ??_C@_0DN@BJCE@?5?5?5?5?5?5int?5iQuestionCount?$DNInteger@ 100a41b4     tzwebgl1.obj
 0003:00004200       ??_C@_0EI@FLFC@?5?5?5?5?5?5strQuestionCount?5?$DN?5request@ 100a4200     tzwebgl1.obj
 0003:00004258       ??_C@_0CB@HHJF@?5?5?5?5?5?5String?5strAllowComment?$DN?$FO?$FO?$DL@ 100a4258     tzwebgl1.obj
 0003:00004280       ??_C@_0CF@IMHN@?5?5?5?5?5?5String?5strQuestionChoiceID@ 100a4280     tzwebgl1.obj
 0003:000042ac       ??_C@_0CD@JEPI@?5?5?5?5?5?5String?5strQuestionAnswer?$DN?$FO@ 100a42ac     tzwebgl1.obj
 0003:000042d8       ??_C@_0CB@LHNN@?5?5?5?5?5?5String?5strQuestionName?$DN?$FO?$FO?$DL@ 100a42d8     tzwebgl1.obj
 0003:00004300       ??_C@_0CB@ENMJ@?5?5?5?5?5?5String?5strQuestionType?$DN?$FO?$FO?$DL@ 100a4300     tzwebgl1.obj
 0003:00004328       ??_C@_0BP@KOJA@?5?5?5?5?5?5String?5strQuestionID?$DN?$FO?$FO?$DL?$AA@ 100a4328     tzwebgl1.obj
 0003:00004350       ??_C@_0BP@JNMH@?5?5?5?5?5?5String?5strQuestionCount?$DL?$AA@ 100a4350     tzwebgl1.obj
 0003:00004378       ??_C@_08KNMJ@GroupBox?$AA@ 100a4378     tzwebgl1.obj
 0003:00004384       ??_C@_0CB@HHB@?5?5?5?5?5?5vGridTmp?4DropView?$CIstrSID?$CJ?$DL@ 100a4384     tzwebgl1.obj
 0003:000043ac       ??_C@_0BB@GDNK@?$FO?0?5?53?5?$CJ?$DL?5?1?1?5next?$AA@ 100a43ac     tzwebgl1.obj
 0003:000043c0       ??_C@_0CF@GMBC@vGridTmp?4SetCursorScopeOI?$CI?5strSI@ 100a43c0     tzwebgl1.obj
 0003:000043ec       ??_C@_0CC@IFBL@vGridTmp?4SetCursorNext?$CI?5strSID?0?5@ 100a43ec     tzwebgl1.obj
 0003:00004414       ??_C@_0M@FBAO@GridEditBox?$AA@ 100a4414     tzwebgl1.obj
 0003:00004424       ??_C@_0BK@PPCP@?$FO?0?5vGridTmp?4zPOS_AFTER?5?$CJ?$DL?$AA@ 100a4424     tzwebgl1.obj
 0003:00004444       ??_C@_0BL@KINE@?$FO?0?5vGridTmp?4zREPOS_NONE?5?$CJ?$DL?$AA@ 100a4444     tzwebgl1.obj
 0003:00004464       ??_C@_0BL@JLJK@?5?5?5?5?5?5?5?5?5?5?5?5?5?5?5?5?5?5vGridTmp?$AA@ 100a4464     tzwebgl1.obj
 0003:00004484       ??_C@_0DH@KHCP@?5?5?5?5?5?5?5?5?5?5?5?5?5?5?5strTemp?5?$DN?5vGridTm@ 100a4484     tzwebgl1.obj
 0003:000044c8       ??_C@_0EN@IJNO@?5?5?5?5?5?5?5?5?5?5?5?5?5?5?5?1?1Only?5do?5the?5aut@ 100a44c8     tzwebgl1.obj
 0003:00004524       ??_C@_0CC@POIJ@?5?5?5?5?5?5?5?5?5?5?5?5?1?1?5Auto?5Include?5Code@ 100a4524     tzwebgl1.obj
 0003:0000454c       ??_C@_0BO@OECD@?5?5?5?5?5?5?5?5?5?5?5?5?5?5?5nRC?5?$DN?5vGridTmp?$AA@ 100a454c     tzwebgl1.obj
 0003:00004570       ??_C@_0BO@GFBJ@?5?5?5?5?5?5?5?5?5?5?5?5?5?5?5strMapValue?5?$DN?5?$AA@ 100a4570     tzwebgl1.obj
 0003:00004594       ??_C@_0BL@MNFP@?5?5?5?5?5?5?5?5?5?5?5?5nRC?5?$DN?5vGridTmp?$AA@ 100a4594     tzwebgl1.obj
 0003:000045b4       ??_C@_0CF@HGPE@?5?5?5?5?5?5?5?5?5?5?5?5?1?1?5Set?5Foreign?5Key?5C@ 100a45b4     tzwebgl1.obj
 0003:000045e0       ??_C@_0BP@FKFG@?5?5?5?5?5?5?5?5?5?5?5?5?5?5?5if?5?$CI?5nRC?5?$DO?$DN?50?5?$CJ?$AA@ 100a45e0     tzwebgl1.obj
 0003:00004608       ??_C@_0BG@GEJM@?5?5?5?5?5?5?5?5?5?5?5?5?5?5?5nRC?5?$DN?5?$AA@ 100a4608     tzwebgl1.obj
 0003:00004624       ??_C@_0GG@DJHD@?5?5?5?5?5?5?5?5?5?5?5?5?5?5?5?5?5?5nRelPos?9?9?$DL?5?5?5?5@ 100a4624     tzwebgl1.obj
 0003:000046a0       ??_C@_0EE@KEHA@?5?5?5?5?5?5?5?5?5?5?5?5?5?5?5nRelPos?5?$DN?5java?4la@ 100a46a0     tzwebgl1.obj
 0003:000046f4       ??_C@_0CH@JKHN@?5?5?5?5?5?5?5?5?5?5?5?5if?5?$CI?5strMapValue?5?$CB?$DN?5@ 100a46f4     tzwebgl1.obj
 0003:00004724       ??_C@_0DK@CPKH@?5?5?5?5?5?5?5?5?5?5?5?5strMapValue?5?$DN?5reques@ 100a4724     tzwebgl1.obj
 0003:0000476c       ??_C@_0BH@BHOH@?5?5?5?5?5?5?5?5?5?5?5?5strTag?5?$DN?5?$FO?$AA@ 100a476c     tzwebgl1.obj
 0003:00004788       ??_C@_0BI@OPHE@?5?5?5?5?5?5?5?5?5if?5?$CI?5nRC?5?$DO?50?5?$CJ?$AA@ 100a4788     tzwebgl1.obj
 0003:000047a4       ??_C@_0N@KPNN@?5?5?5?5?5?5?5?5?5?1?1?5?$AA@ 100a47a4     tzwebgl1.obj
 0003:000047b4       ??_C@_0BD@DJCE@?5?5?5?5?5?5?5?5?5?5?5?5break?$DL?$AA@ 100a47b4     tzwebgl1.obj
 0003:000047cc       ??_C@_0BJ@BNJD@?$FO?0?5strMapValue?0?5?8S?8?0?50?0?5?$AA@ 100a47cc     tzwebgl1.obj
 0003:000047ec       ??_C@_0CM@IAOL@?$FO?0?5strMapValue?0?5?8S?8?0?50?0?5strDateF@ 100a47ec     tzwebgl1.obj
 0003:00004820       ??_C@_0BI@OIKK@?5?5?5?5?5?5?5?5?5nRC?5?$DN?5vGridTmp?$AA@ 100a4820     tzwebgl1.obj
 0003:0000483c       ??_C@_0BI@CPJD@?$FO?0?5?$FO?$FO?0?5?8S?8?0?50?0?5?$FO?$FO?0?50?5?$CJ?$DL?$AA@ 100a483c     tzwebgl1.obj
 0003:00004858       ??_C@_01HAF@?8?$AA@        100a4858     tzwebgl1.obj
 0003:0000485c       ??_C@_0BE@BLB@?$FO?0?5?8S?8?0?50?0?5?$FO?$FO?0?50?5?$CJ?$DL?$AA@ 100a485c     tzwebgl1.obj
 0003:00004874       ??_C@_0DJ@BCKF@?5?5?5?5?5?5?5?5?5?5?5?5vGridTmp?4SetAttribut@ 100a4874     tzwebgl1.obj
 0003:000048b8       ??_C@_0BF@MAGP@RadioOrCheckboxValue?$AA@ 100a48b8     tzwebgl1.obj
 0003:000048d4       ??_C@_0L@LKO@?5?$CB?$DN?5null?5?$CJ?$AA@ 100a48d4     tzwebgl1.obj
 0003:000048e4       ??_C@_0BK@KEHL@?5?5?5?5?5?5?5?5?5if?5?$CI?5strMapValue?$AA@ 100a48e4     tzwebgl1.obj
 0003:00004904       ??_C@_0CD@GDLM@?5?$DN?5request?4getParameter?$CI?5strTag?5@ 100a4904     tzwebgl1.obj
 0003:00004930       ??_C@_0BF@PILM@?5?5?5?5?5?5?5?5?5strMapValue?$AA@ 100a4930     tzwebgl1.obj
 0003:0000494c       ??_C@_0BC@IECP@?$FO?5?$CL?5strEntityKey?$DL?$AA@ 100a494c     tzwebgl1.obj
 0003:00004964       ??_C@_0N@HDOD@GridCheckCtl?$AA@ 100a4964     tzwebgl1.obj
 0003:00004974       ??_C@_0M@NBAB@?5?5?5?5?5?5?5?5?5?$HN?5?$AA@ 100a4974     tzwebgl1.obj
 0003:00004984       ??_C@_0EC@IOCC@?5?5?5?5?5?5?5?5?5?5?5?5?5?5?5?5?5?5strError?5?$CL?$DN?5st@ 100a4984     tzwebgl1.obj
 0003:000049d4       ??_C@_0CD@GNMN@?5?5?5?5?5?5?5?5?5?5?5?5?5?5?5?5?5?5nMapError?5?$DN?5nR@ 100a49d4     tzwebgl1.obj
 0003:00004a00       ??_C@_0BO@KDLH@?5?5?5?5?5?5?5?5?5?5?5?5?5?5?5if?5?$CI?5nRC?5?$DM?50?5?$CJ?$AA@ 100a4a00     tzwebgl1.obj
 0003:00004a24       ??_C@_0EC@GCPP@?5?5?5?5?5?5?5?5?5?5?5?5?5?5?5nRC?5?$DN?5vGridTmp?4Se@ 100a4a24     tzwebgl1.obj
 0003:00004a74       ??_C@_0DJ@NGFP@?5?5?5?5?5?5?5?5?5?5?5?5if?5?$CI?5strTemp?4compare@ 100a4a74     tzwebgl1.obj
 0003:00004ab8       ??_C@_0EK@OFJD@?5?5?5?5?5?5?5?5?5?5?5?5strTemp?5?$DN?5vGridTmp?4G@ 100a4ab8     tzwebgl1.obj
 0003:00004b10       ??_C@_0CF@JDL@?5?5?5?5?5?5?5?5?5if?5?$CI?5strMapValue?5?$CB?$DN?5nul@ 100a4b10     tzwebgl1.obj
 0003:00004b3c       ??_C@_0DH@EDJE@?5?5?5?5?5?5?5?5?5strMapValue?5?$DN?5request?4g@ 100a4b3c     tzwebgl1.obj
 0003:00004b80       ??_C@_0BE@MOMF@?3?3?$FO?5?$CL?5strEntityKey?$DL?$AA@ 100a4b80     tzwebgl1.obj
 0003:00004b98       ??_C@_0BE@DCFC@?5?5?5?5?5?5?5?5?5strTag?5?$DN?5?$FO?$AA@ 100a4b98     tzwebgl1.obj
 0003:00004bb0       ??_C@_0M@PNMK@WebCtrlType?$AA@ 100a4bb0     tzwebgl1.obj
 0003:00004bc0       ??_C@_04EDLP@Edit?$AA@     100a4bc0     tzwebgl1.obj
 0003:00004bc8       ??_C@_08FGLH@Disabled?$AA@ 100a4bc8     tzwebgl1.obj
 0003:00004bd4       ??_C@_01KDJI@h?$AA@        100a4bd4     tzwebgl1.obj
 0003:00004bd8       ??_C@_0L@MMFE@GridSubCtl?$AA@ 100a4bd8     tzwebgl1.obj
 0003:00004be8       ??_C@_0BJ@CPGI@?5?5?5?5?5?5?5?5?5iTableRowCnt?$CL?$CL?$DL?$AA@ 100a4be8     tzwebgl1.obj
 0003:00004c08       ??_C@_0DI@EGOD@?5?5?5?5?5?5?5?5?5strEntityKey?5?$DN?5Integer?4@ 100a4c08     tzwebgl1.obj
 0003:00004c4c       ??_C@_0CB@IACM@vGridTmp?4GetEntityKey?$CI?5strSID?0?5?$FO@ 100a4c4c     tzwebgl1.obj
 0003:00004c74       ??_C@_0BH@HGBN@?5?5?5?5?5?5?5?5?5lEntityKey?5?$DN?5?$AA@ 100a4c74     tzwebgl1.obj
 0003:00004c90       ??_C@_0BJ@MBAP@?5?5?5?5?5?5while?5?$CI?5nRC?5?$DO?$DN?50?5?$CJ?$AA@ 100a4c90     tzwebgl1.obj
 0003:00004cb0       ??_C@_0BB@LPPN@?$FO?0?51?5?$CJ?$DL?5?1?1?5first?$AA@ 100a4cb0     tzwebgl1.obj
 0003:00004cc4       ??_C@_0DB@DLKC@?5?5?5?5?5?5nRC?5?$DN?5vGridTmp?4SetCursorSc@ 100a4cc4     tzwebgl1.obj
 0003:00004d00       ??_C@_0CP@FPP@?5?5?5?5?5?5nRC?5?$DN?5vGridTmp?4SetCursorFi@ 100a4d00     tzwebgl1.obj
 0003:00004d38       ??_C@_0O@OEEB@ExtendedStyle?$AA@ 100a4d38     tzwebgl1.obj
 0003:00004d48       ??_C@_0CM@KPJG@?5?5?5?5?5?5vGridTmp?4CreateViewFromVie@ 100a4d48     tzwebgl1.obj
 0003:00004d7c       ??_C@_0BM@HHCJ@?5?5?5?5?5?5?1?1?5entity?5positions?4?5?$AA@ 100a4d7c     tzwebgl1.obj
 0003:00004da0       ??_C@_0EM@HHOD@?5?5?5?5?5?5?1?1?5grids?5on?5the?5same?5windo@ 100a4da0     tzwebgl1.obj
 0003:00004dfc       ??_C@_0EM@IBOB@?5?5?5?5?5?5?1?1?5We?5are?5creating?5a?5temp?5@ 100a4dfc     tzwebgl1.obj
 0003:00004e58       ??_C@_0BI@EJLN@?5?5?5?5?5?5iTableRowCnt?5?$DN?50?$DL?$AA@ 100a4e58     tzwebgl1.obj
 0003:00004e74       ??_C@_0FD@MLEI@?5?5?5?5?5?5?5?5?5?5?5?5?5?5?5?5?5?5?5?5?5?5?5?5?5?5?5?5?5?5?5?5@ 100a4e74     tzwebgl1.obj
 0003:00004ed8       ??_C@_0EA@ELIM@?5?5?5?5?5?5?5?5?5strDateFormat?5?$DN?5request@ 100a4ed8     tzwebgl1.obj
 0003:00004f24       ??_C@_08GGOA@Calendar?$AA@ 100a4f24     tzwebgl1.obj
 0003:00004f30       ??_C@_0DO@NHLO@?5?5?5?5?5?5?5?5?5nRelPos?5?$DN?5java?4lang?4Int@ 100a4f30     tzwebgl1.obj
 0003:00004f7c       ??_C@_0CB@DEE@?5?5?5?5?5?5if?5?$CI?5strMapValue?5?$CB?$DN?5null?5?$CJ@ 100a4f7c     tzwebgl1.obj
 0003:00004fa4       ??_C@_0CN@MICG@?5?5?5?5?5?5strMapValue?5?$DN?5request?4getP@ 100a4fa4     tzwebgl1.obj
 0003:00004fdc       ??_C@_0P@MBML@XSL?5Generation?$AA@ 100a4fdc     tzwebgl1.obj
 0003:00004ff0       ??_C@_0BG@JBCH@Missing?5List?5Mapping?4?$AA@ 100a4ff0     tzwebgl1.obj
 0003:0000500c       ??_C@_0BB@PJOE@?5?5?5?5?5?5?5?5?5?5?5?5else?$AA@ 100a500c     tzwebgl1.obj
 0003:00005020       ??_C@_0P@FCBP@?4zPOS_AFTER?5?$CJ?$DL?$AA@ 100a5020     tzwebgl1.obj
 0003:00005034       ??_C@_03OIBC@?0?5?$FO?$AA@ 100a5034     tzwebgl1.obj
 0003:00005038       ??_C@_0CK@BNP@?4IncludeSubobjectFromSubobject?$CI?5@ 100a5038     tzwebgl1.obj
 0003:0000506c       ??_C@_0BA@GBHJ@?4zREPOS_NONE?5?$CJ?$DL?$AA@ 100a506c     tzwebgl1.obj
 0003:00005080       ??_C@_0BK@HHKB@?4ExcludeEntity?$CI?5strSID?0?5?$FO?$AA@ 100a5080     tzwebgl1.obj
 0003:000050a0       ??_C@_0BD@CEHK@?5?5?5?5?5?5?5?5?5?5?5?5?5?5?5?5?5?5?$AA@ 100a50a0     tzwebgl1.obj
 0003:000050b8       ??_C@_06OHNK@?$FO?5?$CJ?$CJ?$CJ?5?$AA@ 100a50b8     tzwebgl1.obj
 0003:000050c0       ??_C@_0CG@FAFH@?5?5?5?5?5?5?5?5?5?5?5?5?5?5?5if?5?$CI?5?$CBstrTemp?4equ@ 100a50c0     tzwebgl1.obj
 0003:000050f0       ??_C@_0BG@MFPD@?4GetString?$CI?5strSID?0?5?$FO?$AA@ 100a50f0     tzwebgl1.obj
 0003:0000510c       ??_C@_0BK@DJCC@?5?5?5?5?5?5?5?5?5?5?5?5?5?5?5strTemp?5?$DN?5?$AA@ 100a510c     tzwebgl1.obj
 0003:0000512c       ??_C@_0EO@IEO@?5?5?5?5?5?5?5?5?5?5?5?5?5?5?5?1?1?5Only?5do?5the?5au@ 100a512c     tzwebgl1.obj
 0003:0000518c       ??_C@_0CI@EGHD@?5?5?5?5?5?5?5?5?5if?5?$CI?5?$CBstrMapValue?4equal@ 100a518c     tzwebgl1.obj
 0003:000051bc       ??_C@_0DL@KPKC@?5?5?5?5?5?5?5?5?5?1?1?5If?5there?5is?5an?5entit@ 100a51bc     tzwebgl1.obj
 0003:00005204       ??_C@_0GM@CEEB@?5?5?5?5?5?5?5?5?5?1?1?5If?5the?5value?5is?5?$FO0?$FO?5@ 100a5204     tzwebgl1.obj
 0003:00005288       ??_C@_0BP@DDFJ@?5?5?5?5?5?5?5?5?5?1?1?5Auto?5Include?5Code?5?$AA@ 100a5288     tzwebgl1.obj
 0003:000052b0       ??_C@_0BK@JOGH@?$FO?0?5strMapValue?0?5?8S?8?0?50?0?5?$FO?$AA@ 100a52b0     tzwebgl1.obj
 0003:000052d0       ??_C@_0CM@NCLN@?4GetStringFromAttributeByContext@ 100a52d0     tzwebgl1.obj
 0003:00005304       ??_C@_0BL@EMGF@?5?5?5?5?5?5?5?5?5?5?5?5strMapValue?5?$DN?5?$AA@ 100a5304     tzwebgl1.obj
 0003:00005324       ??_C@_0CC@KNCM@?5?5?5?5?5?5?5?5?5?1?1?5Set?5Foreign?5Key?5Code@ 100a5324     tzwebgl1.obj
 0003:0000534c       ??_C@_0O@NMEO@?$FO?0?5nRelPos?0?5?$FO?$AA@ 100a534c     tzwebgl1.obj
 0003:0000535c       ??_C@_0BG@IEIO@?4SetCursor?$CI?5strSID?0?5?$FO?$AA@ 100a535c     tzwebgl1.obj
 0003:00005378       ??_C@_0BA@CGJC@?5?5?5?5?5?5?5?5?5?5?5?5?5?5?5?$AA@ 100a5378     tzwebgl1.obj
 0003:0000538c       ??_C@_0BM@HKHP@?5?5?5?5?5?5?5?5?5?5?5?5if?5?$CI?5nRC?5?$DO?$DN?50?5?$CJ?$AA@ 100a538c     tzwebgl1.obj
 0003:000053b0       ??_C@_0BL@EDC@?4SetCursorFirst?$CI?5strSID?0?5?$FO?$AA@ 100a53b0     tzwebgl1.obj
 0003:000053d0       ??_C@_0GA@EHFN@?5?5?5?5?5?5?5?5?5?5?5?5nRelPos?9?9?$DL?5?5?5?5?1?1?5For@ 100a53d0     tzwebgl1.obj
 0003:00005444       ??_C@_0EB@CEIP@?5?5?5?5?5?5?5?5?5?5?5?5nRelPos?5?$DN?5java?4lang?4@ 100a5444     tzwebgl1.obj
 0003:00005494       ??_C@_09MHNE@?$FO?0?5vAS?5?$CJ?$DL?$AA@ 100a5494     tzwebgl1.obj
 0003:000054a0       ??_C@_0BE@LEEI@?4GetView?$CI?5strSID?0?5?$FO?$AA@ 100a54a0     tzwebgl1.obj
 0003:000054b8       ??_C@_07DAPJ@CtrlMap?$AA@  100a54b8     tzwebgl1.obj
 0003:000054c4       ??_C@_0CE@NLEJ@?5?5?5?5?5?5?5?5?5if?5?$CI?5strMapValue?5?$CB?$DN?5nul@ 100a54c4     tzwebgl1.obj
 0003:000054f0       ??_C@_0BA@NKKF@?5?5?5?5?5?5?5?5?5?1?1?5If?5?$AA@ 100a54f0     tzwebgl1.obj
 0003:00005504       ??_C@_0DA@GOAF@?5?5?5?5?5?5?5?5?5strMapValue?5?$DN?5request?4g@ 100a5504     tzwebgl1.obj
 0003:00005540       ??_C@_0BP@GBEL@?$FO?5?$CL?5?$FO?2t?$FO?5?$CL?5strMapValue?5?$CL?5?$FO?2t?$FO?$DL?$AA@ 100a5540     tzwebgl1.obj
 0003:00005568       ??_C@_0BK@MMLF@?5?5?5?5?5?5?5?5?5?5?5?5strError?5?$CL?$DN?5?$FO?$AA@ 100a5568     tzwebgl1.obj
 0003:00005588       ??_C@_0BN@LPCA@?5?5?5?5?5?5?5?5?5?5?5?5nMapError?5?$DN?5nRC?$DL?$AA@ 100a5588     tzwebgl1.obj
 0003:000055ac       ??_C@_03LAEO@?$FO?0?5?$AA@ 100a55ac     tzwebgl1.obj
 0003:000055b0       ??_C@_0EA@POCD@?5?5?5?5?5?5?5?5?5?5?5?5?5?5?5?5?5?5?5?5?5?5?5?5?5?5?5?5?5?5?5?5@ 100a55b0     tzwebgl1.obj
 0003:000055fc       ??_C@_01FCOA@?5?$AA@       100a55fc     tzwebgl1.obj
 0003:00005600       ??_C@_02KOKD@?$FO?0?$AA@   100a5600     tzwebgl1.obj
 0003:00005604       ??_C@_0CF@EKMO@?4SetAttributeFromVariable?$CI?5strSI@ 100a5604     tzwebgl1.obj
 0003:00005630       ??_C@_0DI@PPNC@?5?5?5?5?5?5?5?5?5strMapValue?5?$DN?5ReplaceXS@ 100a5630     tzwebgl1.obj
 0003:00005674       ??_C@_0CP@JNLL@?5?5?5?5?5?5?5?5?5strMapValue?5?$DN?5request?4g@ 100a5674     tzwebgl1.obj
 0003:000056ac       ??_C@_0CD@GNLK@?4CheckExistenceOfEntity?$CI?5strSID?0@ 100a56ac     tzwebgl1.obj
 0003:000056d8       ??_C@_02HFBK@?3?5?$AA@     100a56d8     tzwebgl1.obj
 0003:000056dc       ??_C@_09LLDN@?5?5?5?5?5?5?1?1?5?$AA@ 100a56dc     tzwebgl1.obj
 0003:000056e8       ??_C@_0P@IAHJ@CtrlMapContext?$AA@ 100a56e8     tzwebgl1.obj
 0003:000056fc       ??_C@_08BFFN@RadioGrp?$AA@ 100a56fc     tzwebgl1.obj
 0003:00005708       ??_C@_06MNHM@MLEdit?$AA@   100a5708     tzwebgl1.obj
 0003:00005710       ??_C@_08BJCD@CheckBox?$AA@ 100a5710     tzwebgl1.obj
 0003:0000571c       ??_C@_01PLJA@0?$AA@        100a571c     tzwebgl1.obj
 0003:00005720       ??_C@_01KPCI@8?$AA@        100a5720     tzwebgl1.obj
 0003:00005724       ??_C@_04BNNJ@Text?$AA@     100a5724     tzwebgl1.obj
 0003:0000572c       ??_C@_0N@OBCH@Survey?5Group?$AA@ 100a572c     tzwebgl1.obj
 0003:0000573c       ??_C@_0L@MMHA@XSS?5Encode?$AA@ 100a573c     tzwebgl1.obj
 0003:0000574c       ??_C@_0DB@ODEM@?$CK?$CK?$CK?5DoInputMapping?5looping?5throu@ 100a574c     tzwebgl1.obj
 0003:00005788       ??_C@_0CB@JLJI@?$CK?$CK?$CK?5DoInputMapping?5for?5view?5?$CK?$CK?$CK?5@ 100a5788     tzwebgl1.obj
 0003:000057b0       ??_C@_0O@PNMG@?5wrap?$DN?$FOwrap?$FO?$DO?$AA@ 100a57b0     tzwebgl1.obj
 0003:000057c0       ??_C@_0CB@FADH@?$DM?$CF?$DNstrErrorMapValue?$CF?$DO?$DM?1textarea?$DO@ 100a57c0     tzwebgl1.obj
 0003:000057e8       ??_C@_0BB@IFNE@?$DMtextarea?5name?$DN?$FO?$AA@ 100a57e8     tzwebgl1.obj
 0003:000057fc       ??_C@_09PCJM@mceSimple?$AA@ 100a57fc     tzwebgl1.obj
 0003:00005808       ??_C@_0O@DJH@wysiwygEditor?$AA@ 100a5808     tzwebgl1.obj
 0003:00005818       ??_C@_0BA@GOJG@wysiwyg?5TinyMCE?$AA@ 100a5818     tzwebgl1.obj
 0003:0000582c       ??_C@_0CK@MKC@border?3?82px?5solid?8?$DLborder?9style?3@ 100a582c     tzwebgl1.obj
 0003:00005860       ??_C@_0CK@BAOD@border?3?84px?5solid?8?$DLborder?9style?3@ 100a5860     tzwebgl1.obj
 0003:00005894       ??_C@_0O@FJFK@VisibleBorder?$AA@ 100a5894     tzwebgl1.obj
 0003:000058a4       ??_C@_0BO@NGHH@?5?5?5?5?5?5?5?5?5strErrorMapValue?5?$DN?5?$FO?$AA@ 100a58a4     tzwebgl1.obj
 0003:000058c8       ??_C@_0CN@OPCK@?5?5?5?5?5?5if?5?$CI?5strErrorMapValue?4leng@ 100a58c8     tzwebgl1.obj
 0003:00005900       ??_C@_0CD@GCGN@?5?5?5?5?5?5?5?5?5?5?5?5strErrorMapValue?5?$DN?5?$FO@ 100a5900     tzwebgl1.obj
 0003:0000592c       ??_C@_0CJ@DLMK@?5?5?5?5?5?5?5?5?5if?5?$CI?5strErrorMapValue?5?$DN@ 100a592c     tzwebgl1.obj
 0003:00005960       ??_C@_0BN@NAD@?5?5?5?5?5?5?5?5?5strErrorMapValue?5?$DN?5?$AA@ 100a5960     tzwebgl1.obj
 0003:00005984       ??_C@_06CFFO@?5?5?5?1?1?5?$AA@ 100a5984     tzwebgl1.obj
 0003:0000598c       ??_C@_0CJ@LLFP@?$DM?1div?$DO?5?5?$DM?$CB?9?9?5End?5of?5div?5around?5t@ 100a598c     tzwebgl1.obj
 0003:000059c0       ??_C@_0M@OMAB@?$FO?5style?$DN?$FO?$FO?$DO?$AA@ 100a59c0     tzwebgl1.obj
 0003:000059d0       ??_C@_0O@HNMA@?$DMspan?5class?$DN?$FO?$AA@ 100a59d0     tzwebgl1.obj
 0003:000059e0       ??_C@_0BA@EFBL@?$DMspan?5style?$DN?$FO?$FO?$DO?$AA@ 100a59e0     tzwebgl1.obj
 0003:000059f4       ??_C@_0BG@NKNJ@WebNoGridDataMsgClass?$AA@ 100a59f4     tzwebgl1.obj
 0003:00005a10       ??_C@_0BP@NKHN@?5?5?5?5?5?5if?5?$CI?5iTableRowCnt?5?$DN?$DN?50?5?$CJ?$AA@ 100a5a10     tzwebgl1.obj
 0003:00005a38       ??_C@_0BL@BFEI@document?4getElementById?$CI?$FOo?$AA@ 100a5a38     tzwebgl1.obj
 0003:00005a58       ??_C@_0GB@LFCD@?$FO?5style?$DN?$FOdisplay?3none?$DL?$FO?5?$DO?$DM?$CF?$DNstrT@ 100a5a58     tzwebgl1.obj
 0003:00005acc       ??_C@_07OEOB@?$FO?5id?$DN?$FOh?$AA@ 100a5acc     tzwebgl1.obj
 0003:00005ad8       ??_C@_0BC@GKBN@?$DMtextarea?5name?$DN?$FOh?$AA@ 100a5ad8     tzwebgl1.obj
 0003:00005af0       ??_C@_0BB@OENI@?5?5?5?5?5?5?5?5?5nRC2?5?$DN?5?$AA@ 100a5af0     tzwebgl1.obj
 0003:00005b04       ??_C@_0BF@KKDD@?3?3?$DM?$CF?$DNstrEntityKey?$CF?$DO?$FO?$AA@ 100a5b04     tzwebgl1.obj
 0003:00005b20       ??_C@_0BH@BAEG@?$DO?$DMa?5href?$DN?$FO?$CD?$FO?5onclick?$DN?$FO?$AA@ 100a5b20     tzwebgl1.obj
 0003:00005b3c       ??_C@_0M@MANJ@?$CF?$DO?$DM?1a?$DO?$DM?1td?$DO?$AA@ 100a5b3c     tzwebgl1.obj
 0003:00005b4c       ??_C@_08CMMC@_URL?$CF?$DO?$FO?5?$AA@ 100a5b4c     tzwebgl1.obj
 0003:00005b58       ??_C@_0BB@KEPI@?$DO?$DMa?5href?$DN?$FO?$DM?$CF?$DNstr?$AA@ 100a5b58     tzwebgl1.obj
 0003:00005b6c       ??_C@_0BF@IMOH@?$DO?$DMa?5href?$DN?$FO?$CD?$FO?5?5name?$DN?$FO?$AA@ 100a5b6c     tzwebgl1.obj
 0003:00005b88       ??_C@_0N@PMOJ@?5?1?$DO?$DM?1a?$DO?$DM?1td?$DO?$AA@ 100a5b88     tzwebgl1.obj
 0003:00005b98       ??_C@_0CA@OLIO@?3?3?$DM?$CF?$DNstrEntityKey?$CF?$DO?$FO?$DO?$DMimg?5src?$DN?$FO?$AA@ 100a5b98     tzwebgl1.obj
 0003:00005bc0       ??_C@_05KDFO@alt?$DN?$FO?$AA@ 100a5bc0     tzwebgl1.obj
 0003:00005bc8       ??_C@_0CB@DGEO@?3?3?$DM?$CF?$DNstrEntityKey?$CF?$DO?$FO?5?$DO?$DMimg?5src?$DN?$FO@ 100a5bc8     tzwebgl1.obj
 0003:00005bf0       ??_C@_0L@NBJB@?$DO?$DM?1a?$DO?$DM?1td?$DO?$AA@ 100a5bf0     tzwebgl1.obj
 0003:00005c00       ??_C@_0BI@KHEN@?$CI?5this?4id?5?$CJ?$FO?$DO?$DMimg?5src?$DN?$FO?$AA@ 100a5c00     tzwebgl1.obj
 0003:00005c1c       ??_C@_0CA@KAJN@?3?3?$DM?$CF?$DNstrEntityKey?$CF?$DO?$FO?5?$FOonclick?$DN?$FO?$AA@ 100a5c1c     tzwebgl1.obj
 0003:00005c44       ??_C@_0BE@BGBP@?$DO?$DMa?5href?$DN?$FO?$CD?$FO?5name?$DN?$FO?$AA@ 100a5c44     tzwebgl1.obj
 0003:00005c5c       ??_C@_06BHFK@?5alt?$DN?$FO?$AA@ 100a5c5c     tzwebgl1.obj
 0003:00005c64       ??_C@_0BG@IMEH@?5class?$DN?$FOEmail?$FO?$DO?$DM?$CF?$DNstr?$AA@ 100a5c64     tzwebgl1.obj
 0003:00005c80       ??_C@_07FONE@?$CF?$DO?$DM?1td?$DO?$AA@ 100a5c80     tzwebgl1.obj
 0003:00005c8c       ??_C@_07KIOO@?$DO?$DM?$CF?$DNstr?$AA@ 100a5c8c     tzwebgl1.obj
 0003:00005c98       ??_C@_06BIKD@?$DO?$DM?1td?$DO?$AA@ 100a5c98     tzwebgl1.obj
 0003:00005ca0       ??_C@_0BE@EFJD@ErrorColor?$CF?$DO?5name?$DN?$FO?$AA@ 100a5ca0     tzwebgl1.obj
 0003:00005cb8       ??_C@_09CLPH@?$CF?$DO?$FO?$DM?$CF?$DNstr?$AA@ 100a5cb8     tzwebgl1.obj
 0003:00005cc4       ??_C@_0BA@BGGA@?$FO?5value?$DN?$FO?$DM?$CF?$DNstr?$AA@ 100a5cc4     tzwebgl1.obj
 0003:00005cd8       ??_C@_0P@PIFH@?$DO?$DMinput?5size?$DN?$FO?$AA@ 100a5cd8     tzwebgl1.obj
 0003:00005cec       ??_C@_0CJ@FEMI@?3?3?$DM?$CF?$DNstrEntityKey?$CF?$DO?8?5?$CJ?0?5this?5?$CJ?$DL?$FO@ 100a5cec     tzwebgl1.obj
 0003:00005d20       ??_C@_0DL@NLIC@?5?5?5?5?5?5?5?5?5?5?5?5?5?5onclick?$DN?$FOscwShow?$CI?5@ 100a5d20     tzwebgl1.obj
 0003:00005d68       ??_C@_0EP@BMHF@?5?5?5?5?5?5?5?5?5?5?5?5?5?5?$DMimg?5src?$DN?$FOimages?1s@ 100a5d68     tzwebgl1.obj
 0003:00005dc8       ??_C@_06FHCK@?$CF?$DO?$FO?5?1?$DO?$AA@ 100a5dc8     tzwebgl1.obj
 0003:00005dd0       ??_C@_0P@OLC@?5value?$DN?$FO?$DM?$CF?$DNstr?$AA@ 100a5dd0     tzwebgl1.obj
 0003:00005de4       ??_C@_0BP@GBJM@style?$DN?$FOwidth?380px?$FO?5type?$DN?$FOtext?$FO?$AA@ 100a5de4     tzwebgl1.obj
 0003:00005e0c       ??_C@_0O@KOJG@?$DMinput?5name?$DN?$FO?$AA@ 100a5e0c     tzwebgl1.obj
 0003:00005e1c       ??_C@_08EFAG@?5?5?5?$DM?1td?$DO?$AA@ 100a5e1c     tzwebgl1.obj
 0003:00005e28       ??_C@_0EI@KDOC@?3?3?$DM?$CF?$DNstrEntityKey?$CF?$DO?$FO?5type?$DN?$FOhidde@ 100a5e28     tzwebgl1.obj
 0003:00005e80       ??_C@_0BL@EKIH@?4DropView?$CI?5strSessionId?5?$CJ?$DL?$AA@ 100a5e80     tzwebgl1.obj
 0003:00005ea0       ??_C@_0BA@BFFH@?$FO?0?53?5?$CJ?$DL?5?1?1?5next?$AA@ 100a5ea0     tzwebgl1.obj
 0003:00005eb4       ??_C@_0BC@PNOB@?5?5?5?5?5?5?5?5?5nRC?5?$DN?5?5v?$AA@ 100a5eb4     tzwebgl1.obj
 0003:00005ecc       ??_C@_0BH@EMOD@?5?5?5?5?5?5?5?5?5ComboCount?$CL?$CL?$DL?$AA@ 100a5ecc     tzwebgl1.obj
 0003:00005ee8       ??_C@_0FB@DBOO@?5?5?5?5?5?5?5?5?5?5?5?5?$DMoption?5value?$DN?$FO?$DM?$CF?$DNst@ 100a5ee8     tzwebgl1.obj
 0003:00005f4c       ??_C@_0EE@OMIA@?5?5?5?5?5?5?5?5?5?5?5?5strComboSelectedValu@ 100a5f4c     tzwebgl1.obj
 0003:00005fa0       ??_C@_0GF@BBFH@?5?5?5?5?5?5?5?5?5?5?5?5?$DMoption?5selected?$DN?$FOse@ 100a5fa0     tzwebgl1.obj
 0003:0000601c       ??_C@_0EA@OBBB@?5?5?5?5?5?5?5?5?5if?5?$CI?5strComboCurrentVal@ 100a601c     tzwebgl1.obj
 0003:00006068       ??_C@_0BO@NACP@?5?5?5?5?5?5?5?5?5strErrorMapValue?5?$DN?5v?$AA@ 100a6068     tzwebgl1.obj
 0003:0000608c       ??_C@_0O@FGIC@?5?5?5?5?5?5nRC?5?$DN?5v?$AA@ 100a608c     tzwebgl1.obj
 0003:0000609c       ??_C@_0CE@BFLJ@?5?5?5?5?5?5?5?5?5?$DMoption?5value?$DN?$FO?$FO?$DO?$DM?1opti@ 100a609c     tzwebgl1.obj
 0003:000060c8       ??_C@_0DI@LFJJ@?5?5?5?5?5?5?5?5?5?$DMoption?5selected?$DN?$FOselec@ 100a60c8     tzwebgl1.obj
 0003:0000610c       ??_C@_0CK@PGHO@?5?5?5?5?5?5if?5?$CI?5strComboCurrentValue?5@ 100a610c     tzwebgl1.obj
 0003:00006140       ??_C@_0BE@GJFG@?5?5?5?5?5?5ComboCount?$CL?$CL?$DL?$AA@ 100a6140     tzwebgl1.obj
 0003:00006158       ??_C@_0CP@CGKK@?5?5?5?5?5?5?1?1?5For?5Auto?5Include?0?5proce@ 100a6158     tzwebgl1.obj
 0003:00006190       ??_C@_0CD@OPJF@?5?5?5?5?5?5strComboSelectedValue?5?$DN?5?$FO0@ 100a6190     tzwebgl1.obj
 0003:000061bc       ??_C@_0BG@BJMO@?5?5?5?5?5?5ComboCount?5?$DN?50?$DL?$AA@ 100a61bc     tzwebgl1.obj
 0003:000061d8       ??_C@_07POPN@?5?5?5?5?5?5v?$AA@ 100a61d8     tzwebgl1.obj
 0003:000061e4       ??_C@_0CB@IAE@?5?5?5?5?5?5strComboCurrentValue?5?$DN?5?$FO?$FO?$DL@ 100a61e4     tzwebgl1.obj
 0003:0000620c       ??_C@_0BF@BCGK@?5?5?5?5?5?5zeidon?4zView?5v?$AA@ 100a620c     tzwebgl1.obj
 0003:00006228       ??_C@_0CE@NAAJ@?5?5?5?5?5?5?5?5?5strComboCurrentValue?5?$DN?5@ 100a6228     tzwebgl1.obj
 0003:00006254       ??_C@_0EH@PNB@?3?3?$DM?$CF?$DNstrEntityKey?$CF?$DO?$FO?5type?$DN?$FOhidde@ 100a6254     tzwebgl1.obj
 0003:000062ac       ??_C@_0BL@KMB@?3?3?$DM?$CF?$DNstrEntityKey?$CF?$DO?$FO?5id?$DN?$FOh?$AA@ 100a62ac     tzwebgl1.obj
 0003:000062cc       ??_C@_0P@IODG@?$DMinput?5name?$DN?$FOh?$AA@ 100a62cc     tzwebgl1.obj
 0003:000062e0       ??_C@_0N@MAAK@?5?5?5?$DM?1select?$DO?$AA@ 100a62e0     tzwebgl1.obj
 0003:000062f0       ??_C@_0BN@KGAF@?5?5?5?5?5?5?$HN?5?1?1if?5?$CI?5nRowCnt?5?$DO?50?5?$CJ?$AA@ 100a62f0     tzwebgl1.obj
 0003:00006314       ??_C@_0FK@EMDI@?5?5?5?5?5?5?5?5?5?5?5?5?5?5?5?5?5?5?5?5?5?$DMoption?5val@ 100a6314     tzwebgl1.obj
 0003:00006380       ??_C@_0BH@CEFD@?5?5?5?5?5?5?5?5?5?5?5?5?5?5?5?5?5?5else?$AA@ 100a6380     tzwebgl1.obj
 0003:0000639c       ??_C@_0BE@LOAH@?5?5?5?5?5?5?5?5?5?5?5?5?5?5?5?5?5?5?$HN?$AA@ 100a639c     tzwebgl1.obj
 0003:000063b4       ??_C@_0GO@HFAJ@?5?5?5?5?5?5?5?5?5?5?5?5?5?5?5?5?5?5?5?5?5?$DMoption?5sel@ 100a63b4     tzwebgl1.obj
 0003:00006438       ??_C@_0BE@EBHF@?5?5?5?5?5?5?5?5?5?5?5?5?5?5?5?5?5?5?$HL?$AA@ 100a6438     tzwebgl1.obj
 0003:00006450       ??_C@_0EJ@GLH@?5?5?5?5?5?5?5?5?5?5?5?5?5?5?5?5?5?5if?5?$CI?5strComboC@ 100a6450     tzwebgl1.obj
 0003:000064a8       ??_C@_0DG@BJPL@?5?5?5?5?5?5?5?5?5?5?5?5?5?5?5if?5?$CI?5strErrorMapV@ 100a64a8     tzwebgl1.obj
 0003:000064e8       ??_C@_0EH@JNFN@?5?5?5?5?5?5?5?5?5?5?5?5?5?5?5strErrorMapValue?5@ 100a64e8     tzwebgl1.obj
 0003:00006540       ??_C@_0DB@MCPH@?5?5?5?5?5?5?5?5?5?5?5?5for?5?$CI?5k?5?$DN?5nFirst?$DL?5k?5@ 100a6540     tzwebgl1.obj
 0003:0000657c       ??_C@_0BI@LPLM@?5?5?5?5?5?5?5?5?5?5?5?5nFirst?5?$DN?50?$DL?$AA@ 100a657c     tzwebgl1.obj
 0003:00006598       ??_C@_0CN@HCIA@?5?5?5?5?5?5?5?5?5?5?5?5?5?5?5?5?5?5?$DMoption?5value?$DN@ 100a6598     tzwebgl1.obj
 0003:000065d0       ??_C@_0EB@IBJ@?5?5?5?5?5?5?5?5?5?5?5?5?5?5?5?5?5?5?$DMoption?5select@ 100a65d0     tzwebgl1.obj
 0003:00006620       ??_C@_0DB@ELNL@?5?5?5?5?5?5?5?5?5?5?5?5?5?5?5if?5?$CI?5strComboCurr@ 100a6620     tzwebgl1.obj
 0003:0000665c       ??_C@_0DE@KJLJ@?5?5?5?5?5?5?5?5?5?5?5?5if?5?$CI?5ComboVector?4ele@ 100a665c     tzwebgl1.obj
 0003:0000669c       ??_C@_0FH@KDCD@?5?5?5?5?5?5?5?5?5?5?5?5?1?1?5Code?5for?5NOT?5requ@ 100a669c     tzwebgl1.obj
 0003:00006704       ??_C@_0EB@NOLL@?5?5?5?5?5?5?5?5?5?5?5?5nFirst?5?$DN?5?$CIComboVecto@ 100a6704     tzwebgl1.obj
 0003:00006754       ??_C@_0EP@CKDO@?5?5?5?5?5?5?5?5?5?5?5?5?1?1?5Code?5for?5required@ 100a6754     tzwebgl1.obj
 0003:000067b4       ??_C@_07OEIH@NotNull?$AA@  100a67b4     tzwebgl1.obj
 0003:000067c0       ??_C@_0BN@BBHB@?5?5?5?5?5?5?5?5?5if?5?$CI?5nRowCnt?5?$DO?50?5?$CJ?5?$AA@ 100a67c0     tzwebgl1.obj
 0003:000067e4       ??_C@_0BF@CLKB@?5?5?5?5?5?5?5?5?5int?5nFirst?$DL?$AA@ 100a67e4     tzwebgl1.obj
 0003:00006800       ??_C@_0BA@MAI@?5?5?5?5?5?5?5?5?5int?5k?$DL?$AA@ 100a6800     tzwebgl1.obj
 0003:00006814       ??_C@_0CO@CKLH@?5?5?5?5?5?5?5?5?5nRowCnt?5?$DN?5?$CIint?$CJ?5ComboVe@ 100a6814     tzwebgl1.obj
 0003:0000684c       ??_C@_0CL@PAMC@?4GetTableListForAttribute?$CI?5strSe@ 100a684c     tzwebgl1.obj
 0003:00006880       ??_C@_0BI@KLAM@?5?5?5?5?5?5?5?5?5ComboVector?5?$DN?5?$AA@ 100a6880     tzwebgl1.obj
 0003:0000689c       ??_C@_0CE@LBIF@?5?5?5?5?5?5?5?5?5?5?5?5strComboCurrentValue@ 100a689c     tzwebgl1.obj
 0003:000068c8       ??_C@_0BN@OLJD@?5?5?5?5?5?5?5?5?5Vector?5ComboVector?$DL?$AA@ 100a68c8     tzwebgl1.obj
 0003:000068ec       ??_C@_0BM@DKLN@?5?5?5?5?5?5?5?5?5int?5?5?5?5nRowCnt?$DN?50?$DL?$AA@ 100a68ec     tzwebgl1.obj
 0003:00006910       ??_C@_0P@JIDH@?5?5?5?5?5?5nRC?5?$DN?51?$DL?$AA@ 100a6910     tzwebgl1.obj
 0003:00006924       ??_C@_0BA@IFIL@?$DMselect?5class?$DN?$FO?$AA@ 100a6924     tzwebgl1.obj
 0003:00006938       ??_C@_0CL@HJIM@?3?3?$DM?$CF?$DNstrEntityKey?$CF?$DO?0?5?$DM?$CF?$DNstrEntit@ 100a6938     tzwebgl1.obj
 0003:0000696c       ??_C@_0BF@KBEN@?3?3?$DM?$CF?$DNstrEntityKey?$CF?$DO?0?$AA@ 100a696c     tzwebgl1.obj
 0003:00006988       ??_C@_03KEKK@?$CI?5h?$AA@  100a6988     tzwebgl1.obj
 0003:0000698c       ??_C@_02OBNF@?$DN?$FO?$AA@ 100a698c     tzwebgl1.obj
 0003:00006990       ??_C@_0BO@DIDD@?3?3?$DM?$CF?$DNstrEntityKey?$CF?$DO?$FO?5size?$DN?$FO1?$FO?$AA@ 100a6990     tzwebgl1.obj
 0003:000069b4       ??_C@_0P@KMEL@?$DMselect?5name?$DN?$FO?$AA@ 100a69b4     tzwebgl1.obj
 0003:000069c8       ??_C@_06KMLE@onblur?$AA@   100a69c8     tzwebgl1.obj
 0003:000069d0       ??_C@_08LEJO@onchange?$AA@ 100a69d0     tzwebgl1.obj
 0003:000069dc       ??_C@_0P@OMHK@?$DM?1button?$DO?$DM?1td?$DO?$AA@ 100a69dc     tzwebgl1.obj
 0003:000069f0       ??_C@_0BG@OEEK@?3?3?$DM?$CF?$DNstrEntityKey?$CF?$DO?$FO?5?$AA@ 100a69f0     tzwebgl1.obj
 0003:00006a0c       ??_C@_0BC@HLON@?$CI?5this?4id?5?$CJ?$FO?5id?$DN?$FO?$AA@ 100a6a0c     tzwebgl1.obj
 0003:00006a24       ??_C@_0CC@LADL@name?$DN?$DM?$CF?$DNstrButtonName?$CF?$DO?5onclick?$DN@ 100a6a24     tzwebgl1.obj
 0003:00006a4c       ??_C@_0BI@FKFP@?$DO?$DMbutton?5type?$DN?$FObutton?$FO?5?$AA@ 100a6a4c     tzwebgl1.obj
 0003:00006a68       ??_C@_05NLKL@px?$DL?$FO?5?$AA@ 100a6a68     tzwebgl1.obj
 0003:00006a70       ??_C@_08LOAM@?5class?$DN?$FO?$AA@ 100a6a70     tzwebgl1.obj
 0003:00006a7c       ??_C@_0P@MMBD@?5style?$DN?$FOwidth?3?$AA@ 100a6a7c     tzwebgl1.obj
 0003:00006a90       ??_C@_0N@JKKA@EmailAddress?$AA@ 100a6a90     tzwebgl1.obj
 0003:00006aa0       ??_C@_09GEAF@Multiline?$AA@ 100a6aa0     tzwebgl1.obj
 0003:00006aac       ??_C@_0BG@OGPA@?3?3?$DM?$CF?$DNstrEntityKey?$CF?$DO?$FO?$DO?$AA@ 100a6aac     tzwebgl1.obj
 0003:00006ac8       ??_C@_0BK@FJDD@?3?3?$DM?$CF?$DNstrEntityKey?$CF?$DO?$FO?5id?$DN?$FO?$AA@ 100a6ac8     tzwebgl1.obj
 0003:00006ae8       ??_C@_04FFGC@?$CF?$DO?$FO?5?$AA@ 100a6ae8     tzwebgl1.obj
 0003:00006af0       ??_C@_0CD@DOMP@?$DMinput?5type?$DN?$FOhidden?$FO?5value?$DN?$FO?$DM?$CF?$DNs@ 100a6af0     tzwebgl1.obj
 0003:00006b1c       ??_C@_0L@LCM@?$DMtd?5nowrap?$AA@ 100a6b1c     tzwebgl1.obj
 0003:00006b2c       ??_C@_07FJGM@WebWrap?$AA@  100a6b2c     tzwebgl1.obj
 0003:00006b38       ??_C@_03KJNI@?$DMtd?$AA@   100a6b38     tzwebgl1.obj
 0003:00006b3c       ??_C@_04ELEI@WRAP?$AA@     100a6b3c     tzwebgl1.obj
 0003:00006b44       ??_C@_0BA@DBFC@?$DMtr?$DM?$CF?$DNstrOdd?$CF?$DO?$DO?$AA@ 100a6b44     tzwebgl1.obj
 0003:00006b58       ??_C@_04NJHL@_URL?$AA@     100a6b58     tzwebgl1.obj
 0003:00006b60       ??_C@_0M@KOBE@?5?$DN?5?$FO?$CGnbsp?$FO?$DL?$AA@ 100a6b60     tzwebgl1.obj
 0003:00006b70       ??_C@_0CN@KANO@?5?5?5?5?5?5?5?5?5strTblOutput?5?$DN?5strTblOu@ 100a6b70     tzwebgl1.obj
 0003:00006ba8       ??_C@_0CG@KCEC@Value?5?$CL?5?$FO?8?5value?$DN?8Y?8?5type?$DN?8check@ 100a6ba8     tzwebgl1.obj
 0003:00006bd8       ??_C@_04BKPM@?$DO?5?$FO?$DL?$AA@ 100a6bd8     tzwebgl1.obj
 0003:00006be0       ??_C@_0CP@KMJL@Value?5?$CL?5?$FO?8?5value?$DN?8Y?8?5type?$DN?8check@ 100a6be0     tzwebgl1.obj
 0003:00006c18       ??_C@_0BE@MAEL@Value?5?$CL?5?$FO?8?5id?$DN?8?$FO?5?$CL?5?$AA@ 100a6c18     tzwebgl1.obj
 0003:00006c30       ??_C@_0BG@NONO@?5?$DN?5?$FO?$DMinput?5name?$DN?8?$FO?5?$CL?5?$AA@ 100a6c30     tzwebgl1.obj
 0003:00006c4c       ??_C@_0N@PLJG@?$CI?5this?4id?5?$CJ?8?$AA@ 100a6c4c     tzwebgl1.obj
 0003:00006c5c       ??_C@_0L@HPGP@?5onclick?$DN?8?$AA@ 100a6c5c     tzwebgl1.obj
 0003:00006c6c       ??_C@_09JNAK@Value?5?$DN?5?$FO?$AA@ 100a6c6c     tzwebgl1.obj
 0003:00006c78       ??_C@_02OGOH@?8?5?$AA@     100a6c78     tzwebgl1.obj
 0003:00006c7c       ??_C@_08JHBG@?5title?$DN?8?$AA@ 100a6c7c     tzwebgl1.obj
 0003:00006c88       ??_C@_0BC@PLDE@?4length?$CI?5?$CJ?5?$DN?$DN?50?5?$CJ?$AA@ 100a6c88     tzwebgl1.obj
 0003:00006ca0       ??_C@_08OMIA@?5?$CL?5?$FO?2t?$FO?$DL?$AA@ 100a6ca0     tzwebgl1.obj
 0003:00006cac       ??_C@_0CI@BKGC@?5?5?5?5?5?5?5?5?5strTblOutput?5?$DN?5strTblOu@ 100a6cac     tzwebgl1.obj
 0003:00006cdc       ??_C@_0L@NJPB@?4equals?$CI?5?$FO?$AA@ 100a6cdc     tzwebgl1.obj
 0003:00006cec       ??_C@_0P@OEPO@?5?5?5?5?5?5?5?5?5if?5?$CI?5?$AA@ 100a6cec     tzwebgl1.obj
 0003:00006d00       ??_C@_0BC@OMBJ@?5?5?5?5?5?5?5?5?5?5?5?5else?5?$AA@ 100a6d00     tzwebgl1.obj
 0003:00006d18       ??_C@_05DJ@LV?5?$DN?5?$AA@ 100a6d18     tzwebgl1.obj
 0003:00006d20       ??_C@_03PJOL@?$CJ?5?$CJ?$AA@ 100a6d20     tzwebgl1.obj
 0003:00006d24       ??_C@_02LGJJ@LV?$AA@       100a6d24     tzwebgl1.obj
 0003:00006d28       ??_C@_08MHBG@?4equals?$CI?$AA@ 100a6d28     tzwebgl1.obj
 0003:00006d34       ??_C@_0BC@MJI@?5?5?5?5?5?5?5?5?5?5?5?5if?5?$CI?5?$AA@ 100a6d34     tzwebgl1.obj
 0003:00006d4c       ??_C@_0EE@EKPG@?5?5?5?5?5?5?5?5?5?5?5?5?1?1?5Only?5show?5the?5fir@ 100a6d4c     tzwebgl1.obj
 0003:00006da0       ??_C@_0BD@BGFC@?$FO?0?5strDateFormat?0?5?$AA@ 100a6da0     tzwebgl1.obj
 0003:00006db8       ??_C@_03FGJK@?5?$DN?5?$AA@ 100a6db8     tzwebgl1.obj
 0003:00006dbc       ??_C@_0BF@EJG@?5?$DN?5strErrorMapValue?$DL?$AA@ 100a6dbc     tzwebgl1.obj
 0003:00006dd8       ??_C@_0CE@BKIK@ErrorColor?5?$DN?5?$FO?5style?$DN?8color?3?5red@ 100a6dd8     tzwebgl1.obj
 0003:00006e04       ??_C@_0DC@FFJL@?5?5?5?5?5?5?5?5?5?5?5?5if?5?$CI?5strErrorMapValu@ 100a6e04     tzwebgl1.obj
 0003:00006e40       ??_C@_0FO@OLAA@?5?5?5?5?5?5?5?5?5?5?5?5strErrorMapValue?5?$DN?5v@ 100a6e40     tzwebgl1.obj
 0003:00006eb0       ??_C@_0BB@BFCG@ErrorColor?5?$DN?5?$FO?$FO?$DL?$AA@ 100a6eb0     tzwebgl1.obj
 0003:00006ec4       ??_C@_06LDBH@?5?$DN?5?$FO?$FO?$DL?$AA@ 100a6ec4     tzwebgl1.obj
 0003:00006ecc       ??_C@_03FEKE@str?$AA@      100a6ecc     tzwebgl1.obj
 0003:00006ed0       ??_C@_0P@GJOJ@Displayed?5Text?$AA@ 100a6ed0     tzwebgl1.obj
 0003:00006ee4       ??_C@_0P@FGKD@?5align?$DN?$FOright?$FO?$AA@ 100a6ee4     tzwebgl1.obj
 0003:00006ef8       ??_C@_0BA@MBEE@?5align?$DN?$FOcenter?$FO?$AA@ 100a6ef8     tzwebgl1.obj
 0003:00006f0c       ??_C@_0DI@LBBD@?5?5?5?5?5?5?5?5?5strButtonName?5?$DN?5?$FOSelect@ 100a6f0c     tzwebgl1.obj
 0003:00006f50       ??_C@_0EB@DNJM@?5?5?5?5?5?5?5?5?5strOdd?5?$DN?5?$CIiTableRowCnt?5@ 100a6f50     tzwebgl1.obj
 0003:00006fa0       ??_C@_0CJ@KLDJ@?5?5?5?5?5?5?5?5?5if?5?$CI?5strFilter?4length?$CI?5@ 100a6fa0     tzwebgl1.obj
 0003:00006fd4       ??_C@_0FC@PMFE@?5?5?5?5?5?5?5?5?5?1?1?5If?5the?5attribute?5wHi@ 100a6fd4     tzwebgl1.obj
 0003:00007038       ??_C@_0BN@KNKF@?$FO?0?5?$FOwHideTableRow?$FO?0?5?$FO?$FO?0?51?5?$CJ?$DL?$AA@ 100a7038     tzwebgl1.obj
 0003:0000705c       ??_C@_0BG@JLAM@?5?5?5?5?5?5?5?5?5strFilter?5?$DN?5?$AA@ 100a705c     tzwebgl1.obj
 0003:00007078       ??_C@_0CD@GPFO@?4SetCursorScopeOI?$CI?5strSessionId?0@ 100a7078     tzwebgl1.obj
 0003:000070a4       ??_C@_0O@ICKL@?5?5?5?5?5?5nRC2?5?$DN?5?$AA@ 100a70a4     tzwebgl1.obj
 0003:000070b4       ??_C@_0CE@OPOD@?4CreateViewFromView?$CI?5strSessionI@ 100a70b4     tzwebgl1.obj
 0003:000070e0       ??_C@_01KBCC@v?$AA@        100a70e0     tzwebgl1.obj
 0003:000070e4       ??_C@_05MOEI@_URL?$DL?$AA@ 100a70e4     tzwebgl1.obj
 0003:000070ec       ??_C@_0O@FCJA@Hyperlink?5URL?$AA@ 100a70ec     tzwebgl1.obj
 0003:000070fc       ??_C@_0CI@DKOL@LV?5?$DN?5?$FO?$FO?$DL?5?5?1?1?5Last?5value?5of?5this?5@ 100a70fc     tzwebgl1.obj
 0003:0000712c       ??_C@_0BG@KANC@First?5Occurrence?5Only?$AA@ 100a712c     tzwebgl1.obj
 0003:00007148       ??_C@_0M@HNKJ@ErrorColor?$DL?$AA@ 100a7148     tzwebgl1.obj
 0003:00007158       ??_C@_06DMDA@Value?$DL?$AA@ 100a7158     tzwebgl1.obj
 0003:00007160       ??_C@_01FAJB@?$DL?$AA@     100a7160     tzwebgl1.obj
 0003:00007164       ??_C@_0BB@GDDC@?5?5?5?5?5?5String?5str?$AA@ 100a7164     tzwebgl1.obj
 0003:00007178       ??_C@_0BI@OKIK@?5?5?5?5?5?5String?5strFilter?$DL?$AA@ 100a7178     tzwebgl1.obj
 0003:00007194       ??_C@_0BF@HKIM@?5?5?5?5?5?5String?5strOdd?$DL?$AA@ 100a7194     tzwebgl1.obj
 0003:000071b0       ??_C@_0BM@PGJ@?5?5?5?5?5?5String?5strButtonName?$DL?$AA@ 100a71b0     tzwebgl1.obj
 0003:000071d4       ??_C@_0BL@GKBA@?5?5?5?5?5?5String?5strEntityKey?$DL?$AA@ 100a71d4     tzwebgl1.obj
 0003:000071f4       ??_C@_0BJ@GMIL@?5?5?5?5?5?5int?5?5?5?5lEntityKey?$DL?$AA@ 100a71f4     tzwebgl1.obj
 0003:00007214       ??_C@_0BF@GIJI@?5?5?5iTableRowCnt?5?$DN?50?$DL?$AA@ 100a7214     tzwebgl1.obj
 0003:00007230       ??_C@_0BA@CMOC@?$DMtbody?5height?$DN?$FO?$AA@ 100a7230     tzwebgl1.obj
 0003:00007244       ??_C@_0O@DEAB@?$DM?1tr?$DO?$DM?1thead?$DO?$AA@ 100a7244     tzwebgl1.obj
 0003:00007254       ??_C@_05CFDF@?5?5?5?$CF?$DO?$AA@ 100a7254     tzwebgl1.obj
 0003:0000725c       ??_C@_0CJ@PCKJ@?5?5?5strTblOutput?5?$DN?5strTblOutput?5?$CL@ 100a725c     tzwebgl1.obj
 0003:00007290       ??_C@_05OOBD@?5?5?5?$DM?$CF?$AA@ 100a7290     tzwebgl1.obj
 0003:00007298       ??_C@_0CH@IGND@?5?5?5strTblOutput?5?$DN?5strTblOutput?5?$CL@ 100a7298     tzwebgl1.obj
 0003:000072c8       ??_C@_09MFPI@?$FO?5?$CL?5?$FO?2t?$FO?$DL?$AA@ 100a72c8     tzwebgl1.obj
 0003:000072d4       ??_C@_0CJ@GDGA@?5?5?5?5?5?5?5?5?5strTblOutput?5?$DN?5strTblOu@ 100a72d4     tzwebgl1.obj
 0003:00007308       ??_C@_05MJJK@?$DM?1th?$DO?$AA@ 100a7308     tzwebgl1.obj
 0003:00007310       ??_C@_04ICHH@?8?$CJ?$FO?$DO?$AA@ 100a7310     tzwebgl1.obj
 0003:00007318       ??_C@_0DG@LFND@?$DMinput?5type?$DN?$FOcheckbox?$FO?5onclick?$DN?$FO@ 100a7318     tzwebgl1.obj
 0003:00007358       ??_C@_0BF@CKNB@?5class?$DN?$FOgridheading?$FO?$AA@ 100a7358     tzwebgl1.obj
 0003:00007374       ??_C@_06ENNA@?5?5?5?$DMth?$AA@ 100a7374     tzwebgl1.obj
 0003:0000737c       ??_C@_0BH@MPIH@?$FO?5class?$DN?$FOgridheading?$FO?$DO?$AA@ 100a737c     tzwebgl1.obj
 0003:00007398       ??_C@_0BM@FECN@?5?5?5?$DMth?5class?$DN?$FOgridheading?$FO?$DO?$AA@ 100a7398     tzwebgl1.obj
 0003:000073bc       ??_C@_0DN@IPFE@?5?5?5?5?5?5strTblOutput?5?$DN?5strTblOutpu@ 100a73bc     tzwebgl1.obj
 0003:00007408       ??_C@_0BN@PBCB@?$FO?$DO?$DM?$CF?$DNstrErrorMapValue?$CF?$DO?$DM?1th?$DO?$AA@ 100a7408     tzwebgl1.obj
 0003:0000742c       ??_C@_0P@HEAF@?5?5?5?$DMth?5style?$DN?$FO?$AA@ 100a742c     tzwebgl1.obj
 0003:00007440       ??_C@_0CC@KKHD@?5?5?5?$DMth?$DO?$DM?$CF?$DNstrErrorMapValue?$CF?$DO?$DM?1th@ 100a7440     tzwebgl1.obj
 0003:00007468       ??_C@_0CJ@FKE@?5?5?5if?5?$CI?5strErrorMapValue?4length?$CI@ 100a7468     tzwebgl1.obj
 0003:0000749c       ??_C@_0BO@EOAA@?5?5?5?5?5?5?5strErrorMapValue?5?$DN?5?$FO?$FO?$DL?$AA@ 100a749c     tzwebgl1.obj
 0003:000074c0       ??_C@_08OPMP@?5?5?5?5else?$AA@ 100a74c0     tzwebgl1.obj
 0003:000074cc       ??_C@_0CB@JONP@?5?5?5?5?5?5?5?5?5?5strErrorMapValue?5?$DN?5?$FO?$FO?$DL@ 100a74cc     tzwebgl1.obj
 0003:000074f4       ??_C@_0M@PHL@?5?5?5?5?5?5?5else?$AA@ 100a74f4     tzwebgl1.obj
 0003:00007504       ??_C@_0BO@CDON@?5?5?5?5?5?5?5?5?5strErrorMapValue?5?$DN?5?5?$AA@ 100a7504     tzwebgl1.obj
 0003:00007528       ??_C@_0O@KFEA@?5?5?5?5?5?5nRC?5?$DN?5?5?$AA@ 100a7528     tzwebgl1.obj
 0003:00007538       ??_C@_0BD@JEHI@?5?5?5if?5?$CI?5nRC?5?$DO?$DN?50?5?$CJ?$AA@ 100a7538     tzwebgl1.obj
 0003:00007550       ??_C@_0BA@ELOG@Variable?5Header?$AA@ 100a7550     tzwebgl1.obj
 0003:00007564       ??_C@_09DNFE@PSDLG_X?5A?$AA@ 100a7564     tzwebgl1.obj
 0003:00007570       ??_C@_0BK@OPPE@?$DMthead?5bgcolor?$DNgreen?$DO?$DMtr?$DO?$AA@ 100a7570     tzwebgl1.obj
 0003:00007590       ??_C@_0M@PBHE@?$DMthead?$DO?$DMtr?$DO?$AA@ 100a7590     tzwebgl1.obj
 0003:000075a0       ??_C@_09HKC@?$FO?5?5name?$DN?$FO?$AA@ 100a75a0     tzwebgl1.obj
 0003:000075ac       ??_C@_0CD@OIIL@?5style?$DN?$FOposition?3relative?$FO?5?5name@ 100a75ac     tzwebgl1.obj
 0003:000075d8       ??_C@_07ECKF@?$DMtable?5?$AA@ 100a75d8     tzwebgl1.obj
 0003:000075e4       ??_C@_03MHNN@?5?5?$DO?$AA@ 100a75e4     tzwebgl1.obj
 0003:000075e8       ??_C@_0BB@IMEC@?$FO?5cellspacing?$DN0?5?$AA@ 100a75e8     tzwebgl1.obj
 0003:000075fc       ??_C@_0O@NJBH@?$DMtable?5name?$DN?$FO?$AA@ 100a75fc     tzwebgl1.obj
 0003:0000760c       ??_C@_08OLDI@?5style?$DN?$FO?$AA@ 100a760c     tzwebgl1.obj
 0003:00007618       ??_C@_0CB@ECLG@?5style?$DN?$FOposition?3relative?$DLwidth?3@ 100a7618     tzwebgl1.obj
 0003:00007640       ??_C@_0M@PDP@RelativePos?$AA@ 100a7640     tzwebgl1.obj
 0003:00007650       ??_C@_07FGOM@height?3?$AA@ 100a7650     tzwebgl1.obj
 0003:0000765c       ??_C@_0BK@MBAJ@?$DMdiv?5class?$DN?$FOtableScroll?$FO?5?$AA@ 100a765c     tzwebgl1.obj
 0003:0000767c       ??_C@_0BA@LPGO@Scrolling?5Table?$AA@ 100a767c     tzwebgl1.obj
 0003:00007690       ??_C@_0FM@HMPI@?$DMdiv?5style?$DN?$FOfloat?3left?$FO?$DO?5?5?$DM?$CB?9?9?5D@ 100a7690     tzwebgl1.obj
 0003:00007700       ??_C@_0BF@MBLD@WebNoGridDataMessage?$AA@ 100a7700     tzwebgl1.obj
 0003:0000771c       ??_C@_0CA@KAKA@Filter?5Rows?5?$CIwHideTableRow?$DN?8Y?8?$CJ?$AA@ 100a771c     tzwebgl1.obj
 0003:00007744       ??_C@_0P@IDAG@Absolute?5Width?$AA@ 100a7744     tzwebgl1.obj
 0003:00007758       ??_C@_0HN@MPDK@px?$DLheight?350px?$DLborder?3?82px?5solid@ 100a7758     tzwebgl1.obj
 0003:000077f0       ??_C@_07LBAE@?$FO?5id?$DN?$FOo?$AA@ 100a77f0     tzwebgl1.obj
 0003:000077fc       ??_C@_0BC@DPPI@?$DMtextarea?5name?$DN?$FOo?$AA@ 100a77fc     tzwebgl1.obj
 0003:00007814       ??_C@_0BP@OPKN@px?$DLheight?370px?$DLdisplay?3none?$DL?$FO?$DO?$AA@ 100a7814     tzwebgl1.obj
 0003:0000783c       ??_C@_0BA@NEMB@?$FO?5style?$DN?$FOwidth?3?$AA@ 100a783c     tzwebgl1.obj
 0003:00007850       ??_C@_08MCOL@?$FO?5id?$DN?$FOgb?$AA@ 100a7850     tzwebgl1.obj
 0003:0000785c       ??_C@_0O@GMOF@?$DMdiv?5name?$DN?$FOgb?$AA@ 100a785c     tzwebgl1.obj
 0003:0000786c       ??_C@_0CP@MFPO@?$FO?$DOClick?5here?5to?5display?5data?5for@ 100a786c     tzwebgl1.obj
 0003:000078a4       ??_C@_09BOE@?$FO?5id?$DN?$FOspn?$AA@ 100a78a4     tzwebgl1.obj
 0003:000078b0       ??_C@_0BA@HBBP@?$DMspan?5name?$DN?$FOspn?$AA@ 100a78b0     tzwebgl1.obj
 0003:000078c4       ??_C@_0EE@FFMM@ExportOnClick?$CI?5?$CJ?$FO?5style?$DN?$FOwidth?31@ 100a78c4     tzwebgl1.obj
 0003:00007918       ??_C@_09CHFJ@onclick?$DN?$FO?$AA@ 100a7918     tzwebgl1.obj
 0003:00007924       ??_C@_0L@FJIH@?$FO?5id?$DN?$FObtmp?$AA@ 100a7924     tzwebgl1.obj
 0003:00007934       ??_C@_0CO@MNKL@?$DMimg?5src?$DN?$FO?4?1images?1btn_expand?4gi@ 100a7934     tzwebgl1.obj
 0003:0000796c       ??_C@_0BK@CAOE@?$DMdiv?5class?$DN?$FOtableexport?$FO?$DO?$AA@ 100a796c     tzwebgl1.obj
 0003:0000798c       ??_C@_0BB@IOKL@class?$DN?$FOsortable?5?$AA@ 100a798c     tzwebgl1.obj
 0003:000079a0       ??_C@_0BC@ODJL@class?$DN?$FOsortable?$FO?5?$AA@ 100a79a0     tzwebgl1.obj
 0003:000079b8       ??_C@_06OJKO@?5cols?$DN?$AA@ 100a79b8     tzwebgl1.obj
 0003:000079c0       ??_C@_06OCEO@Hidden?$AA@   100a79c0     tzwebgl1.obj
 0003:000079c8       ??_C@_0DI@JONP@?$DMscript?5type?$DN?$FOtext?1javascript?$FO?$DOs@ 100a79c8     tzwebgl1.obj
 0003:00007a0c       ??_C@_0CA@EAMN@?$DM?1div?$DO?5?$DM?$CB?9?9?5End?5of?5Tab?5Control?5?$AA@ 100a7a0c     tzwebgl1.obj
 0003:00007a34       ??_C@_0BN@POLG@?$DM?1div?$DO?5?$DM?$CB?9?9?5End?5of?5Tab?5item?5?$AA@ 100a7a34     tzwebgl1.obj
 0003:00007a58       ??_C@_0CI@CJBO@?4addTabPage?$CI?5document?4getElement@ 100a7a58     tzwebgl1.obj
 0003:00007a88       ??_C@_05PHMM@?$CI?$CJ?$DL?$FO?$DO?$AA@ 100a7a88     tzwebgl1.obj
 0003:00007a90       ??_C@_0CA@FFOB@?$DMh2?5class?$DN?$FOtab?$FO?$DO?$DMspan?5onclick?$DN?$FO?$AA@ 100a7a90     tzwebgl1.obj
 0003:00007ab8       ??_C@_0N@EEJL@?$DM?1span?$DO?$DM?1h2?$DO?$AA@ 100a7ab8     tzwebgl1.obj
 0003:00007ac8       ??_C@_0BH@LKH@?$DMh2?5class?$DN?$FOtab?$FO?$DO?$DMspan?$DO?$AA@ 100a7ac8     tzwebgl1.obj
 0003:00007ae4       ??_C@_0BB@DNN@?$DO?5?$DM?$CB?9?9?5Tab?5item?5?$AA@ 100a7ae4     tzwebgl1.obj
 0003:00007af8       ??_C@_01ECJ@3?$AA@         100a7af8     tzwebgl1.obj
 0003:00007afc       ??_C@_01FBAH@1?$AA@        100a7afc     tzwebgl1.obj
 0003:00007b00       ??_C@_09IMBA@tab?9page?5?$AA@ 100a7b00     tzwebgl1.obj
 0003:00007b0c       ??_C@_06GGPP@Type?5A?$AA@  100a7b0c     tzwebgl1.obj
 0003:00007b14       ??_C@_0BA@FPCC@?$FO?5?$CJ?5?$CJ?$DL?$DM?1script?$DO?$AA@ 100a7b14     tzwebgl1.obj
 0003:00007b28       ??_C@_0DA@DOOF@?5?$DN?5new?5WebFXTabPane?$CI?5document?4ge@ 100a7b28     tzwebgl1.obj
 0003:00007b64       ??_C@_0CA@DMJK@?$DMscript?5type?$DN?$FOtext?1javascript?$FO?$DO?$AA@ 100a7b64     tzwebgl1.obj
 0003:00007b8c       ??_C@_04BODC@?5?9?9?$DO?$AA@ 100a7b8c     tzwebgl1.obj
 0003:00007b94       ??_C@_0CB@IONJ@?$DO?5?$DM?$CB?9?9?5Beginning?5of?5Tab?5Control?5@ 100a7b94     tzwebgl1.obj
 0003:00007bbc       ??_C@_09JHHE@?$FO?5class?$DN?$FO?$AA@ 100a7bbc     tzwebgl1.obj
 0003:00007bc8       ??_C@_09BFFP@?$DMdiv?5id?$DN?$FO?$AA@ 100a7bc8     tzwebgl1.obj
 0003:00007bd4       ??_C@_08FDCI@tab?9pane?$AA@ 100a7bd4     tzwebgl1.obj
 0003:00007be0       ??_C@_09EOLD@tab?9pane?5?$AA@ 100a7be0     tzwebgl1.obj
 0003:00007bec       ??_C@_0BK@DJOE@?$DM?$CB?9?9?5SURVEY?5GROUP?5END?5?9?9?$DO?$AA@ 100a7bec     tzwebgl1.obj
 0003:00007c0c       ??_C@_08EDLN@?$DM?1div?$DO?5?5?$AA@ 100a7c0c     tzwebgl1.obj
 0003:00007c18       ??_C@_0BI@KNGO@?$DMtd?$DO?$DM?$CF?$DNstrBtnTwo?$CF?$DO?$DM?1td?$DO?$AA@ 100a7c18     tzwebgl1.obj
 0003:00007c34       ??_C@_0BI@JKLM@?$DMtd?$DO?$DM?$CF?$DNstrBtnOne?$CF?$DO?$DM?1td?$DO?$AA@ 100a7c34     tzwebgl1.obj
 0003:00007c50       ??_C@_07EABP@?$DMtable?$DO?$AA@ 100a7c50     tzwebgl1.obj
 0003:00007c5c       ??_C@_0BM@MKDB@?$DMdiv?5class?$DN?$FOsurveybuttons?$FO?$DO?$AA@ 100a7c5c     tzwebgl1.obj
 0003:00007c80       ??_C@_0CE@DEBM@?$DM?1div?$DO?5?5?$DM?$CB?9?9?5end?5div?5for?5survey?5@ 100a7c80     tzwebgl1.obj
 0003:00007cac       ??_C@_0GH@DGAJ@?5?5?5?$DMinput?5name?$DN?$FOSurveyQuestionCo@ 100a7cac     tzwebgl1.obj
 0003:00007d28       ??_C@_0IM@NLJP@?5?5?5?5?5?5?5?5?5?5?5?5strBtnTwo?5?$DN?5?$FO?$DMbutton@ 100a7d28     tzwebgl1.obj
 0003:00007dd0       ??_C@_0ID@IGAA@?5?5?5?5?5?5?5?5?5?5?5?5strBtnOne?5?$DN?5?$FO?$DMbutton@ 100a7dd0     tzwebgl1.obj
 0003:00007e70       ??_C@_0DE@CDOO@?5?5?5?5?5?5?5?5?5?5?5?5if?5?$CI?5Integer?4parseIn@ 100a7e70     tzwebgl1.obj
 0003:00007eb0       ??_C@_0ID@JMLD@?5?5?5?5?5?5?5?5?5?5?5?5strBtnTwo?5?$DN?5?$FO?$DMbutton@ 100a7eb0     tzwebgl1.obj
 0003:00007f50       ??_C@_0FM@LMAD@?5?5?5?5?5?5?5?5?5?1?1?5in?5the?5dialog?5for?5th@ 100a7f50     tzwebgl1.obj
 0003:00007fc0       ??_C@_0FH@LODM@?5?5?5?5?5?5?5?5?5?1?1?5create?5the?5Done?5butt@ 100a7fc0     tzwebgl1.obj
 0003:00008028       ??_C@_0FH@EKNH@?5?5?5?5?5?5?5?5?5?1?1?5Create?5Next?5and?5Prev@ 100a8028     tzwebgl1.obj
 0003:00008090       ??_C@_0EN@LB@?5?5?5?5?5?5?5?5?5?1?1?5This?5is?5where?5we?5cre@ 100a8090     tzwebgl1.obj
 0003:000080ec       ??_C@_0BE@NLHC@SurveyQuestionGroup?$AA@ 100a80ec     tzwebgl1.obj
 0003:00008104       ??_C@_0FE@PJAA@?$DMdiv?5class?$DN?$FOsurveyquestionspacin@ 100a8104     tzwebgl1.obj
 0003:00008168       ??_C@_0CF@ONEO@?$DM?1div?$DO?5?5?$DM?$CB?9?9?5comment?5text?5answer@ 100a8168     tzwebgl1.obj
 0003:00008194       ??_C@_0LD@MFEE@?$DMtextarea?5name?$DN?$FO?$DM?$CF?$DNszCommentName@ 100a8194     tzwebgl1.obj
 0003:0000826c       ??_C@_0FL@PCPA@?4GetStringFromAttributeByContext@ 100a826c     tzwebgl1.obj
 0003:000082dc       ??_C@_0DK@CLDK@?5?5?5?5?5?5String?5szCommentName?5?$DN?5?$FOtx@ 100a82dc     tzwebgl1.obj
 0003:00008324       ??_C@_0BG@DHHG@?5?5?5?1?1?5MLEdit?3?5MLEdit1?$AA@ 100a8324     tzwebgl1.obj
 0003:00008340       ??_C@_0EG@IHKO@?$DMdiv?5class?$DN?$FOsurveyquestioncommen@ 100a8340     tzwebgl1.obj
 0003:00008394       ??_C@_0CA@NJJE@?$DM?1div?$DO?5?5?$DM?$CB?9?9?5End?5of?5comment?5?9?9?$DO?$AA@ 100a8394     tzwebgl1.obj
 0003:000083bc       ??_C@_0CA@NHCN@?$DMspan?$DO?$DM?$CF?$DNszCommentText?$CF?$DO?$DM?1span?$DO?$AA@ 100a83bc     tzwebgl1.obj
 0003:000083e4       ??_C@_0EC@GKGB@?$DMdiv?5class?$DN?$FOsurveyquestioncommen@ 100a83e4     tzwebgl1.obj
 0003:00008434       ??_C@_0EA@LJKB@?$DMdiv?5style?$DN?$FOheight?324px?$FO?$DO?$DM?1div?$DO?5@ 100a8434     tzwebgl1.obj
 0003:00008480       ??_C@_0CE@KOB@?5?5?5?5?5?5?5?5?5szCommentText?5?$DN?5?$FOCommen@ 100a8480     tzwebgl1.obj
 0003:000084ac       ??_C@_0CG@LKAB@?5?5?5?5?5?5if?5?$CI?5szCommentText?4equals?$CI@ 100a84ac     tzwebgl1.obj
 0003:000084dc       ??_C@_0GB@KGDD@?4GetStringFromAttributeByContext@ 100a84dc     tzwebgl1.obj
 0003:00008550       ??_C@_0BL@HMO@?5?5?5?5?5?5?5?5?5?5szCommentText?5?$DN?5?$AA@ 100a8550     tzwebgl1.obj
 0003:00008570       ??_C@_0CF@NOE@?5?5?5?5?5?5?5?5?5?5String?5szCommentText?5?$DN@ 100a8570     tzwebgl1.obj
 0003:0000859c       ??_C@_0CE@FHCD@?5?5?5if?5?$CI?5szCommentFlag?4equals?$CI?$FOY?$FO@ 100a859c     tzwebgl1.obj
 0003:000085c8       ??_C@_0CM@MLFL@?$DM?1div?$DO?5?5?$DM?$CB?9?9?5div?5around?5survey?5a@ 100a85c8     tzwebgl1.obj
 0003:000085fc       ??_C@_08DMAO@?$DM?1table?$DO?$AA@ 100a85fc     tzwebgl1.obj
 0003:00008608       ??_C@_08FDAJ@?$DM?1tbody?$DO?$AA@ 100a8608     tzwebgl1.obj
 0003:00008614       ??_C@_0DG@EAEM@?5?5?5?5?5?5nRC2?5?$DN?5vtblMultChoice?4Drop@ 100a8614     tzwebgl1.obj
 0003:00008654       ??_C@_0FN@CHMP@?5?5?5?5?5?5?5?5?5nRC2?5?$DN?5vtblMultChoice?4S@ 100a8654     tzwebgl1.obj
 0003:000086c4       ??_C@_05DLDC@?$DM?1tr?$DO?$AA@ 100a86c4     tzwebgl1.obj
 0003:000086cc       ??_C@_0CG@OGCL@?5?5?5?$DMtd?5nowrap?$DO?$DM?$CF?$DNstrAnswerText?$CF?$DO@ 100a86cc     tzwebgl1.obj
 0003:000086fc       ??_C@_0DJ@IKHB@?5?5?5?$DMtd?5style?$DN?$FOwidth?315px?$DL?$FO?5nowra@ 100a86fc     tzwebgl1.obj
 0003:00008740       ??_C@_04IGKF@?$DMtr?$DO?$AA@ 100a8740     tzwebgl1.obj
 0003:00008748       ??_C@_0KC@CHJD@?5?5?5?5?5?5?5?5?5?5?5?5strchkAnswer?5?$DN?5?$FO?$DMinp@ 100a8748     tzwebgl1.obj
 0003:0000880c       ??_C@_0KL@FBCA@?5?5?5?5?5?5?5?5?5?5?5?5strchkAnswer?5?$DN?5?$FO?$DMinp@ 100a880c     tzwebgl1.obj
 0003:000088dc       ??_C@_0DL@CDFI@?5?5?5?5?5?5?5?5?5if?5?$CI?5strchkAnswer?4equal@ 100a88dc     tzwebgl1.obj
 0003:00008924       ??_C@_0DN@IONF@?5?5?5?5?5?5?5?5?5strchkAnswerId?5?$DN?5?$FOchkAn@ 100a8924     tzwebgl1.obj
 0003:00008970       ??_C@_0EC@NABE@?5?5?5?5?5?5?5?5?5?5?5?5strchkAnswerName?5?$DN?5?$FO@ 100a8970     tzwebgl1.obj
 0003:000089c0       ??_C@_0DN@IPCE@?5?5?5?5?5?5?5?5?5?5?5?5strchkAnswerName?5?$DN?5?$FO@ 100a89c0     tzwebgl1.obj
 0003:00008a0c       ??_C@_0CM@PDAM@?5?5?5?5?5?5?5?5?5if?5?$CI?5szCheckType?4equals@ 100a8a0c     tzwebgl1.obj
 0003:00008a40       ??_C@_0IJ@FACI@?5?5?5?5?5?5?5?5?5strQuestionChoiceID?5?$DN?5v@ 100a8a40     tzwebgl1.obj
 0003:00008ae4       ??_C@_0IP@JENP@?5?5?5?5?5?5?5?5?5strchkAnswer?5?$DN?5vtblMult@ 100a8ae4     tzwebgl1.obj
 0003:00008b90       ??_C@_0IL@MGCJ@?5?5?5?5?5?5?5?5?5strAnswerText?5?$DN?5vtblMul@ 100a8b90     tzwebgl1.obj
 0003:00008c38       ??_C@_0BM@OAMD@?5?5?5?5?5?5?5?5?5strchkAnswer?5?$DN?5?$FO?$FO?$DL?$AA@ 100a8c38     tzwebgl1.obj
 0003:00008c5c       ??_C@_0BK@KPKK@?5?5?5?5?5?5while?5?$CI?5nRC2?5?$DO?$DN?50?5?$CJ?$AA@ 100a8c5c     tzwebgl1.obj
 0003:00008c7c       ??_C@_0FL@LCEF@?5?5?5?5?5?5nRC2?5?$DN?5vtblMultChoice?4SetC@ 100a8c7c     tzwebgl1.obj
 0003:00008cec       ??_C@_0DI@BEIG@?5?5?5?5?5?5vtblMultChoice?4CreateViewF@ 100a8cec     tzwebgl1.obj
 0003:00008d30       ??_C@_0EG@BLCL@?5?5?5?5?5?5zeidon?4zView?5vtblMultChoic@ 100a8d30     tzwebgl1.obj
 0003:00008d84       ??_C@_0CH@ODCB@?5?5?5?5?5?5String?5strQuestionChoiceID@ 100a8d84     tzwebgl1.obj
 0003:00008db4       ??_C@_0CB@BFEL@?5?5?5?5?5?5String?5strAnswerText?5?$DN?5?$FO?$FO?$DL@ 100a8db4     tzwebgl1.obj
 0003:00008ddc       ??_C@_0CC@MKEF@?5?5?5?5?5?5String?5strchkAnswerId?5?$DN?5?$FO?$FO@ 100a8ddc     tzwebgl1.obj
 0003:00008e04       ??_C@_0CE@NMLC@?5?5?5?5?5?5String?5strchkAnswerName?5?$DN?5@ 100a8e04     tzwebgl1.obj
 0003:00008e30       ??_C@_0CA@HPCA@?5?5?5?5?5?5String?5strchkAnswer?5?$DN?5?$FO?$FO?$DL?$AA@ 100a8e30     tzwebgl1.obj
 0003:00008e58       ??_C@_0BF@ELHI@?5?5?5?5?5?5String?5strTag?$DL?$AA@ 100a8e58     tzwebgl1.obj
 0003:00008e74       ??_C@_07CPBI@?$DMtbody?$DO?$AA@ 100a8e74     tzwebgl1.obj
 0003:00008e80       ??_C@_0FA@KJE@?$DMtable?5?5cols?$DN2?5style?$DN?$FO?$FO?5?5name?$DN?$FO?$DM@ 100a8e80     tzwebgl1.obj
 0003:00008ee0       ??_C@_0DN@KGNH@?5?5?5?5?5?5?5?5?5szTblMultChName?5?$DN?5?$FOtblM@ 100a8ee0     tzwebgl1.obj
 0003:00008f2c       ??_C@_0CD@GENJ@?5?5?5?5?5?5?5?5?5szCheckType?5?$DN?5?$FOcheckbox@ 100a8f2c     tzwebgl1.obj
 0003:00008f58       ??_C@_0CA@MKND@?5?5?5?5?5?5?5?5?5szCheckType?5?$DN?5?$FOradio?$FO?$DL?$AA@ 100a8f58     tzwebgl1.obj
 0003:00008f80       ??_C@_0FP@MOI@?5?5?5?5?5?5if?5?$CI?5szType?4equals?$CI?$FOMultip@ 100a8f80     tzwebgl1.obj
 0003:00008ff4       ??_C@_0DI@MLK@?5?5?5else?5if?5?$CI?5szType?4equals?$CI?$FOYes?1@ 100a8ff4     tzwebgl1.obj
 0003:00009038       ??_C@_0CG@OMGI@?$DM?1div?5?$DO?5?5?$DM?$CB?9?9?5end?5textarea?5answe@ 100a9038     tzwebgl1.obj
 0003:00009068       ??_C@_0LH@MAME@?$DMtextarea?5name?$DN?$FO?$DM?$CF?$DNszTxtAnswerNa@ 100a9068     tzwebgl1.obj
 0003:00009144       ??_C@_0CB@NNM@?$DMdiv?5?$DO?5?5?$DM?$CB?9?9?5textarea?5answer?5?9?9?$DO@ 100a9144     tzwebgl1.obj
 0003:0000916c       ??_C@_0FO@NAKD@?4GetStringFromAttributeByContext@ 100a916c     tzwebgl1.obj
 0003:000091dc       ??_C@_0BH@IEFI@?5?5?5strErrorMapValue?5?$DN?5?$AA@ 100a91dc     tzwebgl1.obj
 0003:000091f8       ??_C@_0BK@MMKO@?5?5?5strErrorMapValue?5?$DN?5?$FO?$FO?$DL?$AA@ 100a91f8     tzwebgl1.obj
 0003:00009218       ??_C@_0DI@LMEP@?5?5?5String?5szTxtAnswerName?5?$DN?5?$FOtxt@ 100a9218     tzwebgl1.obj
 0003:0000925c       ??_C@_0BM@MLJD@?5?5?5?1?1?5MLEdit?3?5mleTextAnswer?$AA@ 100a925c     tzwebgl1.obj
 0003:00009280       ??_C@_0CP@JLBM@?5?5?5if?5?$CI?5szType?4equals?$CI?$FOText?$FO?$CJ?5?$CJ?5@ 100a9280     tzwebgl1.obj
 0003:000092b8       ??_C@_0EJ@LPCO@?$DMdiv?5class?$DN?$FOsurveyquestionanswer@ 100a92b8     tzwebgl1.obj
 0003:00009310       ??_C@_0CA@EFPG@?$DMdiv?5style?$DN?$FOheight?35px?$DL?$FO?$DO?$DM?1div?$DO?$AA@ 100a9310     tzwebgl1.obj
 0003:00009338       ??_C@_0CN@MKLD@?$DM?1div?$DO?5?$DM?$CB?9?9?5end?5div?5for?5survey?5q@ 100a9338     tzwebgl1.obj
 0003:00009370       ??_C@_0DK@BBED@?$DMspan?5title?$DN?$FO?$DM?$CF?$DNszQuestionHelp?$CF?$DO@ 100a9370     tzwebgl1.obj
 0003:000093b8       ??_C@_0DP@OMBC@?$DMdiv?5class?$DN?$FOsurveyquestion?$FO?$DO?5?$DM?$CB?9@ 100a93b8     tzwebgl1.obj
 0003:00009404       ??_C@_0GL@OAAP@?5?5?5?$DMinput?5name?$DN?$FO?$DM?$CF?$DNszIsOptional?$CF@ 100a9404     tzwebgl1.obj
 0003:00009484       ??_C@_0HA@EJKN@?5?5?5?$DMinput?5name?$DN?$FO?$DM?$CF?$DNszAllowCommen@ 100a9484     tzwebgl1.obj
 0003:0000950c       ??_C@_0GJ@NKH@?5?5?5?$DMinput?5name?$DN?$FO?$DM?$CF?$DNszQuestionTyp@ 100a950c     tzwebgl1.obj
 0003:0000958c       ??_C@_0GL@JALB@?5?5?5?$DMinput?5name?$DN?$FO?$DM?$CF?$DNszQuestionIDN@ 100a958c     tzwebgl1.obj
 0003:0000960c       ??_C@_0CD@CFLD@?5?5?5?5?5?5?5?5?5?5String?5szQuestionHelp?5@ 100a960c     tzwebgl1.obj
 0003:00009638       ??_C@_0GB@CPKM@?4GetStringFromAttributeByContext@ 100a9638     tzwebgl1.obj
 0003:000096ac       ??_C@_0CJ@PAHF@?5?5?5?5?5?5?5?5?5?5String?5szResponseIsOpt@ 100a96ac     tzwebgl1.obj
 0003:000096e0       ??_C@_0EA@PLNJ@?5?5?5?5?5?5?5?5?5?5String?5szIsOptional?5?$DN?5@ 100a96e0     tzwebgl1.obj
 0003:0000972c       ??_C@_0EH@OELP@?5?5?5?5?5?5?5?5?5?5String?5szAllowCommentN@ 100a972c     tzwebgl1.obj
 0003:00009784       ??_C@_0EH@CDFO@?5?5?5?5?5?5?5?5?5?5String?5szQuestionTypeN@ 100a9784     tzwebgl1.obj
 0003:000097dc       ??_C@_0ED@HEOB@?5?5?5?5?5?5?5?5?5?5String?5szQuestionIDNam@ 100a97dc     tzwebgl1.obj
 0003:0000982c       ??_C@_0FP@NNNE@?4GetStringFromAttributeByContext@ 100a982c     tzwebgl1.obj
 0003:000098a0       ??_C@_0CC@KJAC@?5?5?5?5?5?5?5?5?5?5String?5szCommentFlag?5?$DN@ 100a98a0     tzwebgl1.obj
 0003:000098c8       ??_C@_0FF@DPHJ@?4GetStringFromAttributeByContext@ 100a98c8     tzwebgl1.obj
 0003:00009930       ??_C@_0BL@EGLK@?5?5?5?5?5?5?5?5?5?5String?5szType?5?$DN?5?$AA@ 100a9930     tzwebgl1.obj
 0003:00009950       ??_C@_0GA@NDPJ@?4GetStringFromAttributeByContext@ 100a9950     tzwebgl1.obj
 0003:000099c4       ??_C@_0BL@KGEJ@?5?5?5?5?5?5?5?5?5?5String?5szHelp?5?$DN?5?$AA@ 100a99c4     tzwebgl1.obj
 0003:000099e4       ??_C@_0FD@PFNC@?4GetStringFromAttributeByContext@ 100a99e4     tzwebgl1.obj
 0003:00009a48       ??_C@_0CB@EIGH@?5?5?5?5?5?5?5?5?5?5String?5szQuestionID?5?$DN?5@ 100a9a48     tzwebgl1.obj
 0003:00009a70       ??_C@_0FJ@NIOL@?4GetStringFromAttributeByContext@ 100a9a70     tzwebgl1.obj
 0003:00009adc       ??_C@_0CF@CAIH@?5?5?5?5?5?5?5?5?5?5szQuestion?5?$DN?5szQuestio@ 100a9adc     tzwebgl1.obj
 0003:00009b08       ??_C@_0CN@FBOO@?5?5?5?5?5?5?5?5?5?5?5?5?5szQuestion?5?$DN?5szQues@ 100a9b08     tzwebgl1.obj
 0003:00009b40       ??_C@_0CJ@PDM@?5?5?5?5?5?5?5?5?5?5if?5?$CI?5szQuestion?4length@ 100a9b40     tzwebgl1.obj
 0003:00009b74       ??_C@_0FH@EFJN@?4GetStringFromAttributeByContext@ 100a9b74     tzwebgl1.obj
 0003:00009bdc       ??_C@_0BI@OOKN@?5?5?5?5?5?5?5?5?5?5szQuestion?5?$DN?5?$AA@ 100a9bdc     tzwebgl1.obj
 0003:00009bf8       ??_C@_0CP@FHED@?5?5?5?5?5?5?5?5?5?5iQuestionCount?5?$DN?5iQues@ 100a9bf8     tzwebgl1.obj
 0003:00009c30       ??_C@_0P@CBD@SurveyQuestion?$AA@ 100a9c30     tzwebgl1.obj
 0003:00009c44       ??_C@_0DL@HNAE@?$DM?1div?$DO?5?$DM?$CB?9?9?5end?5div?5for?5survey?5q@ 100a9c44     tzwebgl1.obj
 0003:00009c8c       ??_C@_0FB@IKIL@?$DMdiv?5class?$DN?$FOsurveygroupspacing?$FO?$DO@ 100a9c8c     tzwebgl1.obj
 0003:00009cf0       ??_C@_0DD@DKGA@?$DM?1div?$DO?5?$DM?$CB?9?9?5end?5div?5for?5survey?5q@ 100a9cf0     tzwebgl1.obj
 0003:00009d30       ??_C@_0BO@EBDJ@?$DMspan?$DO?$DM?$CF?$DNszGroupName?$CF?$DO?$DM?1span?$DO?$AA@ 100a9d30     tzwebgl1.obj
 0003:00009d54       ??_C@_0EC@HEAN@?$DMdiv?5class?$DN?$FOsurveygroup?$FO?$DO?5?$DM?$CB?9?9?5d@ 100a9d54     tzwebgl1.obj
 0003:00009da4       ??_C@_0FK@FOAL@?4GetStringFromAttributeByContext@ 100a9da4     tzwebgl1.obj
 0003:00009e10       ??_C@_0CA@LDFH@?5?5?5?5?5?5?5?5?5?5String?5szGroupName?5?$DN?5?$AA@ 100a9e10     tzwebgl1.obj
 0003:00009e38       ??_C@_0BO@FOIC@?0?5?$FOwOrder?$FO?0?5szGroupNbr?0?5?$FO?$FO?5?$CJ?$DL?$AA@ 100a9e38     tzwebgl1.obj
 0003:00009e5c       ??_C@_0DF@IANF@?4SetCursorFirst?$CI?5strSessionId?0?5?$FO@ 100a9e5c     tzwebgl1.obj
 0003:00009e9c       ??_C@_0GI@FCBC@?4GetStringFromAttributeByContext@ 100a9e9c     tzwebgl1.obj
 0003:00009f18       ??_C@_0BI@JNFJ@?5?5?5?5?5?5?5?5?5?5szGroupNbr?5?$DN?5?$AA@ 100a9f18     tzwebgl1.obj
 0003:00009f34       ??_C@_0EA@CLEE@?4CheckExistenceOfEntity?$CI?5strSess@ 100a9f34     tzwebgl1.obj
 0003:00009f80       ??_C@_0BL@OBNG@?5?5?5String?5szGroupNbr?5?$DN?5?$FO?$FO?$DL?$AA@ 100a9f80     tzwebgl1.obj
 0003:00009fa0       ??_C@_0BK@HNBF@?5?5?5String?5strBtnOne?5?$DN?5?$FO?$FO?$DL?$AA@ 100a9fa0     tzwebgl1.obj
 0003:00009fc0       ??_C@_0BK@KPDL@?5?5?5String?5strBtnTwo?5?$DN?5?$FO?$FO?$DL?$AA@ 100a9fc0     tzwebgl1.obj
 0003:00009fe0       ??_C@_0BM@LGGB@?5?5?5String?5szCheckType?5?$DN?5?$FO?$FO?$DL?$AA@ 100a9fe0     tzwebgl1.obj
 0003:0000a004       ??_C@_0CA@GKPK@?5?5?5String?5szTblMultChName?5?$DN?5?$FO?$FO?$DL?$AA@ 100aa004     tzwebgl1.obj
 0003:0000a02c       ??_C@_0BL@GPDC@?5?5?5String?5szQuestion?5?$DN?5?$FO?$FO?$DL?$AA@ 100aa02c     tzwebgl1.obj
 0003:0000a04c       ??_C@_0CC@CHCJ@?5?5?5int?5iQuestionInGroupCount?5?$DN?50@ 100aa04c     tzwebgl1.obj
 0003:0000a074       ??_C@_0BL@NNON@?5?5?5int?5iQuestionCount?5?$DN?50?$DL?$AA@ 100aa074     tzwebgl1.obj
 0003:0000a094       ??_C@_0CI@KFNM@?$FO?$DO?5?5?$DM?$CB?9?9?5surrounding?5div?5for?5sur@ 100aa094     tzwebgl1.obj
 0003:0000a0c4       ??_C@_0CL@OHBO@?$DMdiv?$DO?5?$DM?$CB?9?9?5surrounding?5div?5for?5s@ 100aa0c4     tzwebgl1.obj
 0003:0000a0f8       ??_C@_0BM@EGOA@?$DM?$CB?9?9?5SURVEY?5GROUP?5BEGIN?5?9?9?$DO?$AA@ 100aa0f8     tzwebgl1.obj
 0003:0000a11c       ??_C@_0BN@OKNB@?$DM?$CB?9?9?5REPEATING?5GROUP?5END?5?9?9?$DO?$AA@ 100aa11c     tzwebgl1.obj
 0003:0000a140       ??_C@_0EL@CMBD@?$DMdiv?5style?$DN?$FOclear?3both?$DL?$FO?$DO?$DM?1div?$DO?5@ 100aa140     tzwebgl1.obj
 0003:0000a19c       ??_C@_0CO@BPGF@?$DM?1div?$DO?5?5?5?$DM?$CB?9?9?5end?5div?5for?5repeat@ 100aa19c     tzwebgl1.obj
 0003:0000a1d4       ??_C@_0BC@HCJD@?$DMfieldset?5class?$DN?$FO?$AA@ 100aa1d4     tzwebgl1.obj
 0003:0000a1ec       ??_C@_0CE@IJDB@?$DO?5?5?$DM?$CB?9?9?5div?5for?5repeating?5group?5@ 100aa1ec     tzwebgl1.obj
 0003:0000a218       ??_C@_0N@NGAL@?$DMdiv?5class?$DN?$FO?$AA@ 100aa218     tzwebgl1.obj
 0003:0000a228       ??_C@_0CE@DGPM@?$DO?5?$DM?$CB?9?9?5div?5for?5repeating?5group?5?9@ 100aa228     tzwebgl1.obj
 0003:0000a254       ??_C@_0BC@MNKJ@?5?5?5if?5?$CI?5nRC?5?$DO?50?5?$CJ?$AA@ 100aa254     tzwebgl1.obj
 0003:0000a26c       ??_C@_02CCO@?$DM?$CF?$AA@  100aa26c     tzwebgl1.obj
 0003:0000a270       ??_C@_0BP@DJMH@?$DM?$CB?9?9?5REPEATING?5GROUP?5BEGIN?5?9?9?$DO?$AA@ 100aa270     tzwebgl1.obj
 0003:0000a298       ??_C@_02FCPN@?$FO?$DO?$AA@ 100aa298     tzwebgl1.obj
 0003:0000a29c       ??_C@_05HPPD@?$CI?5?$CJ?$FO?5?$AA@ 100aa29c     tzwebgl1.obj
 0003:0000a2a4       ??_C@_0M@PPEC@?$FO?5onclick?$DN?$FO?$AA@ 100aa2a4     tzwebgl1.obj
 0003:0000a2b4       ??_C@_09LHKH@?$FO?5value?$DN?$FO?$AA@ 100aa2b4     tzwebgl1.obj
 0003:0000a2c0       ??_C@_07NNKO@?$DMp?$DO?$DM?1p?$DO?$AA@ 100aa2c0     tzwebgl1.obj
 0003:0000a2cc       ??_C@_09BAGM@?$DM?1button?$DO?$AA@ 100aa2cc     tzwebgl1.obj
 0003:0000a2d8       ??_C@_06PJLM@name?$DN?$FO?$AA@ 100aa2d8     tzwebgl1.obj
 0003:0000a2e0       ??_C@_0BH@EKKP@?$DMbutton?5type?$DN?$FObutton?$FO?5?$AA@ 100aa2e0     tzwebgl1.obj
 0003:0000a2fc       ??_C@_08DHGJ@?5title?$DN?$FO?$AA@ 100aa2fc     tzwebgl1.obj
 0003:0000a308       ??_C@_08DAMP@DIL_Text?$AA@ 100aa308     tzwebgl1.obj
 0003:0000a314       ??_C@_05MKLH@AltF4?$AA@    100aa314     tzwebgl1.obj
 0003:0000a31c       ??_C@_06GKKK@alt?9f4?$AA@  100aa31c     tzwebgl1.obj
 0003:0000a324       ??_C@_0M@DALH@?$DM?1fieldset?$DO?$AA@ 100aa324     tzwebgl1.obj
 0003:0000a334       ??_C@_05NLOI@?$DMdiv?$DO?$AA@ 100aa334     tzwebgl1.obj
 0003:0000a33c       ??_C@_0L@FJCK@?$DMfieldset?5?$AA@ 100aa33c     tzwebgl1.obj
 0003:0000a34c       ??_C@_0BH@PHBE@?$FO?5style?$DN?$FOfloat?3left?$DL?$FO?$DO?$AA@ 100aa34c     tzwebgl1.obj
 0003:0000a368       ??_C@_0L@CDKE@?$FO?5name?$DN?$FOgb?$AA@ 100aa368     tzwebgl1.obj
 0003:0000a378       ??_C@_0M@LNNN@?$DMdiv?5id?$DN?$FOgb?$AA@ 100aa378     tzwebgl1.obj
 0003:0000a388       ??_C@_02MJAI@?$CF?$DO?$AA@ 100aa388     tzwebgl1.obj
 0003:0000a38c       ??_C@_0BM@JLEO@?4GetString?$CI?5strSessionId?0?5?$FO?$AA@ 100aa38c     tzwebgl1.obj
 0003:0000a3b0       ??_C@_0BP@CNC@?5?5?5?5?5?5?5?5?5strRadioGroupValue?5?$DN?5?$AA@ 100aa3b0     tzwebgl1.obj
 0003:0000a3d8       ??_C@_07OKBN@?5?5?5else?$AA@ 100aa3d8     tzwebgl1.obj
 0003:0000a3e4       ??_C@_06NPIL@?5?5?5?5?5?5?$AA@ 100aa3e4     tzwebgl1.obj
 0003:0000a3ec       ??_C@_0BD@LPDI@?5?5?5if?5?$CI?5nRC?5?$DM?$DN?50?5?$CJ?$AA@ 100aa3ec     tzwebgl1.obj
 0003:0000a404       ??_C@_0BK@HCDA@?$DM?$CF?5strErrorMapValue?5?$DN?5?$FO?$FO?$DL?$AA@ 100aa404     tzwebgl1.obj
 0003:0000a424       ??_C@_0BH@CAKP@?$CK?$CK?$CK?5Creating?5Text?5?$CK?$CK?$CK?5?$AA@ 100aa424     tzwebgl1.obj
 0003:0000a440       ??_C@_0DA@INOK@?$DM?1div?$DO?5?$DM?$CB?9?9?5End?5Div?5for?5surround@ 100aa440     tzwebgl1.obj
 0003:0000a47c       ??_C@_0EC@CFOF@?8?0?5?8fade?$DN400?0hide?$DN1?0persist?$DN1?8?$CJ?$DL@ 100aa47c     tzwebgl1.obj
 0003:0000a4cc       ??_C@_0DJ@BAEL@?$DMscript?5type?$DN?$FOtext?1javascript?$FO?$DOa@ 100aa4cc     tzwebgl1.obj
 0003:0000a510       ??_C@_06CMFF@?$DM?1div?$DO?$AA@ 100aa510     tzwebgl1.obj
 0003:0000a518       ??_C@_04HPAF@?$FO?5?$CF?$DO?$AA@ 100aa518     tzwebgl1.obj
 0003:0000a520       ??_C@_0BC@IEB@?$DM?$CF?$EAinclude?5file?$DN?$FO?$AA@ 100aa520     tzwebgl1.obj
 0003:0000a538       ??_C@_0M@BFOO@?$DM?1noscript?$DO?$AA@ 100aa538     tzwebgl1.obj
 0003:0000a548       ??_C@_0CA@FKHK@?5?5?5?5?5?5?5value?$DN?$FOmanual_challenge?$FO?$AA@ 100aa548     tzwebgl1.obj
 0003:0000a570       ??_C@_0DI@ONJD@?5?5?5?$DMinput?5type?$DN?$FOhidden?$FO?5name?$DN?$FOre@ 100aa570     tzwebgl1.obj
 0003:0000a5b4       ??_C@_0P@LGNG@?5?5?5?$DM?1textarea?$DO?$AA@ 100aa5b4     tzwebgl1.obj
 0003:0000a5c8       ??_C@_0EC@NMDF@?5?5?5?$DMtextarea?5name?$DN?$FOrecaptcha_cha@ 100aa5c8     tzwebgl1.obj
 0003:0000a618       ??_C@_0DO@HCME@?5?5?5?5?5?5?5height?$DN?$FO300?$FO?5width?$DN?$FO500?$FO?5@ 100aa618     tzwebgl1.obj
 0003:0000a664       ??_C@_0DN@PLGH@?5?5?5?$DMiframe?5src?$DN?$FOhttps?3?1?1api?9secu@ 100aa664     tzwebgl1.obj
 0003:0000a6b0       ??_C@_0L@HOMJ@?$DMnoscript?$DO?$AA@ 100aa6b0     tzwebgl1.obj
 0003:0000a6c0       ??_C@_09CAD@?$DM?1script?$DO?$AA@ 100aa6c0     tzwebgl1.obj
 0003:0000a6cc       ??_C@_0DG@PHDA@?5?5?5src?$DN?$FOhttps?3?1?1api?9secure?4recap@ 100aa6cc     tzwebgl1.obj
 0003:0000a70c       ??_C@_0BP@MABP@?$DMscript?5type?$DN?$FOtext?1javascript?$FO?$AA@ 100aa70c     tzwebgl1.obj
 0003:0000a734       ??_C@_0L@JDPI@?$DM?1a?$DO?$DM?1div?$DO?$AA@ 100aa734     tzwebgl1.obj
 0003:0000a744       ??_C@_0P@MKLH@?8?$CJ?$DL?$FO?5style?$DN?$FO?$FO?$DO?$AA@ 100aa744     tzwebgl1.obj
 0003:0000a758       ??_C@_0EJ@DDBB@?$DMdiv?5style?$DN?$FOheight?320px?$DL?$FO?$DO?$DMa?5hre@ 100aa758     tzwebgl1.obj
 0003:0000a7b0       ??_C@_0DM@FFCM@?$DMdiv?5style?$DN?$FOfloat?3left?$DL?$FO?$DO?5?5?$DM?$CB?9?9?5@ 100aa7b0     tzwebgl1.obj
 0003:0000a7f8       ??_C@_0BB@COOB@?$DM?1iframe?$DO?5?5?$DM?$CB?9?9?5?$AA@ 100aa7f8     tzwebgl1.obj
 0003:0000a80c       ??_C@_0BA@POOL@?$DMiframe?5class?$DN?$FO?$AA@ 100aa80c     tzwebgl1.obj
 0003:0000a820       ??_C@_09IHPK@?$FO?$DO?5?5?$DM?$CB?9?9?5?$AA@ 100aa820     tzwebgl1.obj
 0003:0000a82c       ??_C@_0M@KAJB@WebFileName?$AA@ 100aa82c     tzwebgl1.obj
 0003:0000a83c       ??_C@_07LFPB@?$FO?5src?$DN?$FO?$AA@ 100aa83c     tzwebgl1.obj
 0003:0000a848       ??_C@_06HJJF@?$FO?5id?$DN?$FO?$AA@ 100aa848     tzwebgl1.obj
 0003:0000a850       ??_C@_07CLAI@?5name?$DN?$FO?$AA@ 100aa850     tzwebgl1.obj
 0003:0000a85c       ??_C@_08NCDJ@?$DMiframe?5?$AA@ 100aa85c     tzwebgl1.obj
 0003:0000a868       ??_C@_05FCNH@?5?5?5?$HN?5?$AA@ 100aa868     tzwebgl1.obj
 0003:0000a870       ??_C@_0CG@IGHD@?5?5?5?5?5?5?$HN?5?1?1?5if?5CheckExistenceOfEn@ 100aa870     tzwebgl1.obj
 0003:0000a8a0       ??_C@_0CM@JLBD@?5?5?5?5?5?5?5?5?5?1?1?5Now?5close?5the?5last?5c@ 100aa8a0     tzwebgl1.obj
 0003:0000a8d4       ??_C@_0BL@MAMI@?5?5?5?5?5?5?5?5?5?$HN?5?5?1?1?5For?5each?5i?5?$AA@ 100aa8d4     tzwebgl1.obj
 0003:0000a8f4       ??_C@_0DE@MEPM@?5?5?5?5?5?5?5?5?5?5?5?5?1?1vComboBox2?4DropVie@ 100aa8f4     tzwebgl1.obj
 0003:0000a934       ??_C@_0BI@MFFD@?5?5?5?5?5?5?5?5?5?5?5?5?$HN?5?1?1?5While?5?$AA@ 100aa934     tzwebgl1.obj
 0003:0000a950       ??_C@_0EM@LPNG@?4SetCursorNext?$CI?5strSessionId?0?5?$FOD@ 100aa950     tzwebgl1.obj
 0003:0000a9ac       ??_C@_0BH@BOIE@?5?5?5?5?5?5?5?5?5?5?5?5?5?5?5nRC?5?$DN?5?5?$AA@ 100aa9ac     tzwebgl1.obj
 0003:0000a9c8       ??_C@_0DJ@JPPF@?5?5?5?5?5?5?5?5?5?5?5?5?5?5?5?$HN?5?1?1?5if?5?$CI?5szDispl@ 100aa9c8     tzwebgl1.obj
 0003:0000aa0c       ??_C@_0CF@HADP@?5?5?5?5?5?5?5?5?5?5?5?5?5?5?5?5?5?5?5iDashboardCnt@ 100aaa0c     tzwebgl1.obj
 0003:0000aa38       ??_C@_04GPCF@?5?5?5?5?$AA@ 100aaa38     tzwebgl1.obj
 0003:0000aa40       ??_C@_0BN@BKNJ@?5?5?5?5?5?5?5?5?5?5?5?5?5?5?5?5?5?5?5?5?5?$DM?1div?$DO?5?$AA@ 100aaa40     tzwebgl1.obj
 0003:0000aa64       ??_C@_0CF@BFOB@?5?5?5?5?5?5?5?5?5?5?5?5?5?5?5?5?5?5?5?5?5?5?5?5?5?5?$DM?1ifra@ 100aaa64     tzwebgl1.obj
 0003:0000aa90       ??_C@_0FM@OGLL@?5?5?5?5?5?5?5?5?5?5?5?5?5?5?5?5?5?5?5?5?5?5?5?5?5?5?$DMifram@ 100aaa90     tzwebgl1.obj
 0003:0000ab00       ??_C@_0GH@DMKM@?5?5?5?5?5?5?5?5?5?5?5?5?5?5?5?5?5?5?5?5?5?5?5?$DMdiv?5id?$DN?$FO@ 100aab00     tzwebgl1.obj
 0003:0000ab7c       ??_C@_0BP@LKKH@?5?5?5?5?5?5?5?5?5?5?5?5?5?5?5?5?5?5?5?5?5?5?5?$DM?1div?$DO?5?$AA@ 100aab7c     tzwebgl1.obj
 0003:0000aba4       ??_C@_0LE@LLIF@?5?5?5?5?5?5?5?5?5?5?5?5?5?5?5?5?5?5?5?5?5?5?5?5?5?$DMdiv?5id@ 100aaba4     tzwebgl1.obj
 0003:0000ac7c       ??_C@_0JH@EIJO@?5?5?5?5?5?5?5?5?5?5?5?5?5?5?5?5?5?5?5?5?5?5?5?5?5?$DMdiv?5id@ 100aac7c     tzwebgl1.obj
 0003:0000ad34       ??_C@_0CB@DEIG@?5?5?5?5?5?5?5?5?5?5?5?5?5?5?5?5?5?5?5?5?5?5?5?5?5?$DM?1div?$DO?5@ 100aad34     tzwebgl1.obj
 0003:0000ad5c       ??_C@_0HP@JGJA@?5?5?5?5?5?5?5?5?5?5?5?5?5?5?5?5?5?5?5?5?5?5?5?5?5?$DMdiv?5id@ 100aad5c     tzwebgl1.obj
 0003:0000adf4       ??_C@_0DE@KGKF@?5?5?5?5?5?5?5?5?5?5?5?5?5?5?5?5?5?5?5?5?5?5?5?$DMdiv?5clas@ 100aadf4     tzwebgl1.obj
 0003:0000ae34       ??_C@_0FH@BACL@?5?5?5?5?5?5?5?5?5?5?5?5?5?5?5?5?5?5?5?5?5?$DMdiv?5id?$DN?$FOrp@ 100aae34     tzwebgl1.obj
 0003:0000ae9c       ??_C@_0DO@JJMO@?4TraceLine?$CI?$FO?$CK?$CK?$CK?5Expand?5Function?5@ 100aae9c     tzwebgl1.obj
 0003:0000aee8       ??_C@_0BF@EMFK@?5?5?5?5?5?5?5?5?5?5?5?5?5?5?5?5?5?5?1?1?$AA@ 100aaee8     tzwebgl1.obj
 0003:0000af04       ??_C@_0IC@EADF@?5?5?5?5?5?5?5?5?5?5?5?5?5?5?5?5?5?5szFunction?5?$DN?5?$FO@ 100aaf04     tzwebgl1.obj
 0003:0000afa0       ??_C@_0GE@DEOE@?4GetStringFromAttributeByContext@ 100aafa0     tzwebgl1.obj
 0003:0000b018       ??_C@_0CF@EEDA@?5?5?5?5?5?5?5?5?5?5?5?5?5?5?5?5?5?5szDashboardMor@ 100ab018     tzwebgl1.obj
 0003:0000b044       ??_C@_0GF@CKHF@?4GetStringFromAttributeByContext@ 100ab044     tzwebgl1.obj
 0003:0000b0c0       ??_C@_0CH@CKNB@?5?5?5?5?5?5?5?5?5?5?5?5?5?5?5?5?5?5szDashboardSou@ 100ab0c0     tzwebgl1.obj
 0003:0000b0f0       ??_C@_0DE@DFLC@?5?5?5?5?5?5?5?5?5?5?5?5?5?5?5if?5?$CI?5szDisplayFra@ 100ab0f0     tzwebgl1.obj
 0003:0000b130       ??_C@_0DE@GIHB@?4TraceLine?$CI?$FO?$CK?$CK?$CK?5Dashboard?5Column@ 100ab130     tzwebgl1.obj
 0003:0000b170       ??_C@_0BC@EPKC@?5?5?5?5?5?5?5?5?5?5?5?5?5?5?5?1?1?$AA@ 100ab170     tzwebgl1.obj
 0003:0000b188       ??_C@_0FC@CBKI@?4SetAttribute?$CI?5strSessionId?0?5?$FODa@ 100ab188     tzwebgl1.obj
 0003:0000b1ec       ??_C@_0BC@KDKG@?5?5?5?5?5?5?5?5?5?5?5?5?5?5?5?$HN?5?$AA@ 100ab1ec     tzwebgl1.obj
 0003:0000b204       ??_C@_0DN@GIKD@?4TraceLine?$CI?$FO?$CK?$CK?$CK?5There?5is?5no?5sort@ 100ab204     tzwebgl1.obj
 0003:0000b250       ??_C@_0CP@JKEI@?5?5?5?5?5?5?5?5?5?5?5?5?5?5?5?5?5?5iSortOrder?5?$DN?5i@ 100ab250     tzwebgl1.obj
 0003:0000b288       ??_C@_0BC@NEFJ@?5?5?5?5?5?5?5?5?5?5?5?5?5?5?5?$HL?5?$AA@ 100ab288     tzwebgl1.obj
 0003:0000b2a0       ??_C@_0CH@CBAA@?5?5?5?5?5?5?5?5?5?5?5?5?5?5?5if?5?$CI?5iSortOrder?5?$DM@ 100ab2a0     tzwebgl1.obj
 0003:0000b2d0       ??_C@_0EN@JLMB@?4GetInteger?$CI?5strSessionId?0?5?$FODash@ 100ab2d0     tzwebgl1.obj
 0003:0000b32c       ??_C@_0BN@MDMO@?5?5?5?5?5?5?5?5?5?5?5?5?5?5?5iSortOrder?5?$DN?5?$AA@ 100ab32c     tzwebgl1.obj
 0003:0000b350       ??_C@_0CB@ID@?5?5?5?5?5?5?5?5?5?5?5?5?5?5?5szDisplayFrame?5?$DN?5@ 100ab350     tzwebgl1.obj
 0003:0000b378       ??_C@_0CA@NACP@?5?5?5?5?5?5?5?5?5?5?5?5while?5?$CI?5nRC?5?$DO?$DN?50?5?$CJ?5?$AA@ 100ab378     tzwebgl1.obj
 0003:0000b3a0       ??_C@_0EN@CCML@?4SetCursorFirst?$CI?5strSessionId?0?5?$FO@ 100ab3a0     tzwebgl1.obj
 0003:0000b3fc       ??_C@_0CM@OONK@?5?5?5?5?5?5?5?5?5?5?5?5?5?5?5iColEndNbr?5?$DN?5iDas@ 100ab3fc     tzwebgl1.obj
 0003:0000b430       ??_C@_0CO@DNAK@?5?5?5?5?5?5?5?5?5?5?5?5if?5?$CIiColEndNbr?5?$DO?5iDa@ 100ab430     tzwebgl1.obj
 0003:0000b468       ??_C@_0DK@GGFC@?5?5?5?5?5?5?5?5?5?5?5?5iColEndNbr?5?$DN?5?$CIiColSt@ 100ab468     tzwebgl1.obj
 0003:0000b4b0       ??_C@_0CL@JPKO@?5?5?5?5?5?5?5?5?5?5?5?5iColStartNbr?5?$DN?5iDash@ 100ab4b0     tzwebgl1.obj
 0003:0000b4e4       ??_C@_0EB@HIID@?5?5?5?5?5?5?5?5?5?5?5?5?1?1?5These?5variables?5a@ 100ab4e4     tzwebgl1.obj
 0003:0000b534       ??_C@_0DC@CHDH@?5?5?5?5?5?5?5?5?5?5?5?5?5?5?5?5?5?5?$DMdiv?5id?$DN?$FOcolum@ 100ab534     tzwebgl1.obj
 0003:0000b570       ??_C@_0BK@GGPH@?5?5?5?5?5?5?5?5?5?5?5?5?5?5?5?5?5?5?$DM?1div?$DO?5?$AA@ 100ab570     tzwebgl1.obj
 0003:0000b590       ??_C@_03HHCJ@?$CF?$DO?5?$AA@ 100ab590     tzwebgl1.obj
 0003:0000b594       ??_C@_0BL@EIAG@?5?5?5?5?5?5?5?5?5?5?5?5if?5?$CI?5i?5?$CB?$DN?51?5?$CJ?5?$AA@ 100ab594     tzwebgl1.obj
 0003:0000b5b4       ??_C@_0GC@CIIK@?5?5?5?5?5?5?5?5?5?5?5?5?1?1?5If?5we?5are?5onto?5a?5@ 100ab5b4     tzwebgl1.obj
 0003:0000b62c       ??_C@_0BK@FLMD@?5?5?5?5?5?5?5?5?5?5?5?5iColNbr?5?$DN?5i?$DL?5?$AA@ 100ab62c     tzwebgl1.obj
 0003:0000b64c       ??_C@_0CO@GAAN@?5?5?5?5?5?5?5?5?5for?5?5?$CI?5i?$DN1?$DL?5i?5?$DM?$DN?5iMaxCo@ 100ab64c     tzwebgl1.obj
 0003:0000b684       ??_C@_0CH@ENDD@?5?5?5?5?5?5?5?5?5?1?1?5second?5column?5etc?4?5?5@ 100ab684     tzwebgl1.obj
 0003:0000b6b4       ??_C@_0FE@GLIB@?5?5?5?5?5?5?5?5?5?1?1?5Loop?5through?5each?5fr@ 100ab6b4     tzwebgl1.obj
 0003:0000b718       ??_C@_0DM@LLBF@?5?5?5?5?5?5?5?5?5?5?5?5iMaxInCol?5?$DN?5?$CIiDashbo@ 100ab718     tzwebgl1.obj
 0003:0000b760       ??_C@_0P@EHP@?5?5?5?5?5?5?5?5?5else?5?$AA@ 100ab760     tzwebgl1.obj
 0003:0000b774       ??_C@_0DI@BNPC@?5?5?5?5?5?5?5?5?5?5?5?5iMaxInCol?5?$DN?5?$CIiDashbo@ 100ab774     tzwebgl1.obj
 0003:0000b7b8       ??_C@_0CB@LFPO@?5?5?5?5?5?5?5?5?5if?5?$CI?5iRemainder?5?$DN?$DN?50?5?$CJ?5@ 100ab7b8     tzwebgl1.obj
 0003:0000b7e0       ??_C@_0EG@IHGE@?5?5?5?5?5?5?5?5?5iRemainder?5?$DN?5iDashboard@ 100ab7e0     tzwebgl1.obj
 0003:0000b834       ??_C@_0L@LJKB@?5?5?5?5?5?5?5?5?5?5?$AA@ 100ab834     tzwebgl1.obj
 0003:0000b844       ??_C@_0DL@KLDJ@?4SetCursorNext?$CI?5strSessionId?0?5?$FOD@ 100ab844     tzwebgl1.obj
 0003:0000b88c       ??_C@_0BE@DLDB@?5?5?5?5?5?5?5?5?5?5?5?5nRC?5?$DN?5?5?$AA@ 100ab88c     tzwebgl1.obj
 0003:0000b8a4       ??_C@_0BL@JGHH@?5?5?5?5?5?5?5?5?5?5?5?5?5?5?5iColNbr?$CL?$CL?$DL?5?$AA@ 100ab8a4     tzwebgl1.obj
 0003:0000b8c4       ??_C@_0CB@LPBI@?5?5?5?5?5?5?5?5?5?5?5?5?5?5?5iDashboardMax?$CL?$CL?$DL?5@ 100ab8c4     tzwebgl1.obj
 0003:0000b8ec       ??_C@_0EN@HCML@?4SetAttribute?$CI?5strSessionId?0?5?$FODa@ 100ab8ec     tzwebgl1.obj
 0003:0000b948       ??_C@_0EF@FFEF@?5?5?5?5?5?5?5?5?5?5?5?5?5?5?5?1?1?5Set?5what?5colum@ 100ab948     tzwebgl1.obj
 0003:0000b99c       ??_C@_0CA@MMLI@?5?5?5?5?5?5?5?5?5?5?5?5?5?5?5?5?5?5iColNbr?5?$DN?51?$DL?5?$AA@ 100ab99c     tzwebgl1.obj
 0003:0000b9c4       ??_C@_0CM@FDCN@?5?5?5?5?5?5?5?5?5?5?5?5?5?5?5if?5?$CIiColNbr?5?$DO?5iMa@ 100ab9c4     tzwebgl1.obj
 0003:0000b9f8       ??_C@_0DA@CFNF@?5?5?5?5?5?5?5?5?5?5?5?5?5?5?5?1?1?5start?5at?5colum@ 100ab9f8     tzwebgl1.obj
 0003:0000ba34       ??_C@_0EF@BHAM@?5?5?5?5?5?5?5?5?5?5?5?5?5?5?5?1?1?5When?5we?8ve?5rea@ 100aba34     tzwebgl1.obj
 0003:0000ba88       ??_C@_0DB@HCOB@?5?5?5?5?5?5?5?5?5?5?5?5if?5?$CI?5szDisplayFrame?4@ 100aba88     tzwebgl1.obj
 0003:0000bac4       ??_C@_0GO@DJFL@?4GetStringFromAttributeByContext@ 100abac4     tzwebgl1.obj
 0003:0000bb48       ??_C@_0BO@NAFM@?5?5?5?5?5?5?5?5?5?5?5?5szDisplayFrame?5?$DN?5?$AA@ 100abb48     tzwebgl1.obj
 0003:0000bb6c       ??_C@_0BN@PAP@?5?5?5?5?5?5?5?5?5while?5?$CI?5nRC?5?$DO?$DN?50?5?$CJ?5?$AA@ 100abb6c     tzwebgl1.obj
 0003:0000bb90       ??_C@_0DM@EELH@?4SetCursorFirst?$CI?5strSessionId?0?5?$FO@ 100abb90     tzwebgl1.obj
 0003:0000bbd8       ??_C@_0DM@PICN@?4TraceLine?$CI?$FO?$CK?$CK?$CK?5nRC?5after?5OrderE@ 100abbd8     tzwebgl1.obj
 0003:0000bc20       ??_C@_0M@DNAF@?5?5?5?5?5?5?5?5?5?1?1?$AA@ 100abc20     tzwebgl1.obj
 0003:0000bc30       ??_C@_0DF@PBJP@?0?5?$FODashboardFrameUser?$FO?0?5?$FOPresent@ 100abc30     tzwebgl1.obj
 0003:0000bc70       ??_C@_0CE@IKKF@?4OrderEntityForView?$CI?5strSessionI@ 100abc70     tzwebgl1.obj
 0003:0000bc9c       ??_C@_0BC@GLOD@?5?5?5?5?5?5?5?5?5?1?1nRC?5?$DN?5?$AA@ 100abc9c     tzwebgl1.obj
 0003:0000bcb4       ??_C@_0CA@KPKO@?5?5?5?5?5?5?5?5?5?1?1Order?5by?5Sort?5Order?5?$AA@ 100abcb4     tzwebgl1.obj
 0003:0000bcdc       ??_C@_08EGEK@?5?5?5?5?5?5?$HL?5?$AA@ 100abcdc     tzwebgl1.obj
 0003:0000bce8       ??_C@_0BH@HGMB@?5?5?5?5?5?5if?5?$CI?5nRC?5?$DO?$DN?50?5?$CJ?5?$AA@ 100abce8     tzwebgl1.obj
 0003:0000bd04       ??_C@_0EA@NGEM@?4CheckExistenceOfEntity?$CI?5strSess@ 100abd04     tzwebgl1.obj
 0003:0000bd50       ??_C@_05CFCI@?5?5?5?$HL?5?$AA@ 100abd50     tzwebgl1.obj
 0003:0000bd58       ??_C@_0BD@JOCN@?5?5?5if?5?$CI?5nRC?5?$DO?50?5?$CJ?5?$AA@ 100abd58     tzwebgl1.obj
 0003:0000bd70       ??_C@_0BD@OPCO@?$FO?0?5vAppSubtask?5?$CJ?$DL?5?$AA@ 100abd70     tzwebgl1.obj
 0003:0000bd88       ??_C@_09LEAN@?5?5?5nRC?5?$DN?5?$AA@ 100abd88     tzwebgl1.obj
 0003:0000bd94       ??_C@_0FB@CBMB@?5?5?5vKZXMLPGO?4SetAttribute?$CI?5strSe@ 100abd94     tzwebgl1.obj
 0003:0000bdf8       ??_C@_0EG@BIFE@?5?5?5nRC?5?$DN?5vKZXMLPGO?4GetView?$CI?5strS@ 100abdf8     tzwebgl1.obj
 0003:0000be4c       ??_C@_0P@GHMK@?5?5?5int?5i?5?$DN?50?$DL?5?$AA@ 100abe4c     tzwebgl1.obj
 0003:0000be60       ??_C@_0BI@HFOP@?5?5?5int?5iSortOrder?5?$DN?50?$DL?5?$AA@ 100abe60     tzwebgl1.obj
 0003:0000be7c       ??_C@_0BF@KPEJ@?5?5?5int?5iColNbr?5?$DN?51?$DL?5?$AA@ 100abe7c     tzwebgl1.obj
 0003:0000be98       ??_C@_0BI@EJNJ@?5?5?5int?5iRemainder?5?$DN?50?$DL?5?$AA@ 100abe98     tzwebgl1.obj
 0003:0000beb4       ??_C@_0BI@GLOH@?5?5?5int?5iColEndNbr?5?$DN?50?$DL?5?$AA@ 100abeb4     tzwebgl1.obj
 0003:0000bed0       ??_C@_0BK@PKDO@?5?5?5int?5iColStartNbr?5?$DN?50?$DL?5?$AA@ 100abed0     tzwebgl1.obj
 0003:0000bef0       ??_C@_0BH@EKAH@?5?5?5int?5iNbrInCol?5?$DN?51?$DL?5?$AA@ 100abef0     tzwebgl1.obj
 0003:0000bf0c       ??_C@_0BH@LPNF@?5?5?5int?5iMaxInCol?5?$DN?50?$DL?5?$AA@ 100abf0c     tzwebgl1.obj
 0003:0000bf28       ??_C@_0BJ@DICI@?5?5?5int?5iMaxColumns?5?$DN?53?$DL?5?$AA@ 100abf28     tzwebgl1.obj
 0003:0000bf48       ??_C@_0BL@CNEA@?5?5?5int?5iDashboardCnt?5?$DN?51?$DL?5?$AA@ 100abf48     tzwebgl1.obj
 0003:0000bf68       ??_C@_0BL@JHOB@?5?5?5int?5iDashboardMax?5?$DN?50?$DL?5?$AA@ 100abf68     tzwebgl1.obj
 0003:0000bf88       ??_C@_0CA@DBEG@?5?5?5String?5szDisplayFrame?5?$DN?5?$FO?$FO?$DL?5?$AA@ 100abf88     tzwebgl1.obj
 0003:0000bfb0       ??_C@_0BM@BAJK@?5?5?5String?5szFunction?5?$DN?5?$FO?$FO?$DL?5?$AA@ 100abfb0     tzwebgl1.obj
 0003:0000bfd4       ??_C@_0CB@IAKF@?5?5?5String?5szDashboardMore?5?$DN?5?$FO?$FO?$DL?5@ 100abfd4     tzwebgl1.obj
 0003:0000bffc       ??_C@_0CD@PIIH@?5?5?5String?5szDashboardSource?5?$DN?5?$FO?$FO@ 100abffc     tzwebgl1.obj
 0003:0000c028       ??_C@_03HAOC@?$DM?$CF?5?$AA@ 100ac028     tzwebgl1.obj
 0003:0000c02c       ??_C@_0O@FLKJ@?$DM?1div?$DO?5?5?$DM?$CB?9?9?5?$AA@ 100ac02c     tzwebgl1.obj
 0003:0000c03c       ??_C@_05NJFC@?$DMdiv?5?$AA@ 100ac03c     tzwebgl1.obj
 0003:0000c044       ??_C@_0P@OLLC@overflow?3auto?$DL?$AA@ 100ac044     tzwebgl1.obj
 0003:0000c058       ??_C@_09BFKD@DivScroll?$AA@ 100ac058     tzwebgl1.obj
 0003:0000c064       ??_C@_07LLNO@class?$DN?$FO?$AA@ 100ac064     tzwebgl1.obj
 0003:0000c070       ??_C@_01FAFK@?$DO?$AA@     100ac070     tzwebgl1.obj
 0003:0000c074       ??_C@_05JAPC@?$DMspan?$AA@ 100ac074     tzwebgl1.obj
 0003:0000c07c       ??_C@_09HPAP@CSS_Class?$AA@ 100ac07c     tzwebgl1.obj
 0003:0000c088       ??_C@_0BH@KPPL@?$DMdiv?5id?$DN?8clear?8?$DO?$DM?1div?$DO?$AA@ 100ac088     tzwebgl1.obj
 0003:0000c0a4       ??_C@_05BHDE@Clear?$AA@    100ac0a4     tzwebgl1.obj
 0003:0000c0ac       ??_C@_0P@JPLL@?$DM?1div?$DO?5?5?$DM?$CB?9?9?5?5?$AA@ 100ac0ac     tzwebgl1.obj
 0003:0000c0c0       ??_C@_08EGFH@?5?5?5?5?5?5?$CF?$DO?$AA@ 100ac0c0     tzwebgl1.obj
 0003:0000c0cc       ??_C@_0BK@IDLE@?5?5?5?5?5?5?5?5?5if?5?$CI?5nRC?5?$DO?$DN?50?5?$CJ?5?$AA@ 100ac0cc     tzwebgl1.obj
 0003:0000c0ec       ??_C@_08INHB@?5?5?5?5?5?5?$DM?$CF?$AA@ 100ac0ec     tzwebgl1.obj
 0003:0000c0f8       ??_C@_05NDPO@?5?9?9?$DO?5?$AA@ 100ac0f8     tzwebgl1.obj
 0003:0000c100       ??_C@_08KOIC@?$DO?5?5?$DM?$CB?9?9?5?$AA@ 100ac100     tzwebgl1.obj
 0003:0000c10c       ??_C@_04LCLF@?$DMdiv?$AA@  100ac10c     tzwebgl1.obj
 0003:0000c114       ??_C@_0M@LOGA@float?3left?$DL?$AA@ 100ac114     tzwebgl1.obj
 0003:0000c124       ??_C@_06JAHB@style?$DN?$AA@ 100ac124     tzwebgl1.obj
 0003:0000c12c       ??_C@_06HP@?5?$CK?1?5?$CF?$DO?$AA@ 100ac12c     tzwebgl1.obj
 0003:0000c134       ??_C@_01PKAG@?3?$AA@       100ac134     tzwebgl1.obj
 0003:0000c138       ??_C@_06OIGN@?$DM?$CF?5?1?$CK?5?$AA@ 100ac138     tzwebgl1.obj
 0003:0000c140       ??_C@_0P@OLBN@style?$DN?$FOheight?3?$AA@ 100ac140     tzwebgl1.obj
 0003:0000c154       ??_C@_04ELGM@px?$DL?$FO?$AA@ 100ac154     tzwebgl1.obj
 0003:0000c15c       ??_C@_0O@MGDO@style?$DN?$FOwidth?3?$AA@ 100ac15c     tzwebgl1.obj
 0003:0000c16c       ??_C@_03LANL@Div?$AA@      100ac16c     tzwebgl1.obj
 0003:0000c170       ??_C@_04LNPA@Span?$AA@     100ac170     tzwebgl1.obj
 0003:0000c178       ??_C@_0L@KDJE@Scrollable?$AA@ 100ac178     tzwebgl1.obj
 0003:0000c188       ??_C@_0BB@OFMG@Show?1Hide?5Toggle?$AA@ 100ac188     tzwebgl1.obj
 0003:0000c19c       ??_C@_09NCAF@Dashboard?$AA@ 100ac19c     tzwebgl1.obj
 0003:0000c1a8       ??_C@_06CIEE@iFrame?$AA@   100ac1a8     tzwebgl1.obj
 0003:0000c1b0       ??_C@_0N@CCOJ@Include?5File?$AA@ 100ac1b0     tzwebgl1.obj
 0003:0000c1c0       ??_C@_0BA@OHD@Repeating?5Group?$AA@ 100ac1c0     tzwebgl1.obj
 0003:0000c1d4       ??_C@_0P@FIKA@RepeatingGroup?$AA@ 100ac1d4     tzwebgl1.obj
 0003:0000c1e8       ??_C@_0O@CKMP@Grid?5Grouping?$AA@ 100ac1e8     tzwebgl1.obj
 0003:0000c1f8       ??_C@_08HNBM@No?5Width?$AA@ 100ac1f8     tzwebgl1.obj
 0003:0000c204       ??_C@_09DGHG@No?5Height?$AA@ 100ac204     tzwebgl1.obj
 0003:0000c210       ??_C@_05FELB@Table?$AA@    100ac210     tzwebgl1.obj
 0003:0000c218       ??_C@_02FAEH@?$FO?5?$AA@   100ac218     tzwebgl1.obj
 0003:0000c21c       ??_C@_08FDNH@?$FO?5name?$DN?$FO?$AA@ 100ac21c     tzwebgl1.obj
 0003:0000c228       ??_C@_05JLFP@?5id?$DN?$FO?$AA@ 100ac228     tzwebgl1.obj
 0003:0000c230       ??_C@_03MFGH@?5?5?5?$AA@   100ac230     tzwebgl1.obj
 0003:0000c234       ??_C@_07DIDN@?$DM?1span?$DO?$AA@ 100ac234     tzwebgl1.obj
 0003:0000c240       ??_C@_05NMGN@?$CGnbsp?$AA@ 100ac240     tzwebgl1.obj
 0003:0000c248       ??_C@_05NJBB@px?$DL?$FO?$DO?$AA@ 100ac248     tzwebgl1.obj
 0003:0000c250       ??_C@_0BF@CNFP@?$DMspan?5style?$DN?$FOheight?3?$AA@ 100ac250     tzwebgl1.obj
 0003:0000c26c       ??_C@_0CP@NGKM@px?$DLfloat?3left?$DL?$FO?$DO?$DM?1div?$DO?5?5?5?$DM?$CB?9?9?5Wi@ 100ac26c     tzwebgl1.obj
 0003:0000c2a4       ??_C@_0BO@ELA@?$DMdiv?5style?$DN?$FOheight?31px?$DLwidth?3?$AA@ 100ac2a4     tzwebgl1.obj
 0003:0000c2c8       ??_C@_03CHMJ@Tab?$AA@      100ac2c8     tzwebgl1.obj
 0003:0000c2cc       ??_C@_0CI@DNLA@?$DMdiv?$DO?5?5?$DM?$CB?9?9?5Beginning?5of?5a?5new?5l@ 100ac2cc     tzwebgl1.obj
 0003:0000c2fc       ??_C@_0M@BFLD@px?$DL?$FO?$DO?$DM?1div?$DO?$AA@ 100ac2fc     tzwebgl1.obj
 0003:0000c30c       ??_C@_09DJGA@px?$DLwidth?3?$AA@ 100ac30c     tzwebgl1.obj
 0003:0000c318       ??_C@_0BE@EJGM@?$DMdiv?5style?$DN?$FOheight?3?$AA@ 100ac318     tzwebgl1.obj
 0003:0000c330       ??_C@_0CJ@PLAG@?5?$DM?$CB?9?9?5This?5is?5added?5as?5a?5line?5sp@ 100ac330     tzwebgl1.obj
 0003:0000c364       ??_C@_0EO@PMCC@?$DMdiv?5style?$DN?$FOclear?3both?$DL?$FO?$DO?$DM?1div?$DO?5@ 100ac364     tzwebgl1.obj
 0003:0000c3c4       ??_C@_0CD@FOCE@?$DM?1div?$DO?5?5?$DM?$CB?9?9?5End?5of?5a?5new?5line?5?9@ 100ac3c4     tzwebgl1.obj
 0003:0000c3f0       ??_C@_0BN@FFBP@OnClick?$CI?5hControl?0?5Control?5?$CJ?$AA@ 100ac3f0     tzwebgl2.obj
 0003:0000c414       ??_C@_0EJ@LGM@?5?5?5?5?5?5document?4getElementById?$CI?5h@ 100ac414     tzwebgl2.obj
 0003:0000c46c       ??_C@_0EB@BMGF@?5?5?5?5?5?5document?4getElementById?$CI?5h@ 100ac46c     tzwebgl2.obj
 0003:0000c4bc       ??_C@_0BM@FJBI@?5?5?5isWindowClosing?5?$DN?5false?$DL?$AA@ 100ac4bc     tzwebgl2.obj
 0003:0000c4e0       ??_C@_0EI@KFHP@?5?5?5?1?1?5This?5is?5for?5indicating?5whe@ 100ac4e0     tzwebgl2.obj
 0003:0000c538       ??_C@_0DJ@LBNJ@task?4log?$CI?$CJ?4info?$CI?5?$FO?$CK?$CK?$CK?5Error?5in?5g@ 100ac538     tzwebgl2.obj
 0003:0000c57c       ??_C@_0DN@FACE@out?4println?$CI?$FOThere?5is?5an?5error?5i@ 100ac57c     tzwebgl2.obj
 0003:0000c5c8       ??_C@_0BE@DCAG@catch?5?$CIException?5e?$CJ?$AA@ 100ac5c8     tzwebgl2.obj
 0003:0000c5e0       ??_C@_0BD@HMCJ@?5?5?5?5?5?5?5?5?5csrRC2?5?$DN?5?$AA@ 100ac5e0     tzwebgl2.obj
 0003:0000c5f8       ??_C@_0FH@GFPF@?$DO?$DMa?5href?$DN?$FO?$CD?$FO?5style?$DN?$FOdisplay?3bloc@ 100ac5f8     tzwebgl2.obj
 0003:0000c660       ??_C@_09EJGJ@?4drop?$CI?5?$CJ?$DL?$AA@ 100ac660     tzwebgl2.obj
 0003:0000c66c       ??_C@_0BE@PCHJ@?5?5?5?5?5?5?5?5?5csrRC?5?$DN?5?5v?$AA@ 100ac66c     tzwebgl2.obj
 0003:0000c684       ??_C@_0DD@OKHP@?5?5?5?5?5?5?5?5?5?5?5?5?$DMoption?$DO?$DM?$CF?$DNstrErrorM@ 100ac684     tzwebgl2.obj
 0003:0000c6c4       ??_C@_0EH@DLB@?5?5?5?5?5?5?5?5?5?5?5?5?$DMoption?5selected?$DN?$FOse@ 100ac6c4     tzwebgl2.obj
 0003:0000c71c       ??_C@_0EN@DCEK@?5?5?5?5?5?5?5?5?5if?5?$CI?5StringUtils?4equals@ 100ac71c     tzwebgl2.obj
 0003:0000c778       ??_C@_0BA@KKOI@?5?5?5?5?5?5csrRC?5?$DN?5v?$AA@ 100ac778     tzwebgl2.obj
 0003:0000c78c       ??_C@_0BL@CFME@?5?5?5?5?5?5?5?5?5?$DMoption?$DO?$DM?1option?$DO?$AA@ 100ac78c     tzwebgl2.obj
 0003:0000c7ac       ??_C@_0CP@BGOC@?5?5?5?5?5?5?5?5?5?$DMoption?5selected?$DN?$FOselec@ 100ac7ac     tzwebgl2.obj
 0003:0000c7e4       ??_C@_0DJ@FKBM@?5?5?5?5?5?5if?5?$CI?5StringUtils?4isBlank?$CI?5@ 100ac7e4     tzwebgl2.obj
 0003:0000c828       ??_C@_0CN@FIAE@?5?5?5?5?5?5?5?5?5if?5?$CI?5strComboCurrentVal@ 100ac828     tzwebgl2.obj
 0003:0000c860       ??_C@_0N@LGA@?5?5?5?5?5?5View?5v?$AA@ 100ac860     tzwebgl2.obj
 0003:0000c870       ??_C@_0BI@IDPP@?3?3?$DM?$CF?$DNstrEntityKey?$CF?$DO?5?$CJ?$FO?$DO?$AA@ 100ac870     tzwebgl2.obj
 0003:0000c88c       ??_C@_0CD@KFHF@?5?5?5?5?5?5?$HN?5?5?1?1?5for?5?$CI?5TableEntry?5ent@ 100ac88c     tzwebgl2.obj
 0003:0000c8b8       ??_C@_0EO@BHAD@?5?5?5?5?5?5?5?5?5?5?5?5?5?5?5?$DMoption?5value?$DN?$FO?$DM?$CF@ 100ac8b8     tzwebgl2.obj
 0003:0000c918       ??_C@_0GC@IBFA@?5?5?5?5?5?5?5?5?5?5?5?5?5?5?5?$DMoption?5selected?$DN@ 100ac918     tzwebgl2.obj
 0003:0000c990       ??_C@_0EN@FNOH@?5?5?5?5?5?5?5?5?5?5?5?5if?5?$CI?5StringUtils?4equ@ 100ac990     tzwebgl2.obj
 0003:0000c9ec       ??_C@_0DG@OODO@?5?5?5?5?5?5?5?5?5if?5?$CI?5?$CBStringUtils?4isBla@ 100ac9ec     tzwebgl2.obj
 0003:0000ca2c       ??_C@_0CA@MAHI@?5?5?5?5?5?5?5?5?5?5?5?5externalValue?5?$DN?5?$FO?$FO?$DL?$AA@ 100aca2c     tzwebgl2.obj
 0003:0000ca54       ??_C@_0CA@OLPK@?5?5?5?5?5?5?5?5?5?5?5?5internalValue?5?$DN?5?$FO?$FO?$DL?$AA@ 100aca54     tzwebgl2.obj
 0003:0000ca7c       ??_C@_0CG@FCMO@?5?5?5?5?5?5?5?5?5if?5?$CI?5externalValue?5?$DN?$DN?5n@ 100aca7c     tzwebgl2.obj
 0003:0000caac       ??_C@_0EC@DLPC@?5?5?5?5?5?5?5?5?5?1?1?5but?5currently?5it?5ret@ 100acaac     tzwebgl2.obj
 0003:0000cafc       ??_C@_0FK@NDJB@?5?5?5?5?5?5?5?5?5?1?1?5Perhaps?5getInternalV@ 100acafc     tzwebgl2.obj
 0003:0000cb68       ??_C@_0DL@FHFM@?5?5?5?5?5?5?5?5?5String?5externalValue?5?$DN?5@ 100acb68     tzwebgl2.obj
 0003:0000cbb0       ??_C@_0DL@HGDH@?5?5?5?5?5?5?5?5?5String?5internalValue?5?$DN?5@ 100acbb0     tzwebgl2.obj
 0003:0000cbf8       ??_C@_02HJJN@?5?$CJ?$AA@   100acbf8     tzwebgl2.obj
 0003:0000cbfc       ??_C@_0CE@LOEO@?5?5?5?5?5?5for?5?$CI?5TableEntry?5entry?5?3?5l@ 100acbfc     tzwebgl2.obj
 0003:0000cc28       ??_C@_0CK@NMPK@?5?5?5?5?5?5?5?5?5?5?5?5?5?5?5?$DMoption?5value?$DN?$FO?$FO?$DO@ 100acc28     tzwebgl2.obj
 0003:0000cc5c       ??_C@_0DO@PLCI@?5?5?5?5?5?5?5?5?5?5?5?5?5?5?5?$DMoption?5selected?$DN@ 100acc5c     tzwebgl2.obj
 0003:0000cca8       ??_C@_0CO@OPHN@?5?5?5?5?5?5?5?5?5?5?5?5if?5?$CI?5strComboCurrent@ 100acca8     tzwebgl2.obj
 0003:0000cce0       ??_C@_0CH@JBDN@?5?5?5?5?5?5?5?5?5?5?5?5strComboCurrentValue@ 100acce0     tzwebgl2.obj
 0003:0000cd10       ??_C@_0CK@BJEK@?5?5?5?5?5?5?5?5?5?5?5?5?5?5?5strComboCurrentVa@ 100acd10     tzwebgl2.obj
 0003:0000cd44       ??_C@_0DA@POCH@?5?5?5?5?5?5?5?5?5?5?5?5if?5?$CI?5strComboCurrent@ 100acd44     tzwebgl2.obj
 0003:0000cd80       ??_C@_0CG@ONBN@?$FO?5?$CJ?4checkExistenceOfEntity?$CI?$CJ?4toI@ 100acd80     tzwebgl2.obj
 0003:0000cdb0       ??_C@_04ECFA@?5?0?5?$FO?$AA@ 100acdb0     tzwebgl2.obj
 0003:0000cdb8       ??_C@_0CG@BKLM@?5?$DN?5JspWebUtils?4getTableDomainVal@ 100acdb8     tzwebgl2.obj
 0003:0000cde8       ??_C@_0BM@JNCK@?5?5?5?5?5?5List?$DMTableEntry?$DO?5list?$AA@ 100acde8     tzwebgl2.obj
 0003:0000ce0c       ??_C@_0BH@NEMD@?5?$DM?$CF?$DNstrEntityKey?$CF?$DO?5?$CJ?$FO?$DO?$AA@ 100ace0c     tzwebgl2.obj
 0003:0000ce28       ??_C@_0BJ@BNK@?$DM?$CF?$DNstrEntityKey?$CF?$DO?8?5this?0?$AA@ 100ace28     tzwebgl2.obj
 0003:0000ce48       ??_C@_0DC@FEMG@?3?3?$DM?$CF?$DNstrEntityKey?$CF?$DO?8?0?5this?0?5?$DM?$CF?$DNs@ 100ace48     tzwebgl2.obj
 0003:0000ce84       ??_C@_04NFJI@?$CI?5?8h?$AA@ 100ace84     tzwebgl2.obj
 0003:0000ce8c       ??_C@_0CE@MKDG@?5?5?5?5?5?5?5?5?5if?5?$CI?5StringUtils?4isBlan@ 100ace8c     tzwebgl2.obj
 0003:0000ceb8       ??_C@_0CD@DJNJ@?5?5?5?5?5?5?5?5?5if?5?$CI?5StringUtils?4equals@ 100aceb8     tzwebgl2.obj
 0003:0000cee4       ??_C@_02GIEM@?0?5?$AA@     100acee4     tzwebgl2.obj
 0003:0000cee8       ??_C@_0CG@NAC@?5?5?5?5?5?5?5?5?5?5?5?5if?5?$CI?5StringUtils?4equ@ 100acee8     tzwebgl2.obj
 0003:0000cf18       ??_C@_0BE@DBJG@?$FO?0?5strDateFormat?5?$CJ?$DL?$AA@ 100acf18     tzwebgl2.obj
 0003:0000cf30       ??_C@_0L@DEEN@?5?$DN?$DN?5null?5?$CJ?$AA@ 100acf30     tzwebgl2.obj
 0003:0000cf40       ??_C@_0BF@PGA@?5?5?5?5?5?5?5?5?5?5?5?5?5?5?5if?5?$CI?5?$AA@ 100acf40     tzwebgl2.obj
 0003:0000cf5c       ??_C@_0CD@HHHO@ErrorColor?5?$DN?5?$FO?5style?$DN?8color?3red?8@ 100acf5c     tzwebgl2.obj
 0003:0000cf88       ??_C@_0DO@LMFL@?5?5?5?5?5?5?5?5?5?5?5?5?5?5?5if?5?$CI?5StringUtils?4@ 100acf88     tzwebgl2.obj
 0003:0000cfd4       ??_C@_0DM@MDKG@?5?5?5?5?5?5?5?5?5?5?5?5if?5?$CI?5?$CBStringUtils?4is@ 100acfd4     tzwebgl2.obj
 0003:0000d01c       ??_C@_0EM@GEKN@?5?5?5?5?5?5?5?5?5?5?5?5strErrorMapValue?5?$DN?5V@ 100ad01c     tzwebgl2.obj
 0003:0000d078       ??_C@_0DF@HDKA@?5?5?5?5?5?5?5?5?5strEntityKey?5?$DN?5Long?4toS@ 100ad078     tzwebgl2.obj
 0003:0000d0b8       ??_C@_0DB@CJJJ@?5?5?5?5?5?5?5?5?5if?5?$CI?5StringUtils?4isBlan@ 100ad0b8     tzwebgl2.obj
 0003:0000d0f4       ??_C@_0CP@BFBB@?$FO?5?$CJ?4getStringFromAttribute?$CI?5?$FOwHi@ 100ad0f4     tzwebgl2.obj
 0003:0000d12c       ??_C@_0BP@NDKN@?5?5?5?5?5?5while?5?$CI?5csrRC2?4isSet?$CI?$CJ?5?$CJ?$AA@ 100ad12c     tzwebgl2.obj
 0003:0000d154       ??_C@_0BJ@OFKD@?$FO?5?$CJ?4setFirstWithinOi?$CI?5?$CJ?$DL?$AA@ 100ad154     tzwebgl2.obj
 0003:0000d174       ??_C@_0BA@HOMB@?5?5?5?5?5?5csrRC2?5?$DN?5?$AA@ 100ad174     tzwebgl2.obj
 0003:0000d188       ??_C@_0N@OPEB@?4newView?$CI?5?$CJ?$DL?$AA@ 100ad188     tzwebgl2.obj
 0003:0000d198       ??_C@_0M@ECNF@?5?5?5?5?5?5View?5?$AA@ 100ad198     tzwebgl2.obj
 0003:0000d1a8       ??_C@_0BJ@GOEB@?5?5?5?5?5?5long?5?5?5lEntityKey?$DL?$AA@ 100ad1a8     tzwebgl2.obj
 0003:0000d1c8       ??_C@_03DGDL@try?$AA@      100ad1c8     tzwebgl2.obj
 0003:0000d1cc       ??_C@_0FO@KJDN@?5?5?5if?5?$CI?5StringUtils?4equals?$CI?5strE@ 100ad1cc     tzwebgl2.obj
 0003:0000d23c       ??_C@_0IG@DFPD@px?$DLheight?350px?$DLborder?3solid?$DLbord@ 100ad23c     tzwebgl2.obj
 0003:0000d2dc       ??_C@_0DJ@GOPL@?$DMscript?5type?$DN?$FOtext?1javascript?$FO?$DOs@ 100ad2dc     tzwebgl2.obj
 0003:0000d320       ??_C@_06OPOD@?$CI?5?$CJ?$DL?$FO?$DO?$AA@ 100ad320     tzwebgl2.obj
 0003:0000d328       ??_C@_0BI@IEFN@?$FO?5?$CJ?4setNextContinue?$CI?5?$CJ?$DL?$AA@ 100ad328     tzwebgl2.obj
 0003:0000d344       ??_C@_0BE@JNLI@?3?3?$DM?$CF?$DNstrEntityKeyRG?$AA@ 100ad344     tzwebgl2.obj
 0003:0000d35c       ??_C@_0BP@OMK@?5?$DN?5Long?4toString?$CI?5lEntityKeyRG?$AA@ 100ad35c     tzwebgl2.obj
 0003:0000d384       ??_C@_0BI@JHPE@?5?5?5?5?5?5?5?5?5strEntityKeyRG?$AA@ 100ad384     tzwebgl2.obj
 0003:0000d3a0       ??_C@_0BF@IJLP@?$FO?5?$CJ?4getEntityKey?$CI?5?$CJ?$DL?$AA@ 100ad3a0     tzwebgl2.obj
 0003:0000d3bc       ??_C@_0BG@JKIA@?5?5?5?5?5?5?5?5?5lEntityKeyRG?$AA@ 100ad3bc     tzwebgl2.obj
 0003:0000d3d8       ??_C@_0BO@DDG@?5?5?5?5?5?5while?5?$CI?5csrRC?4isSet?$CI?$CJ?5?$CJ?$AA@ 100ad3d8     tzwebgl2.obj
 0003:0000d3fc       ??_C@_0P@FDMP@?$FO?5?$CJ?4setFirst?$CI?5?$AA@ 100ad3fc     tzwebgl2.obj
 0003:0000d410       ??_C@_0P@MKKE@?5?5?5?5?5?5csrRC?5?$DN?5?$AA@ 100ad410     tzwebgl2.obj
 0003:0000d424       ??_C@_0BM@NNEG@?5?5?5?5?5?5String?5strEntityKeyRG?$AA@ 100ad424     tzwebgl2.obj
 0003:0000d448       ??_C@_0BK@PEC@?5?5?5?5?5?5long?5?5?5lEntityKeyRG?$AA@ 100ad448     tzwebgl2.obj
 0003:0000d468       ??_C@_0BF@GJHJ@Relative?5Positioning?$AA@ 100ad468     tzwebgl2.obj
 0003:0000d484       ??_C@_03IFCJ@?8?5?$CJ?$AA@ 100ad484     tzwebgl2.obj
 0003:0000d488       ??_C@_03DH@?$CI?5?8?$AA@   100ad488     tzwebgl2.obj
 0003:0000d48c       ??_C@_0BO@NNKC@?$FO?5?$CJ?4getStringFromAttribute?$CI?5?$FO?$AA@ 100ad48c     tzwebgl2.obj
 0003:0000d4b0       ??_C@_0CN@PIGP@?5?5?5?5?5?5task?4log?$CI?5?$CJ?4info?$CI?5?$FOInvalid@ 100ad4b0     tzwebgl2.obj
 0003:0000d4e8       ??_C@_0O@INJB@?5?$CJ?5?$DN?$DN?5false?5?$CJ?$AA@ 100ad4e8     tzwebgl2.obj
 0003:0000d4f8       ??_C@_0BL@KPKO@?8?$CJ?$DLreturn?5false?$FO?5style?$DN?$FO?$FO?$DO?$AA@ 100ad4f8     tzwebgl2.obj
 0003:0000d518       ??_C@_0CF@KMJE@?$FO?5onclick?$DN?$FOanimatedcollapse?4togg@ 100ad518     tzwebgl2.obj
 0003:0000d544       ??_C@_0CF@KILK@?$DMdiv?5style?$DN?$FOheight?320px?$DL?$FO?$DO?$DMa?5hre@ 100ad544     tzwebgl2.obj
 0003:0000d570       ??_C@_0CC@IOGF@?5?5?5?5?5?5?5?5?5?5?5?5?1?1vComboBox2?4drop?$CI?5?$CJ@ 100ad570     tzwebgl2.obj
 0003:0000d598       ??_C@_0EF@KPGG@?4cursor?$CI?5?$FODashboardFrameUser?$FO?0?5?$FO@ 100ad598     tzwebgl2.obj
 0003:0000d5ec       ??_C@_0BJ@JLOA@?5?5?5?5?5?5?5?5?5?5?5?5?5?5?5csrRC?5?$DN?5?5?$AA@ 100ad5ec     tzwebgl2.obj
 0003:0000d60c       ??_C@_0EG@OGGE@?5?5?5?5?5?5?5?5?5?5?5?5?5?5?5?$HN?5?1?1?5if?5?$CI?5StringU@ 100ad60c     tzwebgl2.obj
 0003:0000d660       ??_C@_0CE@NPMP@?5?5?5?5?5?5?5?5?5?5?5?5?5?5?5?5?5?5?5iDashboardCnt@ 100ad660     tzwebgl2.obj
 0003:0000d68c       ??_C@_0FC@LOHL@?5?5?5?5?5?5?5?5?5?5?5?5?5?5?5?5?5?5?1?1?5task?4log?$CI?5?$CJ@ 100ad68c     tzwebgl2.obj
 0003:0000d6f0       ??_C@_0IC@CGAF@?5?5?5?5?5?5?5?5?5?5?5?5?5?5?5?5?5?5szFunction?5?$DN?5?$FO@ 100ad6f0     tzwebgl2.obj
 0003:0000d78c       ??_C@_0EM@KPCO@?4cursor?$CI?5?$FODashboardFrame?$FO?5?$CJ?4getS@ 100ad78c     tzwebgl2.obj
 0003:0000d7e8       ??_C@_0EN@EMPI@?4cursor?$CI?5?$FODashboardFrame?$FO?5?$CJ?4getS@ 100ad7e8     tzwebgl2.obj
 0003:0000d844       ??_C@_0EB@GDMJ@?5?5?5?5?5?5?5?5?5?5?5?5?5?5?5if?5?$CI?5StringUtils?4@ 100ad844     tzwebgl2.obj
 0003:0000d894       ??_C@_0EN@GJBL@?5?5?5?5?5?5?5?5?5?5?5?5?5?5?5?1?1?5task?4log?$CI?5?$CJ?4in@ 100ad894     tzwebgl2.obj
 0003:0000d8f0       ??_C@_0EM@NFAC@?4cursor?$CI?5?$FODashboardFrameUser?$FO?5?$CJ?4@ 100ad8f0     tzwebgl2.obj
 0003:0000d94c       ??_C@_0FG@PKD@?5?5?5?5?5?5?5?5?5?5?5?5?5?5?5?5?5?5task?4log?$CI?5?$CJ?4in@ 100ad94c     tzwebgl2.obj
 0003:0000d9b4       ??_C@_0CO@KIBK@?5?5?5?5?5?5?5?5?5?5?5?5?5?5?5?5?5?5iSortOrder?5?$DN?5i@ 100ad9b4     tzwebgl2.obj
 0003:0000d9ec       ??_C@_0FE@HHLM@?4cursor?$CI?5?$FODashboardFrameUser?$FO?5?$CJ?4@ 100ad9ec     tzwebgl2.obj
 0003:0000da50       ??_C@_0CF@FIOL@?5?5?5?5?5?5?5?5?5?5?5?5while?5?$CI?5csrRC?4isSet?$CI@ 100ada50     tzwebgl2.obj
 0003:0000da7c       ??_C@_0DO@PECA@?4cursor?$CI?5?$FODashboardFrameUser?$FO?5?$CJ?4@ 100ada7c     tzwebgl2.obj
 0003:0000dac8       ??_C@_0BF@CBDK@?5?5?5?5?5?5?5?5?5?5?5?5csrRC?5?$DN?5?$AA@ 100adac8     tzwebgl2.obj
 0003:0000dae4       ??_C@_0CL@DKMJ@?5?5?5?5?5?5?5?5?5?5?5?5?5?5?5iColEndNbr?5?$DN?5iDas@ 100adae4     tzwebgl2.obj
 0003:0000db18       ??_C@_0DJ@LCJN@?5?5?5?5?5?5?5?5?5?5?5?5iColEndNbr?5?$DN?5?$CIiColSt@ 100adb18     tzwebgl2.obj
 0003:0000db5c       ??_C@_0CK@EOOH@?5?5?5?5?5?5?5?5?5?5?5?5iColStartNbr?5?$DN?5iDash@ 100adb5c     tzwebgl2.obj
 0003:0000db90       ??_C@_0BJ@CDBF@?5?5?5?5?5?5?5?5?5?5?5?5iColNbr?5?$DN?5i?$DL?$AA@ 100adb90     tzwebgl2.obj
 0003:0000dbb0       ??_C@_0DL@PFFF@?5?5?5?5?5?5?5?5?5?5?5?5iMaxInCol?5?$DN?5?$CIiDashbo@ 100adbb0     tzwebgl2.obj
 0003:0000dbf8       ??_C@_0DH@BCMO@?5?5?5?5?5?5?5?5?5?5?5?5iMaxInCol?5?$DN?5?$CIiDashbo@ 100adbf8     tzwebgl2.obj
 0003:0000dc3c       ??_C@_0DE@IFFB@?4cursor?$CI?5?$FODashboardFrameUser?$FO?5?$CJ?4@ 100adc3c     tzwebgl2.obj
 0003:0000dc7c       ??_C@_0BG@OOMB@?5?5?5?5?5?5?5?5?5?5?5?5csrRC?5?$DN?5?5?$AA@ 100adc7c     tzwebgl2.obj
 0003:0000dc98       ??_C@_0BK@JHJN@?5?5?5?5?5?5?5?5?5?5?5?5?5?5?5iColNbr?$CL?$CL?$DL?$AA@ 100adc98     tzwebgl2.obj
 0003:0000dcb8       ??_C@_0CA@PIHE@?5?5?5?5?5?5?5?5?5?5?5?5?5?5?5iDashboardMax?$CL?$CL?$DL?$AA@ 100adcb8     tzwebgl2.obj
 0003:0000dce0       ??_C@_0EH@IFBB@?4cursor?$CI?5?$FODashboardFrameUser?$FO?5?$CJ?4@ 100adce0     tzwebgl2.obj
 0003:0000dd38       ??_C@_0BP@FIEB@?5?5?5?5?5?5?5?5?5?5?5?5?5?5?5?5?5?5iColNbr?5?$DN?51?$DL?$AA@ 100add38     tzwebgl2.obj
 0003:0000dd60       ??_C@_0DO@JAPI@?5?5?5?5?5?5?5?5?5?5?5?5if?5?$CI?5StringUtils?4equ@ 100add60     tzwebgl2.obj
 0003:0000ddac       ??_C@_0FG@CCNC@?4cursor?$CI?5?$FODashboardFrameUser?$FO?5?$CJ?4@ 100addac     tzwebgl2.obj
 0003:0000de14       ??_C@_0CC@IDDD@?5?5?5?5?5?5?5?5?5while?5?$CI?5csrRC?4isSet?$CI?$CJ?5?$CJ@ 100ade14     tzwebgl2.obj
 0003:0000de3c       ??_C@_0CN@CPG@?4cursor?$CI?5?$FODashboardFrameUser?$FO?5?$CJ?4@ 100ade3c     tzwebgl2.obj
 0003:0000de74       ??_C@_0BC@CCMC@?5?5?5?5?5?5?5?5?5csrRC?5?$DN?5?$AA@ 100ade74     tzwebgl2.obj
 0003:0000de8c       ??_C@_0EP@ELKM@?5?5?5?5?5?5?5?5?5?1?1?5task?4log?$CI?5?$CJ?4info?$CI?5?$FO?$CK@ 100ade8c     tzwebgl2.obj
 0003:0000deec       ??_C@_0DF@HGLB@?0?5?$FODashboardFrameUser?$FO?0?5?$FOPresent@ 100adeec     tzwebgl2.obj
 0003:0000df2c       ??_C@_0BG@LFLB@?4OrderEntityForView?$CI?5?$AA@ 100adf2c     tzwebgl2.obj
 0003:0000df48       ??_C@_0ED@DGOA@?4cursor?$CI?5?$FODashboardFrameUser?$FO?5?$CJ?4@ 100adf48     tzwebgl2.obj
 0003:0000df98       ??_C@_0BP@NIBL@?5?5?5if?5?$CI?5VmlOperation?4isValid?$CI?5?$AA@ 100adf98     tzwebgl2.obj
 0003:0000dfc0       ??_C@_0EL@GFFP@?5?5?5vKZXMLPGO?4cursor?$CI?5?$FOSession?$FO?5?$CJ@ 100adfc0     tzwebgl2.obj
 0003:0000e01c       ??_C@_0DB@FDAI@?5?5?5vKZXMLPGO?5?$DN?5task?4getViewByNam@ 100ae01c     tzwebgl2.obj
 0003:0000e058       ??_C@_0O@CKCA@?5?5?5int?5i?5?$DN?50?$DL?$AA@ 100ae058     tzwebgl2.obj
 0003:0000e068       ??_C@_0BH@PAD@?5?5?5int?5iSortOrder?5?$DN?50?$DL?$AA@ 100ae068     tzwebgl2.obj
 0003:0000e084       ??_C@_0BE@KJHB@?5?5?5int?5iColNbr?5?$DN?51?$DL?$AA@ 100ae084     tzwebgl2.obj
 0003:0000e09c       ??_C@_0BH@DJOE@?5?5?5int?5iRemainder?5?$DN?50?$DL?$AA@ 100ae09c     tzwebgl2.obj
 0003:0000e0b8       ??_C@_0BH@HLH@?5?5?5int?5iColEndNbr?5?$DN?50?$DL?$AA@ 100ae0b8     tzwebgl2.obj
 0003:0000e0d4       ??_C@_0BJ@NOIM@?5?5?5int?5iColStartNbr?5?$DN?50?$DL?$AA@ 100ae0d4     tzwebgl2.obj
 0003:0000e0f4       ??_C@_0BG@OHLP@?5?5?5int?5iNbrInCol?5?$DN?51?$DL?$AA@ 100ae0f4     tzwebgl2.obj
 0003:0000e110       ??_C@_0BG@DFPN@?5?5?5int?5iMaxInCol?5?$DN?50?$DL?$AA@ 100ae110     tzwebgl2.obj
 0003:0000e12c       ??_C@_0BI@MIAB@?5?5?5int?5iMaxColumns?5?$DN?53?$DL?$AA@ 100ae12c     tzwebgl2.obj
 0003:0000e148       ??_C@_0BK@KAGA@?5?5?5int?5iDashboardCnt?5?$DN?51?$DL?$AA@ 100ae148     tzwebgl2.obj
 0003:0000e168       ??_C@_0BK@BJN@?5?5?5int?5iDashboardMax?5?$DN?50?$DL?$AA@ 100ae168     tzwebgl2.obj
 0003:0000e188       ??_C@_0BP@KGHA@?5?5?5String?5szDisplayFrame?5?$DN?5?$FO?$FO?$DL?$AA@ 100ae188     tzwebgl2.obj
 0003:0000e1b0       ??_C@_0BL@HKAF@?5?5?5String?5szFunction?5?$DN?5?$FO?$FO?$DL?$AA@ 100ae1b0     tzwebgl2.obj
 0003:0000e1d0       ??_C@_0CA@EFPA@?5?5?5String?5szDashboardMore?5?$DN?5?$FO?$FO?$DL?$AA@ 100ae1d0     tzwebgl2.obj
 0003:0000e1f8       ??_C@_0CC@GHCD@?5?5?5String?5szDashboardSource?5?$DN?5?$FO?$FO@ 100ae1f8     tzwebgl2.obj
 0003:0000e220       ??_C@_0BD@CFNE@?$DM?1fieldset?$DO?5?5?$DM?$CB?9?9?5?$AA@ 100ae220     tzwebgl2.obj
 0003:0000e238       ??_C@_09IBOA@?$DM?1legend?$DO?$AA@ 100ae238     tzwebgl2.obj
 0003:0000e244       ??_C@_08KNJM@?$DMlegend?$DO?$AA@ 100ae244     tzwebgl2.obj
 0003:0000e250       ??_C@_09MKKE@?$DMfieldset?$AA@ 100ae250     tzwebgl2.obj
 0003:0000e25c       ??_C@_0CD@GNHJ@?5?5style?$DN?$FOposition?3relative?$DL?5widt@ 100ae25c     tzwebgl2.obj
 0003:0000e288       ??_C@_0CB@JBML@style?$DN?$FOposition?3relative?$DL?5width?3@ 100ae288     tzwebgl2.obj
 0003:0000e2b0       ??_C@_0CH@IGHK@?$FO?5?$CJ?4checkExistenceOfEntity?$CI?5?$CJ?4to@ 100ae2b0     tzwebgl2.obj
 0003:0000e2e0       ??_C@_0L@JGM@?4cursor?$CI?5?$FO?$AA@ 100ae2e0     tzwebgl2.obj
 0003:0000e2f0       ??_C@_04FDKJ@?5?$CJ?5?$CJ?$AA@ 100ae2f0     tzwebgl2.obj
 0003:0000e2f8       ??_C@_0CC@BFML@?5?5?5?5?5?5if?5?$CI?5VmlOperation?4isValid?$CI@ 100ae2f8     tzwebgl2.obj
 0003:0000e320       ??_C@_0BG@NOPE@task?4getViewByName?$CI?5?$FO?$AA@ 100ae320     tzwebgl2.obj
 0003:0000e33c       ??_C@_0M@LKDJ@px?$DL?5height?3?$AA@ 100ae33c     tzwebgl2.obj
 0003:0000e34c       ??_C@_0CO@PJHF@?5?5style?$DN?$FOfloat?3left?$DLposition?3rel@ 100ae34c     tzwebgl2.obj
 0003:0000e384       ??_C@_0CM@CCCF@style?$DN?$FOfloat?3left?$DLposition?3relat@ 100ae384     tzwebgl2.obj
 0003:0000e3b8       ??_C@_0N@EOPA@Absolute?5Pos?$AA@ 100ae3b8     tzwebgl2.obj
 0003:0000e3c8       ??_C@_01FKHJ@C?$AA@        100ae3c8     tzwebgl2.obj
 0003:0000e3cc       ??_C@_08LJJA@Fieldset?$AA@ 100ae3cc     tzwebgl2.obj
 0003:0000e3d8       ??_C@_01PFH@A?$AA@         100ae3d8     tzwebgl2.obj
 0003:0000e3dc       ??_C@_0BG@HAEL@Fieldset?5Absolute?5Pos?$AA@ 100ae3dc     tzwebgl2.obj
 0003:0000e3f8       ??_C@_01KMMP@?$CJ?$AA@     100ae3f8     tzwebgl2.obj
 0003:0000e3fc       ??_C@_0CJ@OAKL@?5?5?5?5?5?5?$HN?5?1?1?5End?5of?5Repeating?5Grou@ 100ae3fc     tzwebgl2.obj
 0003:0000e430       ??_C@_0EK@EKOC@?4cursor?$CI?5?$FOSurveyQuestion?$FO?$CJ?4setAt@ 100ae430     tzwebgl2.obj
 0003:0000e488       ??_C@_0FD@IFPO@?5?5?5?5?5?5?5?5?5?5?5?5?5?5?5?5?5?5?5?5task?4log?$CI?$CJ?4i@ 100ae488     tzwebgl2.obj
 0003:0000e4ec       ??_C@_0DJ@PDFB@?4cursor?$CI?5?$FOSurveyMultiChoiceOptio@ 100ae4ec     tzwebgl2.obj
 0003:0000e530       ??_C@_0EK@DIFH@?4cursor?$CI?5?$FOSurveyMultiChoiceOptio@ 100ae530     tzwebgl2.obj
 0003:0000e588       ??_C@_0FM@EJLM@?4cursor?$CI?5?$FOSurveyMultiChoiceOptio@ 100ae588     tzwebgl2.obj
 0003:0000e5f8       ??_C@_0EO@IJBN@?5?5?5?5?5?5?5?5?5task?4log?$CI?$CJ?4info?$CI?5?$FO?$CK?$CK?$CK?$CK?$CK@ 100ae5f8     tzwebgl2.obj
 0003:0000e658       ??_C@_0EF@MPAN@?5?5?5?5?5?5?5?5?5task?4log?$CI?$CJ?4info?$CI?5?$FO?$CK?$CK?$CK?$CK?$CK@ 100ae658     tzwebgl2.obj
 0003:0000e6ac       ??_C@_0EF@FIJI@?4cursor?$CI?5?$FOSurveyMultiChoiceOptio@ 100ae6ac     tzwebgl2.obj
 0003:0000e700       ??_C@_0DC@IHLA@?4cursor?$CI?5?$FOSurveyMultiChoiceOptio@ 100ae700     tzwebgl2.obj
 0003:0000e73c       ??_C@_0DG@NAMD@?5?5?5?5?5?5?5?5?5task?4log?$CI?$CJ?4info?$CI?5?$FO?$CK?$CK?$CK?$CK?$CK@ 100ae73c     tzwebgl2.obj
 0003:0000e77c       ??_C@_0EL@HFGD@?5?5?5?5?5?5?5?5?5task?4log?$CI?$CJ?4info?$CI?5?$FO?$CK?$CK?$CK?$CK?$CK@ 100ae77c     tzwebgl2.obj
 0003:0000e7d8       ??_C@_0EC@FLBO@?5?5?5?5?5?5?5?5?5task?4log?$CI?$CJ?4info?$CI?5?$FO?$CK?$CK?$CK?$CK?$CK@ 100ae7d8     tzwebgl2.obj
 0003:0000e828       ??_C@_0EN@LCNJ@?4cursor?$CI?5?$FOSurveyQuestion?$FO?$CJ?4setAt@ 100ae828     tzwebgl2.obj
 0003:0000e884       ??_C@_0DC@JAFK@?5?5?5?5?5?5?5?5?5task?4log?$CI?$CJ?4info?$CI?5?$FO?$CK?$CK?$CK?$CK?$CK@ 100ae884     tzwebgl2.obj
 0003:0000e8c0       ??_C@_0FA@JFEJ@cursor?$CI?$FOSurveyQuestion?$FO?$CJ?4setFirs@ 100ae8c0     tzwebgl2.obj
 0003:0000e920       ??_C@_0EI@OPMK@?5?5?5?5?5?5?5?5?5task?4log?$CI?$CJ?4info?$CI?5?$FO?$CK?$CK?$CK?$CK?$CK@ 100ae920     tzwebgl2.obj
 0003:0000e978       ??_C@_0EK@DDNC@?5?5?5?5?5?5?5?5?5task?4log?$CI?$CJ?4info?$CI?5?$FO?$CK?$CK?$CK?$CK?$CK@ 100ae978     tzwebgl2.obj
 0003:0000e9d0       ??_C@_0BI@NFNO@?5?5?5?5?5?5vGridTmp?4drop?$CI?5?$CJ?$DL?$AA@ 100ae9d0     tzwebgl2.obj
 0003:0000e9ec       ??_C@_0EJ@KMCK@?5?5?5?5?5?5?5?5?5?5?5?5?5?5?5?5?5?5strDateFormat?5@ 100ae9ec     tzwebgl2.obj
 0003:0000ea44       ??_C@_0BK@ECHJ@?$FO?$CJ?0?5CursorPostion?4NEXT?5?$CJ?$DL?$AA@ 100aea44     tzwebgl2.obj
 0003:0000ea64       ??_C@_0CM@GABP@?5?5?5?5?5?5?5?5?5?5?5?5?5?5?5strTemp?5?$DN?5vGridTm@ 100aea64     tzwebgl2.obj
 0003:0000ea98       ??_C@_0CF@LFAB@?5?5?5?5?5?5?5?5?5?5?5?5nRC?5?$DN?5vGridTmp?4curso@ 100aea98     tzwebgl2.obj
 0003:0000eac4       ??_C@_0CG@CLHJ@?5?5?5?5?5?5?5?5?5?$HN?5?5?1?1?5checkExistenceOfE@ 100aeac4     tzwebgl2.obj
 0003:0000eaf4       ??_C@_0CF@MOBD@?5?5?5?5?5?5?5?5?5if?5?$CI?5VmlOperation?4isVal@ 100aeaf4     tzwebgl2.obj
 0003:0000eb20       ??_C@_0FF@CDM@?5?5?5?5?5?5?5?5?5?5?5?5VmlOperation?4CreateM@ 100aeb20     tzwebgl2.obj
 0003:0000eb88       ??_C@_0BC@KHLO@?$FO?0?5strMapValue?5?$CJ?$DL?$AA@ 100aeb88     tzwebgl2.obj
 0003:0000eba0       ??_C@_0CA@HHF@?5?5?5?5?5?5?5?5?5?5?5?5?5?5?5if?5?$CI?5strMapValue?$AA@ 100aeba0     tzwebgl2.obj
 0003:0000ebc8       ??_C@_0FI@BOGL@?5?5?5?5?5?5?5?5?5?5?5?5?5?5?5VmlOperation?4Crea@ 100aebc8     tzwebgl2.obj
 0003:0000ec34       ??_C@_0CA@DDGJ@?5?5?5?5?5?5?5?5?5?5?5?5?5?5?5nMapError?5?$DN?5?916?$DL?$AA@ 100aec34     tzwebgl2.obj
 0003:0000ec5c       ??_C@_0DH@JDON@?5?5?5?5?5?5?5?5?5?5?5?5catch?5?$CI?5InvalidAttri@ 100aec5c     tzwebgl2.obj
 0003:0000eca0       ??_C@_0CF@HGPE@?5?5?5?5?5?5?5?5?5?5?5?5?5?5?5?5?5?5vGridTmp?4curso@ 100aeca0     tzwebgl2.obj
 0003:0000eccc       ??_C@_0DG@GABB@?5?5?5?5?5?5?5?5?5?5?5?5?5?5?5?5?5?5VmlOperation?4C@ 100aeccc     tzwebgl2.obj
 0003:0000ed0c       ??_C@_0CB@NFJN@?5?5?5?5?5?5?5?5?5?5?5?5?5?5?5if?5?$CI?5webMapping?5?$CJ@ 100aed0c     tzwebgl2.obj
 0003:0000ed34       ??_C@_0BA@NFMO@?5?5?5?5?5?5?5?5?5?5?5?5try?$AA@ 100aed34     tzwebgl2.obj
 0003:0000ed48       ??_C@_0BD@KONC@vGridTmp?4cursor?$CI?5?$FO?$AA@ 100aed48     tzwebgl2.obj
 0003:0000ed60       ??_C@_0CB@OBOC@?5?5?5?5?5?5csrRC?5?$DN?5vGridTmp?4cursor?$CI?5?$FO@ 100aed60     tzwebgl2.obj
 0003:0000ed88       ??_C@_0BC@MIG@?5?5?5?5?5?5vGridTmp?5?$DN?5?$AA@ 100aed88     tzwebgl2.obj
 0003:0000eda0       ??_C@_0CB@CENC@?$FO?0?5strMapValue?0?5strDateFormat?5?$CJ?$DL@ 100aeda0     tzwebgl2.obj
 0003:0000edc8       ??_C@_0CD@BPKC@?5?5?5?5?5?5?$HN?5?5?1?1?5checkExistenceOfEnti@ 100aedc8     tzwebgl2.obj
 0003:0000edf4       ??_C@_0L@MJLO@nRelPos?0?5?$FO?$AA@ 100aedf4     tzwebgl2.obj
 0003:0000ee04       ??_C@_0P@JPFD@?4setPosition?$CI?5?$AA@ 100aee04     tzwebgl2.obj
 0003:0000ee18       ??_C@_0BM@HMKP@?$FO?5?$CJ?0?5CursorPosition?4NEXT?5?$CJ?$DL?$AA@ 100aee18     tzwebgl2.obj
 0003:0000ee3c       ??_C@_0BH@GCHD@?$FO?5?$CJ?4includeSubobject?$CI?5?$AA@ 100aee3c     tzwebgl2.obj
 0003:0000ee58       ??_C@_0CK@BEJL@?$FO?5?$CJ?4excludeEntity?$CI?5CursorPositio@ 100aee58     tzwebgl2.obj
 0003:0000ee8c       ??_C@_0DD@PGCF@?5?5?5?5?5?5?5?5?5?5?5?5?5?5?5if?5?$CI?5?$CBStringUtils@ 100aee8c     tzwebgl2.obj
 0003:0000eecc       ??_C@_0DI@NKPO@?5?5?5?5?5?5?5?5?5if?5?$CI?5?$CBStringUtils?4equal@ 100aeecc     tzwebgl2.obj
 0003:0000ef10       ??_C@_0CG@COKL@?5?5?5?5?5?5?5?5?5?$HN?5?5?1?1?5checkExistenceofE@ 100aef10     tzwebgl2.obj
 0003:0000ef40       ??_C@_0BJ@JBM@?4setPosition?$CI?5nRelPos?0?5?$FO?$AA@ 100aef40     tzwebgl2.obj
 0003:0000ef60       ??_C@_03KBJP@?$FO?5?$CJ?$AA@ 100aef60     tzwebgl2.obj
 0003:0000ef64       ??_C@_0DD@DNAM@?5?5?5?5?5?5?5?5?5?5?5?5strMapValue?5?$DN?5reques@ 100aef64     tzwebgl2.obj
 0003:0000efa4       ??_C@_0BC@CLEE@?$FO?0?5strMapValue?0?5?$FO?$AA@ 100aefa4     tzwebgl2.obj
 0003:0000efbc       ??_C@_0CC@MDMO@?$FO?0?5e?4getReason?$CI?5?$CJ?0?5strMapValue?5?$CJ@ 100aefbc     tzwebgl2.obj
 0003:0000efe4       ??_C@_0DA@JBGA@?5?5?5?5?5?5?5?5?5?5?5?5VmlOperation?4CreateM@ 100aefe4     tzwebgl2.obj
 0003:0000f020       ??_C@_0BN@OMEJ@?5?5?5?5?5?5?5?5?5?5?5?5nMapError?5?$DN?5?916?$DL?$AA@ 100af020     tzwebgl2.obj
 0003:0000f044       ??_C@_0DE@CPEP@?5?5?5?5?5?5?5?5?5catch?5?$CI?5InvalidAttribut@ 100af044     tzwebgl2.obj
 0003:0000f084       ??_C@_0BB@DOLL@?$FO?0?5strMapValue?0?5?$AA@ 100af084     tzwebgl2.obj
 0003:0000f098       ??_C@_0BE@NIKN@?$FO?5?$CJ?4setAttribute?$CI?5?$FO?$AA@ 100af098     tzwebgl2.obj
 0003:0000f0b0       ??_C@_0BG@MEO@?$FO?0?5?$FO?$FO?0?5strMapValue?5?$CJ?$DL?$AA@ 100af0b0     tzwebgl2.obj
 0003:0000f0cc       ??_C@_0DD@MCGJ@?5?5?5?5?5?5?5?5?5?5?5?5?5?5?5VmlOperation?4Crea@ 100af0cc     tzwebgl2.obj
 0003:0000f10c       ??_C@_0BO@FEC@?5?5?5?5?5?5?5?5?5?5?5?5if?5?$CI?5webMapping?5?$CJ?$AA@ 100af10c     tzwebgl2.obj
 0003:0000f130       ??_C@_0BM@JLDG@?5?5?5?5?5?5?5?5?5?5?5?5strMapValue?5?$DN?5?$FO?$AA@ 100af130     tzwebgl2.obj
 0003:0000f154       ??_C@_0DM@IMD@?5?5?5?5?5?5?5?5?5if?5?$CIstrMapValue?5?$DN?$DN?5null@ 100af154     tzwebgl2.obj
 0003:0000f19c       ??_C@_0EN@CMBF@?5?5?5?5?5?5?5?5?5?1?1?5If?5the?5checkbox?5is?5n@ 100af19c     tzwebgl2.obj
 0003:0000f1f8       ??_C@_07MGL@CtrlBOI?$AA@   100af1f8     tzwebgl2.obj
 0003:0000f204       ??_C@_0CK@DPKO@?5?5?5?5?5?5if?5?$CI?5nRC?5?$DO?$DN?50?5?$CJ?5?1?1?5CursorR@ 100af204     tzwebgl2.obj
 0003:0000f238       ??_C@_0BM@ODPL@?5?5?5?5?5?5csrRC?5?$DN?5vRepeatingGrp?$AA@ 100af238     tzwebgl2.obj
 0003:0000f25c       ??_C@_05MMPM@?5?$DN?50?$DL?$AA@ 100af25c     tzwebgl2.obj
 0003:0000f264       ??_C@_0BJ@IFBJ@?5?5?5?5?5?5View?5vRepeatingGrp?$AA@ 100af264     tzwebgl2.obj
 0003:0000f284       ??_C@_0BJ@GHCP@?5?$CL?5?$FO?3?3?$FO?5?$CL?5strEntityKeyRG?$AA@ 100af284     tzwebgl2.obj
 0003:0000f2a4       ??_C@_0O@LNEN@vRepeatingGrp?$AA@ 100af2a4     tzwebgl2.obj
 0003:0000f2b4       ??_C@_0BH@OFPM@?5?5?5?5?5?5?5?5?5fis?4close?$CI?5?$CJ?$DL?$AA@ 100af2b4     tzwebgl2.obj
 0003:0000f2d0       ??_C@_0EP@JHEL@?5?5?5?5?5?5?5?5?5?5?5?5?5?5?5task?4log?$CI?5?$CJ?4info?$CI@ 100af2d0     tzwebgl2.obj
 0003:0000f330       ??_C@_0DN@MILE@?5?5?5?5?5?5?5?5?5?5?5?5if?5?$CI?5InputFile?5?$CB?$DN?5nu@ 100af330     tzwebgl2.obj
 0003:0000f37c       ??_C@_0CA@DGBH@?5?5?5?5?5?5?5?5?5?5?5?5outStream?4close?$CI?5?$CJ?$DL?$AA@ 100af37c     tzwebgl2.obj
 0003:0000f3a4       ??_C@_0CA@BMDJ@?5?5?5?5?5?5?5?5?5?5?5?5outStream?4flush?$CI?5?$CJ?$DL?$AA@ 100af3a4     tzwebgl2.obj
 0003:0000f3cc       ??_C@_0CF@OLLG@?5?5?5?5?5?5?5?5?5?5?5?5?5?5?5outStream?4write?$CI?5@ 100af3cc     tzwebgl2.obj
 0003:0000f3f8       ??_C@_0CM@PCGG@?5?5?5?5?5?5?5?5?5?5?5?5while?5?$CI?5?$CIc?$DNfis?4read?$CI@ 100af3f8     tzwebgl2.obj
 0003:0000f42c       ??_C@_0EJ@HDH@?5?5?5?5?5?5?5?5?5?5?5?5ServletOutputStream?5@ 100af42c     tzwebgl2.obj
 0003:0000f484       ??_C@_0GO@BLCI@?5?5?5?5?5?5?5?5?5?5?5?5response?4setHeader?$CI?5@ 100af484     tzwebgl2.obj
 0003:0000f508       ??_C@_0FP@NGEL@?5?5?5?5?5?5?5?5?5?5?5?5task?4log?$CI?5?$CJ?4info?$CI?5?$FOD@ 100af508     tzwebgl2.obj
 0003:0000f57c       ??_C@_0EB@INCL@?5?5?5?5?5?5?5?5?5FileInputStream?5fis?5?$DN?5n@ 100af57c     tzwebgl2.obj
 0003:0000f5cc       ??_C@_0DF@BACO@?5?5?5?5?5?5?5?5?5File?5InputFile?5?$DN?5new?5Fi@ 100af5cc     tzwebgl2.obj
 0003:0000f60c       ??_C@_0EB@MJHK@?5?5?5?5?5?5?5?5?5sSourceFileNameOnly?5?$DN?5s@ 100af60c     tzwebgl2.obj
 0003:0000f65c       ??_C@_0DJ@BNC@?5?5?5?5?5?5?5?5?5?5?5?5sExtension?5?$DN?5sDownlo@ 100af65c     tzwebgl2.obj
 0003:0000f6a0       ??_C@_0DA@DING@?5?5?5?5?5?5?5?5?5x?5?$DN?5sDownloadFile?4lastI@ 100af6a0     tzwebgl2.obj
 0003:0000f6dc       ??_C@_0CP@FIF@?5?5?5?5?5?5?5?5?5l?5?$DN?5sDownloadFile?4lastI@ 100af6dc     tzwebgl2.obj
 0003:0000f714       ??_C@_0DP@LOEJ@?5?5?5?5?5?5?5?5?5sDownloadFile?5?$DN?5sDownlo@ 100af714     tzwebgl2.obj
 0003:0000f760       ??_C@_0CB@PLEB@?4log?$CI?5?$CJ?4info?$CI?5?$FOInvalid?5View?3?5?$FO?5?$FO@ 100af760     tzwebgl2.obj
 0003:0000f788       ??_C@_0CL@EEBO@?4log?$CI?5?$CJ?4info?$CI?5?$FOEntity?5does?5not?5e@ 100af788     tzwebgl2.obj
 0003:0000f7bc       ??_C@_0EI@GJGE@?5?5?5?5?5?5?5?5?5?5?5?5task?4log?$CI?5?$CJ?4info?$CI?5?$FOD@ 100af7bc     tzwebgl2.obj
 0003:0000f814       ??_C@_0DL@NEIH@?5?5?5?5?5?5task?4log?$CI?5?$CJ?4info?$CI?5?$FOReturn?5@ 100af814     tzwebgl2.obj
 0003:0000f85c       ??_C@_0EN@PJMM@?5?5?5?5?5?5?5?5?5vKZXMLPGO?4cursor?$CI?5?$FOPage@ 100af85c     tzwebgl2.obj
 0003:0000f8b8       ??_C@_0GA@HJLC@?5?5?5?5?5?5?5?5?5strLastPage?5?$DN?5vKZXMLPGO@ 100af8b8     tzwebgl2.obj
 0003:0000f92c       ??_C@_0EO@DBJO@?5?5?5?5?5?5nRC?5?$DN?5vKZXMLPGO?4cursor?$CI?5?$FOP@ 100af92c     tzwebgl2.obj
 0003:0000f98c       ??_C@_0EF@MCHK@?5?5?5?5?5?5vKZXMLPGO?4cursor?$CI?5?$FOPagePat@ 100af98c     tzwebgl2.obj
 0003:0000f9e0       ??_C@_0EK@PBMA@?5?5?5?5?5?5vKZXMLPGO?4cursor?$CI?5?$FOPagePat@ 100af9e0     tzwebgl2.obj
 0003:0000fa38       ??_C@_0EA@BGHA@?5?5?5?5?5?5task?4log?$CI?5?$CJ?4info?$CI?5?$FONext?5Wi@ 100afa38     tzwebgl2.obj
 0003:0000fa84       ??_C@_0BO@GBIA@?5?5?5?5?5?5task?4setName?$CI?5strURL?5?$CJ?$DL?$AA@ 100afa84     tzwebgl2.obj
 0003:0000faa8       ??_C@_0DA@GMPO@?5?5?5?5?5?5cursor?4createTemporalSubob@ 100afaa8     tzwebgl2.obj
 0003:0000fae4       ??_C@_0CG@JCIG@?5?5?5?5?5?5cursor?4createTemporalEntit@ 100afae4     tzwebgl2.obj
 0003:0000fb14       ??_C@_0BE@BKMB@?5?5?5?5?5?5?5?5?5?5?5nRC?5?$DN?50?$DL?$AA@ 100afb14     tzwebgl2.obj
 0003:0000fb2c       ??_C@_0CG@NFPK@?5?5?5?5?5?5?5?5?5?5?5cursor?4cancelSubobjec@ 100afb2c     tzwebgl2.obj
 0003:0000fb5c       ??_C@_0CG@KGKH@?5?5?5?5?5?5?5?5?5?5?5cursor?4acceptSubobjec@ 100afb5c     tzwebgl2.obj
 0003:0000fb8c       ??_C@_0CG@KOLO@?5?5?5?5?5?5?5?5?5if?5?$CI?5cursor?4isVersioned@ 100afb8c     tzwebgl2.obj
 0003:0000fbbc       ??_C@_0BN@KAKK@?5?5?5?5?5?5if?5?$CI?5cursor?4isNull?$CI?$CJ?5?$CJ?$AA@ 100afbbc     tzwebgl2.obj
 0003:0000fbe0       ??_C@_0BN@IMIO@?5?5?5?5?5?5EntityCursor?5cursor?5?$DN?5?$AA@ 100afbe0     tzwebgl2.obj
 0003:0000fc04       ??_C@_0BJ@OEBI@?5?$DN?5task?4getViewByName?$CI?5?$FO?$AA@ 100afc04     tzwebgl2.obj
 0003:0000fc24       ??_C@_0BB@FDBK@ActMapLOD_Entity?$AA@ 100afc24     tzwebgl2.obj
 0003:0000fc38       ??_C@_0L@KOHE@ActMapView?$AA@ 100afc38     tzwebgl2.obj
 0003:0000fc48       ??_C@_0CF@BDGJ@?5?5?5?5?5?5?1?1?5Action?5Auto?5Object?5Func@ 100afc48     tzwebgl2.obj
 0003:0000fc74       ??_C@_0N@FLMK@SB_SubAction?$AA@ 100afc74     tzwebgl2.obj
 0003:0000fc84       ??_C@_0BJ@FAGM@?5?5?5?5?5?5strNextJSP_Name?5?$DN?5?$AA@ 100afc84     tzwebgl2.obj
 0003:0000fca4       ??_C@_0EL@KCOA@?5?5?5?5?5?5?5?5?5?5?5?5vKZXMLPGO?4cursor?$CI?5?$FOP@ 100afca4     tzwebgl2.obj
 0003:0000fd00       ??_C@_0FA@MFKB@?5?5?5?5?5?5?5?5?5?5?5?5vKZXMLPGO?4cursor?$CI?5?$FOP@ 100afd00     tzwebgl2.obj
 0003:0000fd60       ??_C@_0GD@LHGN@?5?5?5?5?5?5?5?5?5if?5?$CI?5strFunctionCall?5?$CB?$DN@ 100afd60     tzwebgl2.obj
 0003:0000fdd8       ??_C@_0GP@KGGB@?5?5?5?5?5?5?5?5?5?5?5?5strFunctionCall?5?$DN?5vK@ 100afdd8     tzwebgl2.obj
 0003:0000fe60       ??_C@_0FJ@BCOD@?5?5?5?5?5?5?5?5?5nRC?5?$DN?5vKZXMLPGO?4cursor?$CI@ 100afe60     tzwebgl2.obj
 0003:0000fecc       ??_C@_0ED@OJNC@?5?5?5?5?5?5?5?5?5task?4log?$CI?5?$CJ?4info?$CI?5?$FONext@ 100afecc     tzwebgl2.obj
 0003:0000ff1c       ??_C@_0FF@BCIH@?5?5?5?5?5?5?5?5?5vKZXMLPGO?4cursor?$CI?5?$FONext@ 100aff1c     tzwebgl2.obj
 0003:0000ff84       ??_C@_0GI@JPJH@?5?5?5?5?5?5?5?5?5strWindowName?5?$DN?5vKZXMLP@ 100aff84     tzwebgl2.obj
 0003:00010000       ??_C@_0GI@PJO@?5?5?5?5?5?5?5?5?5strDialogName?5?$DN?5vKZXMLP@ 100b0000     tzwebgl2.obj
 0003:0001007c       ??_C@_0FG@ODPP@?5?5?5?5?5?5nRC?5?$DN?5vKZXMLPGO?4cursor?$CI?5?$FON@ 100b007c     tzwebgl2.obj
 0003:000100e4       ??_C@_0CB@PHAG@?5?5?5?5?5?5?5?5?5out?4println?$CI?5?$FOerror?$FO?5?$CJ?$DL@ 100b00e4     tzwebgl2.obj
 0003:0001010c       ??_C@_0BN@MEED@?5?5?5?5?5?5?5?5?5Thread?4sleep?$CI5000?$CJ?$DL?$AA@ 100b010c     tzwebgl2.obj
 0003:00010130       ??_C@_0BN@BKPA@?5?5?5?5?5?5?1?1?5Next?5Window?5unknown?$AA@ 100b0130     tzwebgl2.obj
 0003:00010154       ??_C@_0EA@DCNO@?5?5?5?5?5?5?5?5?5task?4TraceLine?$CI?5?$FONext?5W@ 100b0154     tzwebgl2.obj
 0003:000101a0       ??_C@_0DO@MJMO@?5?5?5?5?5?5strURL?5?$DN?5response?4encodeRe@ 100b01a0     tzwebgl2.obj
 0003:000101ec       ??_C@_0CA@PADP@?4SetWebRedirection?$CI?5vKZXMLPGO?0?5?$AA@ 100b01ec     tzwebgl2.obj
 0003:00010214       ??_C@_0BI@PPIN@?5?5?5?5?5?5?5?5?5?1?1?5Next?5Window?$AA@ 100b0214     tzwebgl2.obj
 0003:00010230       ??_C@_0CK@KIOB@?5?5?5?5?5?5if?5?$CI?5strNextJSP_Name?4equal@ 100b0230     tzwebgl2.obj
 0003:00010264       ??_C@_0P@JBMK@Post?5Operation?$AA@ 100b0264     tzwebgl2.obj
 0003:00010278       ??_C@_0CB@FMDE@?4GetWebRedirection?$CI?5vKZXMLPGO?5?$CJ?$DL@ 100b0278     tzwebgl2.obj
 0003:000102a0       ??_C@_0BM@HOEJ@?5?5?5?5?5?5?5?5?5strNextJSP_Name?5?$DN?5?$AA@ 100b02a0     tzwebgl2.obj
 0003:000102c4       ??_C@_0CA@KCHB@?5?5?5?5?5?5?5?5?5?1?1?5Dynamic?5Next?5Window?$AA@ 100b02c4     tzwebgl2.obj
 0003:000102ec       ??_C@_0BJ@JHON@?5?5?5?5?5?5if?5?$CI?5nOptRC?5?$DN?$DN?51?5?$CJ?$AA@ 100b02ec     tzwebgl2.obj
 0003:0001030c       ??_C@_0CJ@JGI@?5?5?5?5?5?5?5?5?5task?4log?$CI?$CJ?4info?$CI?5strVML@ 100b030c     tzwebgl2.obj
 0003:00010340       ??_C@_0BG@CHHP@?3?5?$FO?5?$CL?5e?4getMessage?$CI?$CJ?$DL?$AA@ 100b0340     tzwebgl2.obj
 0003:0001035c       ??_C@_08IBJF@?4jsp?$FO?0?5?$FO?$AA@ 100b035c     tzwebgl2.obj
 0003:00010368       ??_C@_0DM@FDHE@?5?5?5?5?5?5VmlOperation?4SetZeidonSess@ 100b0368     tzwebgl2.obj
 0003:000103b0       ??_C@_0O@GHMK@Pre?9Operation?$AA@ 100b03b0     tzwebgl2.obj
 0003:000103c0       ??_C@_06CAJO@?5?5?$FO?5?$CJ?$DL?$AA@ 100b03c0     tzwebgl2.obj
 0003:000103c8       ??_C@_0CP@LGJF@?5?5?5?5?5?5task?4log?$CI?5?$CJ?4info?$CI?5?$FOCallDia@ 100b03c8     tzwebgl2.obj
 0003:00010400       ??_C@_0CJ@IIIN@?5?5?5?5?5?5?5?5?5task?4log?$CI?5?$CJ?4info?$CI?5?$FODid?5@ 100b0400     tzwebgl2.obj
 0003:00010434       ??_C@_0CB@HACK@?5?5?5?5?5?5?5?5?5?5?5?5?$HN?5?1?1?5Repeating?5group@ 100b0434     tzwebgl2.obj
 0003:0001045c       ??_C@_0CB@KPCM@?5?5?5?5?5?5?5?5?5?5?5?5?5?5?5?5?5?5csrRCRptGrp?5?$DN?5@ 100b045c     tzwebgl2.obj
 0003:00010484       ??_C@_0BO@LHKN@?5?5?5?5?5?5?5?5?5?5?5?5?5?5?5if?5?$CI?5?$CBbFound?5?$CJ?$AA@ 100b0484     tzwebgl2.obj
 0003:000104a8       ??_C@_0BG@EKO@?5?5?5?5?5?5?5?5?5?5?5?5?$HN?5?1?1?5Grid?$AA@ 100b04a8     tzwebgl2.obj
 0003:000104c4       ??_C@_0BM@JMEI@?5?5?5?5?5?5?5?5?5?5?5?5?5?5?5?5?5?5csrRCk?5?$DN?5?$AA@ 100b04c4     tzwebgl2.obj
 0003:000104e8       ??_C@_0CB@FICH@?5?5?5?5?5?5?5?5?5?5?5?5?5?5?5?5?5?5bFound?5?$DN?5true?$DL@ 100b04e8     tzwebgl2.obj
 0003:00010510       ??_C@_0EB@FKAL@?5?5?5?5?5?5?5?5?5?5?5?5?5?5?5if?5?$CI?5StringUtils?4@ 100b0510     tzwebgl2.obj
 0003:00010560       ??_C@_0DA@DBCN@?5?5?5?5?5?5?5?5?5?5?5?5?5?5?5strKey?5?$DN?5Long?4toS@ 100b0560     tzwebgl2.obj
 0003:0001059c       ??_C@_0DA@KGMK@?5?5?5?5?5?5?5?5?5?5?5?5while?5?$CI?5csrRCk?4isSet@ 100b059c     tzwebgl2.obj
 0003:000105d8       ??_C@_0P@KGFF@?$FO?5?$CJ?4setFirst?$CI?$FO?$AA@ 100b05d8     tzwebgl2.obj
 0003:000105ec       ??_C@_0BG@MHEM@?5?5?5?5?5?5?5?5?5?5?5?5csrRCk?5?$DN?5?$AA@ 100b05ec     tzwebgl2.obj
 0003:00010608       ??_C@_0DF@OINI@?5?5?5?5?5?5?5?5?5?5?5?5while?5?$CI?5csrRCRptGrp?4@ 100b0608     tzwebgl2.obj
 0003:00010648       ??_C@_0BB@EFKA@?$FO?5?$CJ?4setFirst?$CI?5?$CJ?$DL?$AA@ 100b0648     tzwebgl2.obj
 0003:0001065c       ??_C@_0BL@FGIP@?5?5?5?5?5?5?5?5?5?5?5?5csrRCRptGrp?5?$DN?5?$AA@ 100b065c     tzwebgl2.obj
 0003:0001067c       ??_C@_0CN@LPCE@?5?5?5?5?5?5?5?5?5?5?5?5CursorResult?5csrRCRp@ 100b067c     tzwebgl2.obj
 0003:000106b4       ??_C@_0CE@OJLJ@?5?5?5?5?5?5?5?5?5?5?5?5boolean?5bFound?5?$DN?5fal@ 100b06b4     tzwebgl2.obj
 0003:000106e0       ??_C@_0BP@HJAM@?5?5?5?5?5?5?5?5?5if?5?$CI?5?$CBcsrRC?4isSet?$CI?$CJ?5?$CJ?$AA@ 100b06e0     tzwebgl2.obj
 0003:00010708       ??_C@_0BN@LKHH@?$FO?5?$CJ?4setByEntityKey?$CI?5lEKey?5?$CJ?$DL?$AA@ 100b0708     tzwebgl2.obj
 0003:0001072c       ??_C@_0DL@OLOD@?5?5?5?5?5?5?5?5?5lEKey?5?$DN?5java?4lang?4Long?4@ 100b072c     tzwebgl2.obj
 0003:00010774       ??_C@_0BP@FJME@?5View?5Key?3?5?$FO?5?$CL?5strEntityKey?5?$CJ?$DL?$AA@ 100b0774     tzwebgl2.obj
 0003:0001079c       ??_C@_0CB@COD@?5?5?5?5?5?5?5?5?5task?4log?$CI?5?$CJ?4info?$CI?5?$FOGot?5@ 100b079c     tzwebgl2.obj
 0003:000107c4       ??_C@_0BC@DAOI@ParentIsGridOrGrp?$AA@ 100b07c4     tzwebgl2.obj
 0003:000107dc       ??_C@_0DC@JFN@?5?5?5?5?5?5?5?5?5task?4log?$CI?5?$CJ?4info?$CI?5?$FOreCA@ 100b07dc     tzwebgl2.obj
 0003:00010818       ??_C@_0CA@LHNN@?5?5?5?5?5?5if?5?$CIresponse2?4isValid?$CI?5?$CJ?$CJ?$AA@ 100b0818     tzwebgl2.obj
 0003:00010840       ??_C@_0LO@DBFC@?5?5?5?5?5?5ReCaptchaResponse?5response@ 100b0840     tzwebgl2.obj
 0003:00010924       ??_C@_0DL@FHIN@?5?5?5?5?5?5ReCaptcha?5captcha?5?$DN?5ReCapt@ 100b0924     tzwebgl2.obj
 0003:0001096c       ??_C@_0EE@GFPL@?5?5?5?5?5?5nRC?5?$DN?5DoInputMapping?$CI?5requ@ 100b096c     tzwebgl2.obj
 0003:000109c0       ??_C@_0CO@OAIM@?5?5?5?1?1?5END?5of?5Javascript?5code?5ent@ 100b09c0     tzwebgl2.obj
 0003:000109f8       ??_C@_0CH@OGFK@?5?5?5?1?1?5Javascript?5code?5entered?5by@ 100b09f8     tzwebgl2.obj
 0003:00010a28       ??_C@_0BG@IMCH@?5?5?5?5?5?5?5?5?5?5?5?5?5?5?5break?$DL?$AA@ 100b0a28     tzwebgl2.obj
 0003:00010a44       ??_C@_0CH@MEDO@?$FO?0?5e?4getReason?$CI?5?$CJ?0?5strInputFileN@ 100b0a44     tzwebgl2.obj
 0003:00010a74       ??_C@_0DH@FGMP@?5?5?5?5?5?5?5?5?5?5?5?5?5?5?5nRC?5?$DN?52?$DL?5?5?1?1?5do?5t@ 100b0a74     tzwebgl2.obj
 0003:00010ab8       ??_C@_0DA@FOEM@?5?5?5?5?5?5?5?5?5task?4log?$CI?5?$CJ?4info?$CI?5?$FOInva@ 100b0ab8     tzwebgl2.obj
 0003:00010af4       ??_C@_0DL@DHIL@?$FO?0?5?$FOThis?5file?5is?5too?5large?$CB?$FO?0?5?$FOT@ 100b0af4     tzwebgl2.obj
 0003:00010b3c       ??_C@_0CN@DHED@?5?5?5?5?5?5?5?5?5VmlOperation?4CreateMess@ 100b0b3c     tzwebgl2.obj
 0003:00010b74       ??_C@_0BP@MIOO@?5?5?5?5?5?5task?4dropName?$CI?5strURL?5?$CJ?$DL?$AA@ 100b0b74     tzwebgl2.obj
 0003:00010b9c       ??_C@_0DE@HDJE@?5?5?5?5?5?5strURL?5?$DN?5task?4MakeWebFileN@ 100b0b9c     tzwebgl2.obj
 0003:00010bdc       ??_C@_0BE@NFOL@zWAB_ResetTopWindow?$AA@ 100b0bdc     tzwebgl2.obj
 0003:00010bf4       ??_C@_0BE@KCH@zWAB_StartTopWindow?$AA@ 100b0bf4     tzwebgl2.obj
 0003:00010c0c       ??_C@_0BE@FFMM@zWAB_ReturnToParent?$AA@ 100b0c0c     tzwebgl2.obj
 0003:00010c24       ??_C@_0CC@HDEC@zWAB_ReplaceWindowWithModalWindo@ 100b0c24     tzwebgl2.obj
 0003:00010c4c       ??_C@_0BJ@NJMI@zWAB_StartModalSubwindow?$AA@ 100b0c4c     tzwebgl2.obj
 0003:00010c6c       ??_C@_0BN@MGOA@zWAB_StayOnWindowWithRefresh?$AA@ 100b0c6c     tzwebgl2.obj
 0003:00010c90       ??_C@_0DF@JMLO@?5?5?5?5?5?5?5?5?5session?4setAttribute?$CI?5?$FO@ 100b0c90     tzwebgl2.obj
 0003:00010cd0       ??_C@_0CN@OIJ@?5?5?5?5?5?5?5?5?5task?4log?$CI?$CJ?4error?$CI?5strVM@ 100b0cd0     tzwebgl2.obj
 0003:00010d08       ??_C@_0DD@HODL@?0?5Please?5contact?5the?5helpdesk?3?5?$FO@ 100b0d08     tzwebgl2.obj
 0003:00010d48       ??_C@_0DN@PKBP@?5?5?5?5?5?5?5?5?5strVMLError?5?$DN?5?$FO?$DMbr?$DO?$DMbr?$DO@ 100b0d48     tzwebgl2.obj
 0003:00010d94       ??_C@_0BF@PMDH@?5?5?5?5?5?5?5?5?5nOptRC?5?$DN?52?$DL?$AA@ 100b0d94     tzwebgl2.obj
 0003:00010db0       ??_C@_0CH@BPKN@?5?5?5?5?5?5?5?5?5?1?1?5Set?5the?5error?5return@ 100b0db0     tzwebgl2.obj
 0003:00010de0       ??_C@_0BK@OCMG@?5?5?5?5?5?5catch?5?$CIException?5e?$CJ?$AA@ 100b0de0     tzwebgl2.obj
 0003:00010e00       ??_C@_0BM@HCMI@?$CI?5new?5zVIEW?$CI?5vKZXMLPGO?5?$CJ?5?$CJ?$DL?$AA@ 100b0e00     tzwebgl2.obj
 0003:00010e24       ??_C@_0BD@PLNO@?5?5?5?5?5?5?5?5?5nOptRC?5?$DN?5?$AA@ 100b0e24     tzwebgl2.obj
 0003:00010e3c       ??_C@_09LCLE@?5?5?5?5?5?5try?$AA@ 100b0e3c     tzwebgl2.obj
 0003:00010e48       ??_C@_0BG@EEIK@_Dialog?$CI?5vKZXMLPGO?5?$CJ?$DL?$AA@ 100b0e48     tzwebgl2.obj
 0003:00010e64       ??_C@_07KGFK@?5?$DN?5new?5?$AA@ 100b0e64     tzwebgl2.obj
 0003:00010e70       ??_C@_08ICEO@_Dialog?5?$AA@ 100b0e70     tzwebgl2.obj
 0003:00010e7c       ??_C@_0CI@DPOI@?5?5?5?5?5?5?1?1?5Prebuild?1Postbuild?5Oper@ 100b0e7c     tzwebgl2.obj
 0003:00010eac       ??_C@_05JBFK@?5?5?1?1?5?$AA@ 100b0eac     tzwebgl2.obj
 0003:00010eb4       ??_C@_0M@GOIA@Pre?9Mapping?$AA@ 100b0eb4     tzwebgl2.obj
 0003:00010ec4       ??_C@_0BG@OGCN@WebJavaScriptLocation?$AA@ 100b0ec4     tzwebgl2.obj
 0003:00010ee0       ??_C@_0BJ@ECLJ@?$FO?0?5strActionToProcess?5?$CJ?$DL?$AA@ 100b0ee0     tzwebgl2.obj
 0003:00010f00       ??_C@_0DP@HJLP@?5?5?5?5?5?5VmlOperation?4SetZeidonSess@ 100b0f00     tzwebgl2.obj
 0003:00010f4c       ??_C@_0BE@GJIK@?5?5?5?5?5?5bDone?5?$DN?5true?$DL?$AA@ 100b0f4c     tzwebgl2.obj
 0003:00010f64       ??_C@_0EH@HONJ@?5?5?5while?5?$CI?5bDone?5?$DN?$DN?5false?5?$CG?$CG?5Str@ 100b0f64     tzwebgl2.obj
 0003:00010fbc       ??_C@_0P@EALO@WebRedirection?$AA@ 100b0fbc     tzwebgl2.obj
 0003:00010fd0       ??_C@_01FIMD@?$FN?$AA@     100b0fd0     tzwebgl2.obj
 0003:00010fd4       ??_C@_05JBPC@?$FLApp?4?$AA@ 100b0fd4     tzwebgl2.obj
 0003:00010fdc       ??_C@_04FDFI@LPLR?$AA@     100b0fdc     tzwebgl2.obj
 0003:00010fe4       ??_C@_08HHLD@TaskLPLR?$AA@ 100b0fe4     tzwebgl2.obj
 0003:00010ff0       ??_C@_0CO@IBCH@?$DM?$CF?$EAinclude?5file?$DN?$FO?4?1include?1topme@ 100b0ff0     tzwebgl3.obj
 0003:00011028       ??_C@_0CE@IPAN@?$DM?1div?$DO?5?5?$DM?$CB?9?9?5end?5Navigation?5Bar?5@ 100b1028     tzwebgl3.obj
 0003:00011054       ??_C@_08KCEE@?5?5?5?$DM?1ul?$DO?$AA@ 100b1054     tzwebgl3.obj
 0003:00011060       ??_C@_04FCFJ@?$CI?$CJ?$FO?$DO?$AA@ 100b1060     tzwebgl3.obj
 0003:00011068       ??_C@_0BI@INEA@?$FO?$DO?$DMa?5href?$DN?$FO?$CD?$FO?5onclick?$DN?$FO?$AA@ 100b1068     tzwebgl3.obj
 0003:00011084       ??_C@_09BJH@?$FO?5name?$DN?$FOl?$AA@ 100b1084     tzwebgl3.obj
 0003:00011090       ??_C@_0BB@PKMK@?5?5?5?5?5?5?5?$DMli?5id?$DN?$FOl?$AA@ 100b1090     tzwebgl3.obj
 0003:000110a4       ??_C@_09MDOI@?$DM?1a?$DO?$DM?1li?$DO?$AA@ 100b10a4     tzwebgl3.obj
 0003:000110b0       ??_C@_0BD@GFNO@?$FO?5target?$DN?$FO_blank?$FO?$DO?$AA@ 100b10b0     tzwebgl3.obj
 0003:000110c8       ??_C@_0BF@EFOJ@?5?5?5?5?5?5?5?$DMli?$DO?$DMa?5href?$DN?$FO?$AA@ 100b10c8     tzwebgl3.obj
 0003:000110e4       ??_C@_0BI@ECPM@WebHTML_TransferAddress?$AA@ 100b10e4     tzwebgl3.obj
 0003:00011100       ??_C@_04BBDM@ZKey?$AA@     100b1100     tzwebgl3.obj
 0003:00011108       ??_C@_01KDFD@m?$AA@        100b1108     tzwebgl3.obj
 0003:0001110c       ??_C@_0N@MAAD@NoDialogName?$AA@ 100b110c     tzwebgl3.obj
 0003:0001111c       ??_C@_06OOKN@Option?$AA@   100b111c     tzwebgl3.obj
 0003:00011124       ??_C@_06HLNF@OptAct?$AA@   100b1124     tzwebgl3.obj
 0003:0001112c       ??_C@_04PAPL@Menu?$AA@     100b112c     tzwebgl3.obj
 0003:00011134       ??_C@_07BOKL@?5?5?5?$DMul?$DO?$AA@ 100b1134     tzwebgl3.obj
 0003:00011140       ??_C@_0BK@DBJC@?$DMdiv?5id?$DN?$FOmainnavigation?$FO?$DO?$AA@ 100b1140     tzwebgl3.obj
 0003:00011160       ??_C@_0DB@PJIO@?$DM?$CB?9?9?5Main?5Navigation?5?$CK?$CK?$CK?$CK?$CK?$CK?$CK?$CK?$CK?$CK?$CK@ 100b1160     tzwebgl3.obj
 0003:0001119c       ??_C@_0EI@LPG@?1?1There?5was?5no?5information?5on?5wh@ 100b119c     tzwebgl3.obj
 0003:000111f4       ??_C@_0L@LNMB@?$DMimg?5src?$DN?$FO?$AA@ 100b11f4     tzwebgl3.obj
 0003:00011204       ??_C@_04FAOD@?$CI?$CJ?$FO?5?$AA@ 100b1204     tzwebgl3.obj
 0003:0001120c       ??_C@_0CL@KFFJ@?$DMimg?5src?$DN?$FO?$DM?$CF?$DNstrErrorMapValue?$CF?$DO?$FO@ 100b120c     tzwebgl3.obj
 0003:00011240       ??_C@_0CC@OJBG@?$DMimg?5src?$DN?$FO?$DM?$CF?$DNstrErrorMapValue?$CF?$DO?$FO@ 100b1240     tzwebgl3.obj
 0003:00011268       ??_C@_0L@BACI@?$FO?0?52000?5?$CJ?$DL?$AA@ 100b1268     tzwebgl3.obj
 0003:00011278       ??_C@_05CGGE@?$DM?1td?$DO?$AA@ 100b1278     tzwebgl3.obj
 0003:00011280       ??_C@_09GKAA@?$DMtextarea?$AA@ 100b1280     tzwebgl3.obj
 0003:0001128c       ??_C@_07JLAN@value?$DN?$FO?$AA@ 100b128c     tzwebgl3.obj
 0003:00011298       ??_C@_02JGCK@?$DL?$FO?$AA@ 100b1298     tzwebgl3.obj
 0003:0001129c       ??_C@_0BC@FDB@?$DMtd?5valign?$DN?$FOtop?$FO?5?$AA@ 100b129c     tzwebgl3.obj
 0003:000112b4       ??_C@_0P@EEBL@?$DMtd?$DO?$CGnbsp?$DM?1td?$DO?$AA@ 100b12b4     tzwebgl3.obj
 0003:000112c8       ??_C@_0BF@BFKK@?5class?$DN?$FOgrouptable?$FO?$DO?$AA@ 100b12c8     tzwebgl3.obj
 0003:000112e4       ??_C@_0N@PGED@?$DMtable?5cols?$DN?$AA@ 100b12e4     tzwebgl3.obj
 0003:000112f4       ??_C@_0BF@DDEH@?$FO?5style?$DN?$FOfloat?3left?$DL?$AA@ 100b12f4     tzwebgl3.obj
 0003:00011310       ??_C@_0DF@IDHL@?$FO?5type?$DN?$FOhidden?$FO?5value?$DN?$FO?$DM?$CF?$DNstrCom@ 100b1310     tzwebgl3.obj
 0003:00011350       ??_C@_0L@PMOF@?$FO?5size?$DN?$FO1?$FO?$AA@ 100b1350     tzwebgl3.obj
 0003:00011360       ??_C@_09NEOK@?$DM?1select?$DO?$AA@ 100b1360     tzwebgl3.obj
 0003:0001136c       ??_C@_0FH@OCMJ@?5?5?5?5?5?5?5?5?5?5?5?5?5?5?5?5?5?5?$DMoption?5value?$DN@ 100b136c     tzwebgl3.obj
 0003:000113d4       ??_C@_0GL@BOAN@?5?5?5?5?5?5?5?5?5?5?5?5?5?5?5?5?5?5?$DMoption?5select@ 100b13d4     tzwebgl3.obj
 0003:00011454       ??_C@_0EG@FHOM@?5?5?5?5?5?5?5?5?5?5?5?5?5?5?5if?5?$CI?5strComboCurr@ 100b1454     tzwebgl3.obj
 0003:000114a8       ??_C@_0DD@LLID@?5?5?5?5?5?5?5?5?5?5?5?5if?5?$CI?5strErrorMapValu@ 100b14a8     tzwebgl3.obj
 0003:000114e8       ??_C@_0EE@EGBE@?5?5?5?5?5?5?5?5?5?5?5?5strErrorMapValue?5?$DN?5?$CI@ 100b14e8     tzwebgl3.obj
 0003:0001153c       ??_C@_0CO@GGFB@?5?5?5?5?5?5?5?5?5for?5?$CI?5k?5?$DN?5nFirst?$DL?5k?5?$DM?5n@ 100b153c     tzwebgl3.obj
 0003:00011574       ??_C@_0BF@JOJJ@?5?5?5?5?5?5?5?5?5nFirst?5?$DN?50?$DL?$AA@ 100b1574     tzwebgl3.obj
 0003:00011590       ??_C@_0CH@FEIN@?5?5?5?5?5?5?5?5?5?5?5?5?$DMoption?5value?$DN?$FO?$FO?$DO?$DM?1o@ 100b1590     tzwebgl3.obj
 0003:000115c0       ??_C@_0DL@FMPF@?5?5?5?5?5?5?5?5?5?5?5?5?$DMoption?5selected?$DN?$FOse@ 100b15c0     tzwebgl3.obj
 0003:00011608       ??_C@_0CO@EKEM@?5?5?5?5?5?5if?5?$CI?5ComboVector?4elementAt@ 100b1608     tzwebgl3.obj
 0003:00011640       ??_C@_0FB@HAAE@?5?5?5?5?5?5?1?1?5Code?5for?5NOT?5required?5a@ 100b1640     tzwebgl3.obj
 0003:000116a4       ??_C@_0DO@CNIK@?5?5?5?5?5?5?5?5?5nFirst?5?$DN?5?$CIComboVector?4e@ 100b16a4     tzwebgl3.obj
 0003:000116f0       ??_C@_0EJ@ELPP@?5?5?5?5?5?5?1?1?5Code?5for?5required?5attri@ 100b16f0     tzwebgl3.obj
 0003:00011748       ??_C@_0BK@GNFP@?5?5?5?5?5?5if?5?$CI?5nRowCnt?5?$DO?50?5?$CJ?5?$AA@ 100b1748     tzwebgl3.obj
 0003:00011768       ??_C@_0BC@CIFJ@?5?5?5?5?5?5int?5nFirst?$DL?$AA@ 100b1768     tzwebgl3.obj
 0003:00011780       ??_C@_0N@HPJC@?5?5?5?5?5?5int?5k?$DL?$AA@ 100b1780     tzwebgl3.obj
 0003:00011790       ??_C@_0CL@NLBJ@?5?5?5?5?5?5nRowCnt?5?$DN?5?$CIint?$CJ?5ComboVecto@ 100b1790     tzwebgl3.obj
 0003:000117c4       ??_C@_0BF@IKCJ@?5?5?5?5?5?5ComboVector?5?$DN?5?$AA@ 100b17c4     tzwebgl3.obj
 0003:000117e0       ??_C@_09HCBK@?$FO?0?5254?5?$CJ?$DL?$AA@ 100b17e0     tzwebgl3.obj
 0003:000117ec       ??_C@_0CB@GJII@?5?5?5?5?5?5?5?5?5strComboCurrentValue?5?$DN?5@ 100b17ec     tzwebgl3.obj
 0003:00011814       ??_C@_0BK@JHLN@?5?5?5?5?5?5Vector?5ComboVector?$DL?$AA@ 100b1814     tzwebgl3.obj
 0003:00011834       ??_C@_0BJ@BEJI@?5?5?5?5?5?5int?5?5?5?5nRowCnt?$DN?50?$DL?$AA@ 100b1834     tzwebgl3.obj
 0003:00011854       ??_C@_04BDNB@?$CI?5?$CJ?$FO?$AA@ 100b1854     tzwebgl3.obj
 0003:0001185c       ??_C@_0M@HMBM@?$FO?5size?$DN?$FO1?$FO?5?$AA@ 100b185c     tzwebgl3.obj
 0003:0001186c       ??_C@_0BM@EELO@?$FO?5type?$DN?$FOhidden?$FO?5value?$DN?$FO0?$FO?5?$DO?$AA@ 100b186c     tzwebgl3.obj
 0003:00011890       ??_C@_0BO@MAGE@?$DM?$CF?5strErrorMapValue?5?$DN?5?$FO?$FO?$DL?5?5?$CF?$DO?$AA@ 100b1890     tzwebgl3.obj
 0003:000118b4       ??_C@_02GJDO@20?$AA@       100b18b4     tzwebgl3.obj
 0003:000118b8       ??_C@_0P@LCIJ@?$DMinput?5class?$DN?$FO?$AA@ 100b18b8     tzwebgl3.obj
 0003:000118cc       ??_C@_02IFAI@?5?$DO?$AA@   100b18cc     tzwebgl3.obj
 0003:000118d0       ??_C@_0BO@LHLI@value?$DN?$FO?$DM?$CF?$DNstrErrorMapValue?$CF?$DO?$FO?$AA@ 100b18d0     tzwebgl3.obj
 0003:000118f4       ??_C@_08GPOB@value?$DN?$FO?$FO?$AA@ 100b18f4     tzwebgl3.obj
 0003:00011900       ??_C@_0CH@JNPI@?5onKeyPress?$DN?$FOreturn?5_OnEnter?$CI?5ev@ 100b1900     tzwebgl3.obj
 0003:00011930       ??_C@_0L@NJOD@DfltButton?$AA@ 100b1930     tzwebgl3.obj
 0003:00011940       ??_C@_0L@NPBA@?5onclick?$DN?$FO?$AA@ 100b1940     tzwebgl3.obj
 0003:00011950       ??_C@_0L@FMGA@?5onkeyup?$DN?$FO?$AA@ 100b1950     tzwebgl3.obj
 0003:00011960       ??_C@_0N@BIJF@?5onkeydown?$DN?$FO?$AA@ 100b1960     tzwebgl3.obj
 0003:00011970       ??_C@_0M@KEMN@?5onchange?$DN?$FO?$AA@ 100b1970     tzwebgl3.obj
 0003:00011980       ??_C@_09NJNO@?5onblur?$DN?$FO?$AA@ 100b1980     tzwebgl3.obj
 0003:0001198c       ??_C@_0L@IPEB@?5onfocus?$DN?$FO?$AA@ 100b198c     tzwebgl3.obj
 0003:0001199c       ??_C@_0O@HAFH@?5type?$DN?$FOtext?$FO?5?$AA@ 100b199c     tzwebgl3.obj
 0003:000119ac       ??_C@_0BC@LBJC@?5type?$DN?$FOpassword?$FO?5?$AA@ 100b19ac     tzwebgl3.obj
 0003:000119c4       ??_C@_0BA@PMDM@?5type?$DN?$FOhidden?$FO?5?$AA@ 100b19c4     tzwebgl3.obj
 0003:000119d8       ??_C@_0BH@KGOL@?$FO?0?5strErrorMapValue?$CJ?$DL?5?$AA@ 100b19d8     tzwebgl3.obj
 0003:000119f4       ??_C@_0CD@CHMO@?5?5?5?5?5?5?5?5?5?5?5?5session?4setAttribute@ 100b19f4     tzwebgl3.obj
 0003:00011a20       ??_C@_0BJ@JKAI@?3?5?$FO?0?5strErrorMapValue?5?$CJ?$DL?$AA@ 100b1a20     tzwebgl3.obj
 0003:00011a40       ??_C@_0O@MHJ@?4TraceLine?$CI?5?$FO?$AA@ 100b1a40     tzwebgl3.obj
 0003:00011a50       ??_C@_0CA@NCCD@?5?5?5?5?5?5?5?5?5?5?5?5strErrorMapValue?5?$DN?5?$AA@ 100b1a50     tzwebgl3.obj
 0003:00011a78       ??_C@_0BK@IMEN@?5?5?5?5?5?5strErrorColor?5?$DN?5?$FO?$FO?$DL?$AA@ 100b1a78     tzwebgl3.obj
 0003:00011a98       ??_C@_0CE@LNIP@?5?5?5?5?5?5strErrorColor?5?$DN?5?$FOcolor?3red@ 100b1a98     tzwebgl3.obj
 0003:00011ac4       ??_C@_0BE@LBEC@?$FO?0?5strErrorTitle?5?$CJ?$DL?$AA@ 100b1ac4     tzwebgl3.obj
 0003:00011adc       ??_C@_0DO@JMHL@?5?5?5strErrorMapValue?5?$DN?5vAppSubtas@ 100b1adc     tzwebgl3.obj
 0003:00011b28       ??_C@_0BC@JEFM@No?5Output?5Mapping?$AA@ 100b1b28     tzwebgl3.obj
 0003:00011b40       ??_C@_0BI@GMLC@Create?5Session?5Variable?$AA@ 100b1b40     tzwebgl3.obj
 0003:00011b5c       ??_C@_0BD@MELD@?$DM?$CF?$DNstrErrorColor?$CF?$DO?$AA@ 100b1b5c     tzwebgl3.obj
 0003:00011b74       ??_C@_06CLHA@?$DMspan?5?$AA@ 100b1b74     tzwebgl3.obj
 0003:00011b7c       ??_C@_06OGDM@?$CGnbsp?5?$AA@ 100b1b7c     tzwebgl3.obj
 0003:00011b84       ??_C@_05HNEJ@?$CI?5?$CJ?$FO?$DO?$AA@ 100b1b84     tzwebgl3.obj
 0003:00011b8c       ??_C@_0BJ@BLLI@?$FO?5?$DM?$CF?$DNstrErrorMapValue?$CF?$DO?5?$AA@ 100b1b8c     tzwebgl3.obj
 0003:00011bac       ??_C@_08JONP@?5value?$DN?$FO?$AA@ 100b1bac     tzwebgl3.obj
 0003:00011bb8       ??_C@_0BO@ICPN@?$DMinput?5type?$DN?$FOcheckbox?$FO?5name?$DN?$FO?$AA@ 100b1bb8     tzwebgl3.obj
 0003:00011bdc       ??_C@_0DA@PKHB@?5?5?5?5?5?5strErrorMapValue?5?$DN?5?$FOchecke@ 100b1bdc     tzwebgl3.obj
 0003:00011c18       ??_C@_0CF@FIIN@?5?5?5if?5?$CI?5strRadioGroupValue?4equal@ 100b1c18     tzwebgl3.obj
 0003:00011c44       ??_C@_0BM@EMDJ@?$DM?$CF?5?5?5strErrorMapValue?5?$DN?5?$FO?$FO?$DL?$AA@ 100b1c44     tzwebgl3.obj
 0003:00011c68       ??_C@_0M@NMLK@?5?5?5?$DM?1table?$DO?$AA@ 100b1c68     tzwebgl3.obj
 0003:00011c78       ??_C@_0DD@ILMA@?5?5?5?5?5?5?$DMtd?5nowrap?5style?$DN?$FOborder?30@ 100b1c78     tzwebgl3.obj
 0003:00011cb8       ??_C@_0N@KON@?$DM?1span?$DO?$DM?1td?$DO?$AA@ 100b1cb8     tzwebgl3.obj
 0003:00011cc8       ??_C@_0CM@JGIK@?5?5?5?5?5?5?$DMtd?5nowrap?5style?$DN?$FOborder?30@ 100b1cc8     tzwebgl3.obj
 0003:00011cfc       ??_C@_07MKBH@?5?$DO?$DM?1td?$DO?$AA@ 100b1cfc     tzwebgl3.obj
 0003:00011d08       ??_C@_0N@GMNJ@?$CI?5?$CJ?$FO?5?5?$DO?$DM?1td?$DO?$AA@ 100b1d08     tzwebgl3.obj
 0003:00011d18       ??_C@_0EE@BIPP@?5?5?5?5?5?5?$DMtd?5style?$DN?$FOwidth?315px?$DLbord@ 100b1d18     tzwebgl3.obj
 0003:00011d6c       ??_C@_0DK@PDKO@?5?5?5?5?5?5?$DMtd?5nowrap?5style?$DN?$FOborder?30@ 100b1d6c     tzwebgl3.obj
 0003:00011db4       ??_C@_08FIFA@?5?5?5?$DM?1tr?$DO?$AA@ 100b1db4     tzwebgl3.obj
 0003:00011dc0       ??_C@_0DE@BFJB@?5?5?5?5?5?5strErrorMapValue?5?$DN?5?$FOchecke@ 100b1dc0     tzwebgl3.obj
 0003:00011e00       ??_C@_0BL@NKOJ@?5?5?5?$DMtr?5style?$DN?$FOborder?30px?$FO?$DO?$AA@ 100b1e00     tzwebgl3.obj
 0003:00011e20       ??_C@_09MGCJ@?$FO?5id?$DNtbl?$FO?$AA@ 100b1e20     tzwebgl3.obj
 0003:00011e2c       ??_C@_0DF@PGMM@?5?5?5?$DMtable?5style?$DN?$FOmargin?30px?$DLpadd@ 100b1e2c     tzwebgl3.obj
 0003:00011e6c       ??_C@_08KKFA@?$DM?1label?$DO?$AA@ 100b1e6c     tzwebgl3.obj
 0003:00011e78       ??_C@_07NEPL@?$DMlabel?5?$AA@ 100b1e78     tzwebgl3.obj
 0003:00011e84       ??_C@_05KBP@Label?$AA@     100b1e84     tzwebgl3.obj
 0003:00011e8c       ??_C@_06ONFJ@?$CI?5?$CJ?$DL?$FO?5?$AA@ 100b1e8c     tzwebgl3.obj
 0003:00011e94       ??_C@_0BG@OAKJ@?$DMa?5href?$DN?$FO?$CD?$FO?5onclick?$DN?$FO?$AA@ 100b1e94     tzwebgl3.obj
 0003:00011eb0       ??_C@_03FPLA@?$FO?5?5?$AA@ 100b1eb0     tzwebgl3.obj
 0003:00011eb4       ??_C@_09FIOG@?$DMa?5href?$DN?$FO?$AA@ 100b1eb4     tzwebgl3.obj
 0003:00011ec0       ??_C@_0FA@OMOE@A?5Hyperlink?5Action?5without?5URL?5m@ 100b1ec0     tzwebgl3.obj
 0003:00011f20       ??_C@_04BFLN@?$DM?1a?$DO?$AA@ 100b1f20     tzwebgl3.obj
 0003:00011f28       ??_C@_0BC@JEAN@?5target?$DN?$FO_blank?$FO?$DO?$AA@ 100b1f28     tzwebgl3.obj
 0003:00011f40       ??_C@_0CC@ENCG@?$DMa?5href?$DN?$FO?$DM?$CF?$DNstrTextURL_Value?$CF?$DO?$FO?5@ 100b1f40     tzwebgl3.obj
 0003:00011f68       ??_C@_0BN@IMGE@?5?5?5?5?5?5?5?5?5strTextURL_Value?5?$DN?5?$AA@ 100b1f68     tzwebgl3.obj
 0003:00011f8c       ??_C@_0BK@HMBJ@?$DM?$CF?5strTextURL_Value?5?$DN?5?$FO?$FO?$DL?$AA@ 100b1f8c     tzwebgl3.obj
 0003:00011fac       ??_C@_0BJ@EDLJ@?$DM?$CF?$DNstrTextDisplayValue?$CF?$DO?$AA@ 100b1fac     tzwebgl3.obj
 0003:00011fcc       ??_C@_08NKK@?$FO?0?520?5?$CJ?$DL?$AA@ 100b1fcc     tzwebgl3.obj
 0003:00011fd8       ??_C@_0CA@OCEN@?5?5?5?5?5?5?5?5?5strTextDisplayValue?5?$DN?5?$AA@ 100b1fd8     tzwebgl3.obj
 0003:00012000       ??_C@_01PJM@D?$AA@         100b2000     tzwebgl3.obj
 0003:00012004       ??_C@_08FNON@DataType?$AA@ 100b2004     tzwebgl3.obj
 0003:00012010       ??_C@_01KGOM@T?$AA@        100b2010     tzwebgl3.obj
 0003:00012014       ??_C@_0BN@KLGF@?$DM?$CF?5strTextDisplayValue?5?$DN?5?$FO?$FO?$DL?$AA@ 100b2014     tzwebgl3.obj
 0003:00012038       ??_C@_0BL@JJHB@style?$DN?$FOposition?3relative?$DL?$FO?$AA@ 100b2038     tzwebgl3.obj
 0003:00012058       ??_C@_0BO@KCCP@text?9decoration?3line?9through?$DL?$AA@ 100b2058     tzwebgl3.obj
 0003:0001207c       ??_C@_0BL@BCAJ@text?9decoration?3underline?$DL?$AA@ 100b207c     tzwebgl3.obj
 0003:0001209c       ??_C@_0CI@FJGJ@text?9decoration?3underline?5line?9t@ 100b209c     tzwebgl3.obj
 0003:000120cc       ??_C@_0BC@HAJL@text?9align?3right?$DL?$AA@ 100b20cc     tzwebgl3.obj
 0003:000120e4       ??_C@_0BD@FBHO@text?9align?3center?$DL?$AA@ 100b20e4     tzwebgl3.obj
 0003:000120fc       ??_C@_0BC@JEMH@font?9weight?3bold?$DL?$AA@ 100b20fc     tzwebgl3.obj
 0003:00012114       ??_C@_0BD@PPFN@font?9style?3italic?$DL?$AA@ 100b2114     tzwebgl3.obj
 0003:0001212c       ??_C@_0M@GGFA@?$FO?5size?$DN?$FO4?$FO?5?$AA@ 100b212c     tzwebgl3.obj
 0003:0001213c       ??_C@_0O@ECH@?5ondblclick?$DN?$FO?$AA@ 100b213c     tzwebgl3.obj
 0003:0001214c       ??_C@_07KBDA@OnClick?$AA@  100b214c     tzwebgl3.obj
 0003:00012158       ??_C@_0BD@COOB@?5?5?5?5?5?5?5?5?5document?4?$AA@ 100b2158     tzwebgl3.obj
 0003:00012170       ??_C@_0BD@FLHN@?5?5?5?5?5?5?5?5?5bcc?5?$DN?5?$FO?$FO?$DL?$AA@ 100b2170     tzwebgl3.obj
 0003:00012188       ??_C@_0CF@JPBN@?5?5?5?5?5?5?5?5?5bcc?5?$DN?5?$FO?$CGcc?$DN?$FO?5?$CL?5szEmailL@ 100b2188     tzwebgl3.obj
 0003:000121b4       ??_C@_0DK@DCCL@?5?5?5?5?5?5?5?5?5location?4href?$DN?$FOmailto?3?$FO@ 100b21b4     tzwebgl3.obj
 0003:000121fc       ??_C@_0CG@HHOF@?5?5?5?5?5?5?5?5?5bcc?5?$DN?5?$FO?$CGbcc?$DN?$FO?5?$CL?5szEmail@ 100b21fc     tzwebgl3.obj
 0003:0001222c       ??_C@_0BK@ECOB@?5?5?5?5?5?5?5?5?5?1?1?5Email?5BCC?1CC?4?$AA@ 100b222c     tzwebgl3.obj
 0003:0001224c       ??_C@_0CC@PGGB@?5?5?5?5?5?5?5?5?5?5?5?5bod?5?$DN?5?$FO?$CGbody?$DN?$FO?5?$CL?5mle@ 100b224c     tzwebgl3.obj
 0003:00012274       ??_C@_0CB@PKAA@?5?5?5?5?5?5?5?5?5?5?5?5bod?5?$DN?5?$FO?$CGbody?$DN?$CGnbsp?$FO?$DL@ 100b2274     tzwebgl3.obj
 0003:0001229c       ??_C@_0BK@JNGA@?5?5?5?5?5?5?5?5?5if?5?$CI?5mle?5?$DN?$DN?5?$FO?$FO?5?$CJ?$AA@ 100b229c     tzwebgl3.obj
 0003:000122bc       ??_C@_0BG@JHLP@?5?5?5?5?5?5?5?5?5?5?5?5mle?$DNmle1?$DL?$AA@ 100b22bc     tzwebgl3.obj
 0003:000122d8       ??_C@_0CN@GKKN@?5?5?5?5?5?5?5?5?5?5?5?5mle1?$DNmle?4replace?$CI?5?$FO?2@ 100b22d8     tzwebgl3.obj
 0003:00012310       ??_C@_0CL@DFFG@?5?5?5?5?5?5?5?5?5while?5?$CI?5mle?4search?$CI?5?$FO?2n@ 100b2310     tzwebgl3.obj
 0003:00012344       ??_C@_0L@NOPE@?$FO?5?$CJ?4value?$DL?$AA@ 100b2344     tzwebgl3.obj
 0003:00012354       ??_C@_0CK@OCDA@?5?5?5?5?5?5?5?5?5mle?5?$DN?5document?4getEleme@ 100b2354     tzwebgl3.obj
 0003:00012388       ??_C@_0N@KIFN@EmailMessage?$AA@ 100b2388     tzwebgl3.obj
 0003:00012398       ??_C@_0BI@JPHL@?5?5?5?5?5?5?5?5?5?1?1?5Email?5Body?4?$AA@ 100b2398     tzwebgl3.obj
 0003:000123b4       ??_C@_0CJ@ENGJ@?5?5?5?5?5?5?5?5?5?5?5?5sub?5?$DN?5?$FO?$DPsubject?$DN?$FO?5?$CL?5@ 100b23b4     tzwebgl3.obj
 0003:000123e8       ??_C@_0CE@DFFL@?5?5?5?5?5?5?5?5?5?5?5?5sub?5?$DN?5?$FO?$DPsubject?$DN?$CGnbs@ 100b23e8     tzwebgl3.obj
 0003:00012414       ??_C@_0BO@MOEN@?5?5?5?5?5?5?5?5?5if?5?$CI?5subject?5?$DN?$DN?5?$FO?$FO?5?$CJ?$AA@ 100b2414     tzwebgl3.obj
 0003:00012438       ??_C@_0BN@LLHE@?5?5?5?5?5?5?5?5?5subject?5?$DN?5document?4?$AA@ 100b2438     tzwebgl3.obj
 0003:0001245c       ??_C@_0N@GBFB@EmailSubject?$AA@ 100b245c     tzwebgl3.obj
 0003:0001246c       ??_C@_0BL@HKAK@?5?5?5?5?5?5?5?5?5?1?1?5Email?5Subject?4?$AA@ 100b246c     tzwebgl3.obj
 0003:0001248c       ??_C@_0BD@FIFD@?5?5?5?5?5?5?5?5?5eml?5?$DN?5?$FO?$FO?$DL?$AA@ 100b248c     tzwebgl3.obj
 0003:000124a4       ??_C@_0BJ@JAKC@?5?5?5?5?5?5?5?5?5eml?5?$DN?5document?4?$AA@ 100b24a4     tzwebgl3.obj
 0003:000124c4       ??_C@_0P@KNOF@EmailRecipient?$AA@ 100b24c4     tzwebgl3.obj
 0003:000124d8       ??_C@_0BM@POKF@?5?5?5?5?5?5?5?5?5eml?5?$DN?5szEmailList?$DL?$AA@ 100b24d8     tzwebgl3.obj
 0003:000124fc       ??_C@_0BN@KCPI@?5?5?5?5?5?5?5?5?5?1?1?5Email?5Recipient?4?$AA@ 100b24fc     tzwebgl3.obj
 0003:00012520       ??_C@_0BD@GPNG@?5?5?5?5?5?5?5?5?5var?5mle1?$DL?$AA@ 100b2520     tzwebgl3.obj
 0003:00012538       ??_C@_0BC@HGMC@?5?5?5?5?5?5?5?5?5var?5bod?$DL?$AA@ 100b2538     tzwebgl3.obj
 0003:00012550       ??_C@_0BC@GELM@?5?5?5?5?5?5?5?5?5var?5sub?$DL?$AA@ 100b2550     tzwebgl3.obj
 0003:00012568       ??_C@_0BC@MPHI@?5?5?5?5?5?5?5?5?5var?5bcc?$DL?$AA@ 100b2568     tzwebgl3.obj
 0003:00012580       ??_C@_0BG@IOCK@?5?5?5?5?5?5?5?5?5var?5subject?$DL?$AA@ 100b2580     tzwebgl3.obj
 0003:0001259c       ??_C@_0BC@JNAF@?5?5?5?5?5?5?5?5?5var?5eml?$DL?$AA@ 100b259c     tzwebgl3.obj
 0003:000125b4       ??_C@_0BC@EGHN@?5?5?5?5?5?5?5?5?5var?5mle?$DL?$AA@ 100b25b4     tzwebgl3.obj
 0003:000125cc       ??_C@_0BG@IKOO@?5?5?5?5?5?5?5?5?5var?5thisMLE?$DL?$AA@ 100b25cc     tzwebgl3.obj
 0003:000125e8       ??_C@_0GI@PMOE@?5?5?5?5?5?5?5?5?5?1?1?5Note?5that?5problems?5m@ 100b25e8     tzwebgl3.obj
 0003:00012664       ??_C@_0DN@IEBO@?5?5?5?5?5?5?5?5?5?1?1?5Put?5together?5the?5ema@ 100b2664     tzwebgl3.obj
 0003:000126b0       ??_C@_0BP@JDKI@?5?5?5?5?5?5if?5?$CI?5szEmailList?5?$CB?$DN?5?$FO?$FO?5?$CJ?$AA@ 100b26b0     tzwebgl3.obj
 0003:000126d8       ??_C@_0CN@OPIN@?5?5?5?5?5?5?5?5?5?5?5?5szEmailList?5?$CL?$DN?5thisT@ 100b26d8     tzwebgl3.obj
 0003:00012710       ??_C@_0CD@CAEB@?5?5?5?5?5?5?5?5?5?5?5?5?5?5?5szEmailList?5?$CL?$DN?5?$FO?0@ 100b2710     tzwebgl3.obj
 0003:0001273c       ??_C@_0CF@IFKA@?5?5?5?5?5?5?5?5?5?5?5?5if?5?$CI?5szEmailList?5?$CB?$DN?5@ 100b273c     tzwebgl3.obj
 0003:00012768       ??_C@_0CM@MFGK@?5?5?5?5?5?5?5?5?5if?5?$CI?5thisTd?4className?5?$DN@ 100b2768     tzwebgl3.obj
 0003:0001279c       ??_C@_0BM@HFIB@?5?5?5?5?5?5?5?5?5thisTd?5?$DN?5tds?$FL?5k?5?$FN?$DL?$AA@ 100b279c     tzwebgl3.obj
 0003:000127c0       ??_C@_0CJ@LEBK@?5?5?5?5?5?5for?5?$CI?5k?5?$DN?50?$DL?5k?5?$DM?5tds?4lengt@ 100b27c0     tzwebgl3.obj
 0003:000127f4       ??_C@_0DD@NBPP@?5?5?5?5?5?5tds?5?$DN?5document?4getElements@ 100b27f4     tzwebgl3.obj
 0003:00012834       ??_C@_0EP@FDAH@?5?5?5?5?5?5?1?1?5Generates?5list?5of?5email@ 100b2834     tzwebgl3.obj
 0003:00012894       ??_C@_0N@NOMN@?5?5?5?5?5?5var?5k?$DL?$AA@ 100b2894     tzwebgl3.obj
 0003:000128a4       ??_C@_0BC@KMP@?5?5?5?5?5?5var?5thisTd?$DL?$AA@ 100b28a4     tzwebgl3.obj
 0003:000128bc       ??_C@_0P@HJBL@?5?5?5?5?5?5var?5tds?$DL?$AA@ 100b28bc     tzwebgl3.obj
 0003:000128d0       ??_C@_0BM@BO@?5?5?5?5?5?5var?5szEmailList?5?$DN?5?$FO?$FO?$DL?$AA@ 100b28d0     tzwebgl3.obj
 0003:000128f4       ??_C@_0P@PGMB@?8?5?$CJ?0?5this?5?$CJ?$DL?$FO?5?$AA@ 100b28f4     tzwebgl3.obj
 0003:00012908       ??_C@_0DF@KBFC@?5?5?5?5?5?5?5?5onclick?$DN?$FOscwShow?$CI?5docume@ 100b2908     tzwebgl3.obj
 0003:00012948       ??_C@_0ED@PIJE@?5?5?5?$DMimg?5src?$DN?$FOimages?1scw?4gif?$FO?5tit@ 100b2948     tzwebgl3.obj
 0003:00012998       ??_C@_0BC@FKOP@?5?5?5?$DMinput?5class?$DN?$FO?$AA@ 100b2998     tzwebgl3.obj
 0003:000129b0       ??_C@_03BDNM@?5?1?$DO?$AA@ 100b29b0     tzwebgl3.obj
 0003:000129b4       ??_C@_0DO@LPOL@style?$DN?$FOwidth?380px?$FO?5type?$DN?$FOtext?$FO?5v@ 100b29b4     tzwebgl3.obj
 0003:00012a00       ??_C@_06NJOK@?$FO?5id?$DN?8?$AA@ 100b2a00     tzwebgl3.obj
 0003:00012a08       ??_C@_0BB@MIOF@?5?5?5?$DMinput?5name?$DN?$FO?$AA@ 100b2a08     tzwebgl3.obj
 0003:00012a1c       ??_C@_0BI@CIIF@position?3absolute?$DLleft?3?$AA@ 100b2a1c     tzwebgl3.obj
 0003:00012a38       ??_C@_02CKLK@32?$AA@       100b2a38     tzwebgl3.obj
 0003:00012a3c       ??_C@_0BI@MFHO@?$FO?0?5strDateFormat?0?510?5?$CJ?$DL?$AA@ 100b2a3c     tzwebgl3.obj
 0003:00012a58       ??_C@_0BO@OBAA@?4zAction?4value?5?$DN?5?$FO_OnUnload?$FO?$DL?$AA@ 100b2a58     tzwebgl3.obj
 0003:00012a7c       ??_C@_0BB@FLOF@?$CI?5strEntityKey?5?$CJ?$AA@ 100b2a7c     tzwebgl3.obj
 0003:00012a90       ??_C@_03HAKM@Key?$AA@      100b2a90     tzwebgl3.obj
 0003:00012a94       ??_C@_08FOOL@ActEvent?$AA@ 100b2a94     tzwebgl3.obj
 0003:00012aa0       ??_C@_0BN@KDHJ@?$DM?1div?$DO?5?5?$DM?$CB?9?9?5leftcontent?5?9?9?$DO?$AA@ 100b2aa0     tzwebgl3.obj
 0003:00012ac4       ??_C@_0BD@BEOP@?$DM?$CF?$EA?5include?5file?$DN?$FO?$AA@ 100b2ac4     tzwebgl3.obj
 0003:00012adc       ??_C@_0CD@DIHO@?$DM?$CB?9?9?5left?5content?5include?5file?5?9@ 100b2adc     tzwebgl3.obj
 0003:00012b08       ??_C@_0BE@HJIH@WEB_LeftSideInclude?$AA@ 100b2b08     tzwebgl3.obj
 0003:00012b20       ??_C@_0BP@NLNA@?$DM?1div?$DO?5?$DM?$CB?9?9?5sidenavigation?5?9?9?$DO?$AA@ 100b2b20     tzwebgl3.obj
 0003:00012b48       ??_C@_08ODPH@DfltMenu?$AA@ 100b2b48     tzwebgl3.obj
 0003:00012b54       ??_C@_0BI@PIFG@?5?5?5?5?5?5?5?$DMli?$DO?$DMa?5href?$DN?$FO?$CD?$FO?5?$AA@ 100b2b54     tzwebgl3.obj
 0003:00012b70       ??_C@_0BC@INOD@?5?5?5if?5?$CI?5nRC?5?$DM?50?5?$CJ?$AA@ 100b2b70     tzwebgl3.obj
 0003:00012b88       ??_C@_0FK@NCMJ@?5?5?5nRC?5?$DN?5vKZXMLPGO?4SetCursorFirs@ 100b2b88     tzwebgl3.obj
 0003:00012bf4       ??_C@_0BG@HEOL@class?$DN?$FOsideselected?$FO?5?$AA@ 100b2bf4     tzwebgl3.obj
 0003:00012c10       ??_C@_0CG@OOIG@Reusable?5Menu?5Action?5Name?5Length@ 100b2c10     tzwebgl3.obj
 0003:00012c40       ??_C@_02INPC@sm?$AA@       100b2c40     tzwebgl3.obj
 0003:00012c44       ??_C@_0BK@KJGG@?$DMdiv?5id?$DN?$FOsidenavigation?$FO?$DO?$AA@ 100b2c44     tzwebgl3.obj
 0003:00012c64       ??_C@_0DB@KJNL@?$DM?$CB?9?9?5Side?5Navigation?5?$CK?$CK?$CK?$CK?$CK?$CK?$CK?$CK?$CK?$CK?$CK@ 100b2c64     tzwebgl3.obj
 0003:00012ca0       ??_C@_0BH@JMFK@?$DMdiv?5id?$DN?$FOleftcontent?$FO?$DO?$AA@ 100b2ca0     tzwebgl3.obj
 0003:00012cbc       ??_C@_0CE@DCA@?$CK?$CK?$CK?5BuildSideNavSection?5Window?5?$CK@ 100b2cbc     tzwebgl3.obj
 0003:00012ce8       ??_C@_0O@PCCE@?5tabindex?$DN?91?5?$AA@ 100b2ce8     tzwebgl3.obj
 0003:00012cf8       ??_C@_0BD@MALM@wWindowHasTabsFlag?$AA@ 100b2cf8     tzwebgl3.obj
 0003:00012d10       ??_C@_0L@DCNL@DialogRoot?$AA@ 100b2d10     tzwebgl3.obj
 0003:00012d20       ??_C@_0L@PDLJ@?5tabindex?$DN?$AA@ 100b2d20     tzwebgl3.obj
 0003:00012d30       ??_C@_07KMLE@SyncKey?$AA@  100b2d30     tzwebgl3.obj
 0003:00012d3c       ??_C@_0M@BHAP@vDialogRoot?$AA@ 100b2d3c     tzwebgl3.obj
 0003:00012d4c       ??_C@_0BK@DKCH@?5?5?5if?5?$CI?5?$CBcsrRC?4isSet?$CI?5?$CJ?5?$CJ?$AA@ 100b2d4c     tzwebgl4.obj
 0003:00012d6c       ??_C@_0CK@EOMB@?5?5?5if?5?$CI?5?$CBcsrRC?4isSet?$CI?$CJ?5?$CJ?5?1?1if?5?$CI?5@ 100b2d6c     tzwebgl4.obj
 0003:00012da0       ??_C@_0FB@CFDE@?5?5?5csrRC?5?$DN?5vKZXMLPGO?4cursor?$CI?5?$FODi@ 100b2da0     tzwebgl4.obj
 0003:00012e04       ??_C@_0N@MLCG@TinyMCEClass?$AA@ 100b2e04     tzwebgl4.obj
 0003:00012e14       ??_C@_0DD@MGOD@border?3solid?$DLborder?9width?32px?$DLbo@ 100b2e14     tzwebgl4.obj
 0003:00012e54       ??_C@_0DD@KIKL@border?3solid?$DLborder?9width?34px?$DLbo@ 100b2e54     tzwebgl4.obj
 0003:00012e94       ??_C@_0DM@FCBD@?5?5?5?5?5?5?5?5?5?5?5?5task?4log?$CI?5?$CJ?4info?$CI?5?$FOE@ 100b2e94     tzwebgl4.obj
 0003:00012edc       ??_C@_0BK@DHEM@?3?5?$FO?5?$CL?5strErrorMapValue?5?$CJ?$DL?$AA@ 100b2edc     tzwebgl4.obj
 0003:00012efc       ??_C@_0CA@CBHA@?5?5?5?5?5?5?5?5?5?5?5?5task?4log?$CI?5?$CJ?4info?$CI?5?$FO?$AA@ 100b2efc     tzwebgl4.obj
 0003:00012f24       ??_C@_0CG@FGLG@?5?5?5?5?5?5?5?5?5?5?5?5?5?5?5strErrorMapValue?5@ 100b2f24     tzwebgl4.obj
 0003:00012f54       ??_C@_0CM@EBKA@?5?5?5?5?5?5?5?5?5?5?5?5if?5?$CI?5strErrorMapValu@ 100b2f54     tzwebgl4.obj
 0003:00012f88       ??_C@_0CH@PMLL@?5?5?5?5?5?5?5?5?5strErrorColor?5?$DN?5?$FOcolor?3@ 100b2f88     tzwebgl4.obj
 0003:00012fb8       ??_C@_0DF@GBFG@?5?5?5?5?5?5if?5?$CI?5StringUtils?4equals?$CI?5s@ 100b2fb8     tzwebgl4.obj
 0003:00012ff8       ??_C@_0DD@DBKE@?5?5?5if?5?$CI?5?$CBStringUtils?4isBlank?$CI?5st@ 100b2ff8     tzwebgl4.obj
 0003:00013038       ??_C@_0P@LNMM@?$FO?0?5strError?5?$CJ?$DL?$AA@ 100b3038     tzwebgl4.obj
 0003:0001304c       ??_C@_0DB@OLFN@?5?5?5strErrorMapValue?5?$DN?5VmlOperati@ 100b304c     tzwebgl4.obj
 0003:00013088       ??_C@_0BO@FEDA@?$CK?$CK?$CK?$CK?5GenJSPJ_CrteMLEdit?5?$CK?$CK?$CK?$CK?5?$AA@ 100b3088     tzwebgl4.obj
 0003:000130ac       ??_C@_0CD@HGG@?4log?$CI?5?$CJ?4debug?$CI?5?$FOInvalid?5View?3?5?$FO?0@ 100b30ac     tzwebgl4.obj
 0003:000130d8       ??_C@_06KIDI@?8?5?$CJ?$DL?$FO?5?$AA@ 100b30d8     tzwebgl4.obj
 0003:000130e0       ??_C@_0M@IOOI@?5?5onclick?$DN?$FO?$AA@ 100b30e0     tzwebgl4.obj
 0003:000130f0       ??_C@_0M@GDMH@?$DMa?5href?$DN?$FO?$CD?$FO?$AA@ 100b30f0     tzwebgl4.obj
 0003:00013100       ??_C@_0CD@GMEE@?5?5?5?5?5?5?5?5?5?5?5?5strTextURL_Value?5?$DN?5?$FO@ 100b3100     tzwebgl4.obj
 0003:0001312c       ??_C@_0CJ@HMKD@?5?5?5?5?5?5?5?5?5if?5?$CI?5strTextURL_Value?5?$DN@ 100b312c     tzwebgl4.obj
 0003:00013160       ??_C@_0CG@HFCP@?5?5?5?5?5?5?5?5?5?5?5?5strTextDisplayValue?5@ 100b3160     tzwebgl4.obj
 0003:00013190       ??_C@_0CM@CPPI@?5?5?5?5?5?5?5?5?5if?5?$CI?5strTextDisplayValu@ 100b3190     tzwebgl4.obj
 0003:000131c4       ??_C@_0BG@HEOH@?$FO?5?$CL?5e?4getMessage?$CI?$CJ?5?$CJ?$DL?$AA@ 100b31c4     tzwebgl4.obj
 0003:000131e0       ??_C@_0CO@GPCH@?5?5?5?5?5?5?5?5?5task?4log?$CI?$CJ?4info?$CI?5?$FO?$CK?$CK?$CK?5E@ 100b31e0     tzwebgl4.obj
 0003:00013218       ??_C@_0BH@LLEK@?3?5?$FO?5?$CL?5e?4getMessage?$CI?$CJ?$CJ?$DL?$AA@ 100b3218     tzwebgl4.obj
 0003:00013234       ??_C@_0CM@ICH@?5?5?5?5?5?5?5?5?5out?4println?$CI?$FOThere?5is?5a@ 100b3234     tzwebgl4.obj
 0003:00013268       ??_C@_0CO@ICNC@?5?5?5?5?5?5task?4log?$CI?5?$CJ?4debug?$CI?5?$FOInvali@ 100b3268     tzwebgl4.obj
 0003:000132a0       ??_C@_0GK@ELKC@?$FO?5onblur?$DN?$FOreturn?5onBlurMask?$CIthis@ 100b32a0     tzwebgl4.obj
 0003:00013320       ??_C@_06JLMD@mask?$DN?$FO?$AA@ 100b3320     tzwebgl4.obj
 0003:00013328       ??_C@_0O@DDLP@?5type?$DN?$FOfile?$FO?5?$AA@ 100b3328     tzwebgl4.obj
 0003:00013338       ??_C@_0CE@LNON@?5?5?5?5?5?5if?5?$CI?5strErrorMapValue?5?$DN?$DN?5?$FO@ 100b3338     tzwebgl4.obj
 0003:00013364       ??_C@_0DN@LBHC@?5?5?5?5?5?5?5?5?5?5?5?5task?4log?$CI?5?$CJ?4debug?$CI?5?$FO@ 100b3364     tzwebgl4.obj
 0003:000133b0       ??_C@_0CB@CGPG@?5?5?5?5?5?5?5?5?5?5?5?5task?4log?$CI?5?$CJ?4debug?$CI?5?$FO@ 100b33b0     tzwebgl4.obj
 0003:000133d8       ??_C@_07LOPI@?$FO?0?5e?5?$CJ?$DL?$AA@ 100b33d8     tzwebgl4.obj
 0003:000133e4       ??_C@_0DF@DHHB@?5?5?5?5?5?5?5?5?5?5?5?5?5?5?5task?4log?$CI?$CJ?4error?$CI@ 100b33e4     tzwebgl4.obj
 0003:00013424       ??_C@_0DC@CCHC@?5?5?5?5?5?5?5?5?5?5?5?5?5?5?5out?4println?$CI?$FOTher@ 100b3424     tzwebgl4.obj
 0003:00013460       ??_C@_0CA@EBMI@?5?5?5?5?5?5?5?5?5?5?5?5catch?5?$CIException?5e?$CJ?$AA@ 100b3460     tzwebgl4.obj
 0003:00013488       ??_C@_0DB@CGHE@?5?5?5?5?5?5?5?5?5task?4log?$CI?5?$CJ?4debug?$CI?5?$FOInv@ 100b3488     tzwebgl4.obj
 0003:000134c4       ??_C@_0BK@FBAI@?$CK?$CK?$CK?5Browse?5File?5is?5Y?5?$CK?$CK?$CK?5?$AA@ 100b34c4     tzwebgl4.obj
 0003:000134e4       ??_C@_0M@HAJM@Browse?5File?$AA@ 100b34e4     tzwebgl4.obj
 0003:000134f4       ??_C@_0BN@KBAM@?$CK?$CK?$CK?5GenJSPJ_CrteEditBox?5?$CK?$CK?$CK?5?$AA@ 100b34f4     tzwebgl4.obj
 0003:00013518       ??_C@_05BOCD@?8?5?$CJ?$FO?5?$AA@ 100b3518     tzwebgl4.obj
 0003:00013520       ??_C@_0DC@GOIJ@?5?5?5if?5?$CI?5StringUtils?4equals?$CI?5strR@ 100b3520     tzwebgl4.obj
 0003:0001355c       ??_C@_0DE@JGPI@?$FO?5type?$DN?$FOhidden?$FO?5value?$DN?$FO?$DM?$CF?$DNstrCom@ 100b355c     tzwebgl4.obj
 0003:0001359c       ??_C@_0BJ@NFKG@?5?5?5?$HN?5?5?1?1?5if?5view?5?$CB?$DN?5null?$AA@ 100b359c     tzwebgl4.obj
 0003:000135bc       ??_C@_0CG@LGIE@?5?5?5?5?5?5for?5?$CI?5TableEntry?5entry?5?3?5l@ 100b35bc     tzwebgl4.obj
 0003:000135ec       ??_C@_0CI@HEFL@?5?5?5?5?5?5if?5?$CI?5strComboCurrentValue?5@ 100b35ec     tzwebgl4.obj
 0003:0001361c       ??_C@_0EB@CPJP@?5?5?5?5?5?5List?$DMTableEntry?$DO?5list?5?$DN?5Js@ 100b361c     tzwebgl4.obj
 0003:0001366c       ??_C@_04MDPP@?8?5?$CJ?$FO?$AA@ 100b366c     tzwebgl4.obj
 0003:00013674       ??_C@_0L@HFOA@?8?0?5this?0?5?8?$AA@ 100b3674     tzwebgl4.obj
 0003:00013684       ??_C@_0BN@NKJL@?$CK?$CK?$CK?$CK?$CK?5szCtrlTagRG?5?5?5?5?9?9?9?9?9?$DO?5?$AA@ 100b3684     tzwebgl4.obj
 0003:000136a8       ??_C@_02NNPM@?3?3?$AA@     100b36a8     tzwebgl4.obj
 0003:000136ac       ??_C@_0BN@FNFI@?$CK?$CK?$CK?$CK?$CK?5szRepeatGrpKey?5?9?9?9?9?9?$DO?5?$AA@ 100b36ac     tzwebgl4.obj
 0003:000136d0       ??_C@_08PKCM@?$DMselect?5?$AA@ 100b36d0     tzwebgl4.obj
 0003:000136dc       ??_C@_0CE@JLDN@scwShow?$CI?5document?4getElementById@ 100b36dc     tzwebgl4.obj
 0003:00013708       ??_C@_0BC@PMEP@?5?5?5?5?5?5?5?5onclick?$DN?$FO?$AA@ 100b3708     tzwebgl4.obj
 0003:00013720       ??_C@_0DP@MBFB@?5style?$DN?$FOwidth?380px?$FO?5type?$DN?$FOtext?$FO?5@ 100b3720     tzwebgl4.obj
 0003:0001376c       ??_C@_0BF@MJFI@?4runsAfterSCW?$CIthis?$CJ?$DL?$AA@ 100b376c     tzwebgl4.obj
 0003:00013788       ??_C@_0P@HLEF@scwNextAction?$DN?$AA@ 100b3788     tzwebgl4.obj
 0003:00013d88       _g_hInstanceDLL            100b3d88     zdllinst.obj
 0003:00013d8c       ??_C@_00A@?$AA@            100b3d8c     tzwebgl1.obj
 0003:00013d94       __adjust_fdiv              100b3d94     <common>
 0003:00013da0       ___onexitend               100b3da0     <common>
 0003:00013db0       ___onexitbegin             100b3db0     <common>
 0003:00013db4       __pRawDllMain              100b3db4     <common>
 0004:00000000       __IMPORT_DESCRIPTOR_tzvmlip 100b4000     tzvmlip:tzvmlip.dll
 0004:00000014       __IMPORT_DESCRIPTOR_KZOENGAA 100b4014     kzoengaa:KZOENGAA.DLL
 0004:00000028       __IMPORT_DESCRIPTOR_MSVCRTD 100b4028     msvcrtd:MSVCRTD.dll
 0004:0000003c       __IMPORT_DESCRIPTOR_ZDrApp 100b403c     zdrapp:ZDrApp.dll
 0004:00000050       __IMPORT_DESCRIPTOR_ZdCtl  100b4050     zdctl:ZdCtl.dll
 0004:00000064       __NULL_IMPORT_DESCRIPTOR   100b4064     tzvmlip:tzvmlip.dll
 0004:0000024c       __imp__CreateViewFromViewForTask@12 100b424c     kzoengaa:KZOENGAA.DLL
 0004:00000250       __imp__CompareAttributeToAttribute@24 100b4250     kzoengaa:KZOENGAA.DLL
 0004:00000254       __imp__GetStringFromAttribute@16 100b4254     kzoengaa:KZOENGAA.DLL
 0004:00000258       __imp__SetCursorFirstEntityByInteger@20 100b4258     kzoengaa:KZOENGAA.DLL
 0004:0000025c       __imp__GetViewByName@16    100b425c     kzoengaa:KZOENGAA.DLL
 0004:00000260       __imp__SetCursorNextEntity@12 100b4260     kzoengaa:KZOENGAA.DLL
 0004:00000264       __imp__ResetViewFromSubobject@4 100b4264     kzoengaa:KZOENGAA.DLL
 0004:00000268       __imp__SetViewToSubobject@8 100b4268     kzoengaa:KZOENGAA.DLL
 0004:0000026c       __imp__CheckExistenceOfEntity@8 100b426c     kzoengaa:KZOENGAA.DLL
 0004:00000270       __imp__ZeidonStringConcat@28 100b4270     kzoengaa:KZOENGAA.DLL
 0004:00000274       __imp__ZeidonStringCopy@28 100b4274     kzoengaa:KZOENGAA.DLL
 0004:00000278       __imp__SetCursorFirstEntityByString@20 100b4278     kzoengaa:KZOENGAA.DLL
 0004:0000027c       __imp__ZeidonStringCompare@28 100b427c     kzoengaa:KZOENGAA.DLL
 0004:00000280       __imp__GetVariableFromAttribute@36 100b4280     kzoengaa:KZOENGAA.DLL
 0004:00000284       __imp__SetCursorFirstEntity@12 100b4284     kzoengaa:KZOENGAA.DLL
 0004:00000288       __imp__GetIntegerFromAttribute@16 100b4288     kzoengaa:KZOENGAA.DLL
 0004:0000028c       __imp_??1ZDecimal@@QAE@XZ  100b428c     kzoengaa:KZOENGAA.DLL
 0004:00000290       __imp_??BZDecimal@@QAEJXZ  100b4290     kzoengaa:KZOENGAA.DLL
 0004:00000294       __imp_??H@YG?AVZDecimal@@V0@J@Z 100b4294     kzoengaa:KZOENGAA.DLL
 0004:00000298       __imp_??D@YG?AVZDecimal@@JV0@@Z 100b4298     kzoengaa:KZOENGAA.DLL
 0004:0000029c       __imp_??0ZDecimal@@QAE@N@Z 100b429c     kzoengaa:KZOENGAA.DLL
 0004:000002a0       __imp__ZeidonStringConvertFromNumber@64 100b42a0     kzoengaa:KZOENGAA.DLL
 0004:000002a4       __imp__MessageSend@24      100b42a4     kzoengaa:KZOENGAA.DLL
 0004:000002a8       __imp__SetEntityCursor@40  100b42a8     kzoengaa:KZOENGAA.DLL
 0004:000002ac       __imp__SetNameForView@16   100b42ac     kzoengaa:KZOENGAA.DLL
 0004:000002b0       __imp__CreateViewFromView@8 100b42b0     kzoengaa:KZOENGAA.DLL
 0004:000002b4       __imp__DropView@4          100b42b4     kzoengaa:KZOENGAA.DLL
 0004:000002b8       __imp__CompareAttributeToInteger@16 100b42b8     kzoengaa:KZOENGAA.DLL
 0004:000002bc       __imp__SysReadZeidonIni@16 100b42bc     kzoengaa:KZOENGAA.DLL
 0004:000002c0       __imp__CompareAttributeToString@16 100b42c0     kzoengaa:KZOENGAA.DLL
 0004:000002c4       __imp__OrderEntityForView@12 100b42c4     kzoengaa:KZOENGAA.DLL
 0004:000002c8       __imp__SetCursorPrevEntity@12 100b42c8     kzoengaa:KZOENGAA.DLL
 0004:000002cc       __imp__TraceLineS@8        100b42cc     kzoengaa:KZOENGAA.DLL
 0004:000002d0       __imp_??G@YG?AVZDecimal@@V0@H@Z 100b42d0     kzoengaa:KZOENGAA.DLL
 0004:000002d4       __imp__ZeidonCopyWithinString@16 100b42d4     kzoengaa:KZOENGAA.DLL
 0004:000002d8       __imp__GetBlobFromAttribute@20 100b42d8     kzoengaa:KZOENGAA.DLL
 0004:000002dc       __imp__SetAttributeFromString@16 100b42dc     kzoengaa:KZOENGAA.DLL
 0004:000002e0       \177KZOENGAA_NULL_THUNK_DATA 100b42e0     kzoengaa:KZOENGAA.DLL
 0004:00000328       __imp___stricmp            100b4328     msvcrtd:MSVCRTD.dll
 0004:0000032c       __imp___onexit             100b432c     msvcrtd:MSVCRTD.dll
 0004:00000330       __imp___adjust_fdiv        100b4330     msvcrtd:MSVCRTD.dll
 0004:00000334       __imp___malloc_dbg         100b4334     msvcrtd:MSVCRTD.dll
 0004:00000338       __imp___initterm           100b4338     msvcrtd:MSVCRTD.dll
 0004:0000033c       __imp__strlen              100b433c     msvcrtd:MSVCRTD.dll
 0004:00000340       __imp____dllonexit         100b4340     msvcrtd:MSVCRTD.dll
 0004:00000344       __imp___free_dbg           100b4344     msvcrtd:MSVCRTD.dll
 0004:00000348       \177MSVCRTD_NULL_THUNK_DATA 100b4348     msvcrtd:MSVCRTD.dll
 0004:00000378       __imp__AreBitsSetInFlag@8  100b4378     zdrapp:ZDrApp.dll
 0004:0000037c       __imp__IsFlagSequenceSet@8 100b437c     zdrapp:ZDrApp.dll
 0004:00000380       \177ZDrApp_NULL_THUNK_DATA 100b4380     zdrapp:ZDrApp.dll
 0004:000003ac       __imp__TX_GetTextRptCtrlBOI@60 100b43ac     zdctl:ZdCtl.dll
 0004:000003b0       \177ZdCtl_NULL_THUNK_DATA  100b43b0     zdctl:ZdCtl.dll
 0004:000003dc       __imp__zSearchAndReplace@16 100b43dc     tzvmlip:tzvmlip.dll
 0004:000003e0       __imp__zAppendQuotedString@16 100b43e0     tzvmlip:tzvmlip.dll
 0004:000003e4       __imp__zReplicate@16       100b43e4     tzvmlip:tzvmlip.dll
 0004:000003e8       __imp__zIntegerToString@12 100b43e8     tzvmlip:tzvmlip.dll
 0004:000003ec       __imp__WL_QC@20            100b43ec     tzvmlip:tzvmlip.dll
 0004:000003f0       \177tzvmlip_NULL_THUNK_DATA 100b43f0     tzvmlip:tzvmlip.dll

 entry point at        0001:0009b550

