 KZOENGAA

 Timestamp is 5356cb5f (Tue Apr 22 16:04:47 2014)

 Preferred load address is 10000000

 Start         Length     Name                   Class
 0001:00000000 000995d8H .text                   CODE
 0002:00000000 00000c71H .rdata                  DATA
 0002:00000c80 0000719bH .edata                  DATA
 0003:00000000 00000104H .CRT$XCA                DATA
 0003:00000104 00000104H .CRT$XCZ                DATA
 0003:00000208 00000104H .CRT$XIA                DATA
 0003:0000030c 00000104H .CRT$XIZ                DATA
 0003:00000410 00013ba7H .data                   DATA
 0003:00013fb8 00000e74H .bss                    DATA
 0004:00000000 00000078H .idata$2                DATA
 0004:00000078 00000014H .idata$3                DATA
 0004:0000008c 00000398H .idata$4                DATA
 0004:00000424 00000398H .idata$5                DATA
 0004:000007bc 00000a57H .idata$6                DATA
 0005:00000000 00000126H .didat$2                DATA
 0005:00000128 00000126H .didat$3                DATA
 0005:00000250 00000134H .didat$4                DATA
 0005:00000384 00000134H .didat$5                DATA
 0005:000004b8 00000208H .didat$6                DATA
 0005:000006c0 00000134H .didat$7                DATA

  Address         Publics by Value              Rva+Base     Lib:Object

 0001:00002c10       _GetApplDirectoryFromView@16 10003c10 f   KZOEAPAA.OBJ
 0001:00002d8c       _fnGetApplicationForSubtask@8 10003d8c f   KZOEAPAA.OBJ
 0001:00002ec5       _SfGetApplicationForSubtask@8 10003ec5 f   KZOEAPAA.OBJ
 0001:00002f1c       _SfSetApplicationForSubtask@8 10003f1c f   KZOEAPAA.OBJ
 0001:00002f90       _fnParseAppString          10003f90 f   KZOEAPAA.OBJ
 0001:0000348c       _fnCreateApp               1000448c f   KZOEAPAA.OBJ
 0001:00005234       _fnDropTableEntry          10006234 f   KZOEAPAA.OBJ
 0001:000053d8       _fnDeleteContext           100063d8 f   KZOEAPAA.OBJ
 0001:000054a1       _fnDeleteApp               100064a1 f   KZOEAPAA.OBJ
 0001:00005be6       _SetDatabaseUser@12        10006be6 f   KZOEAPAA.OBJ
 0001:000069b0       _fnEntityNameFromCsr@4     100079b0 f   KZOEATAA.OBJ
 0001:000069d0       _fnEntityNameFromInstance@4 100079d0 f   KZOEATAA.OBJ
 0001:000069f0       _fnGetAttrAddrFromEntityInstance 100079f0 f   KZOEATAA.OBJ
 0001:00006c4f       _fnGetAttribFlagsPtr@8     10007c4f f   KZOEATAA.OBJ
 0001:00006d13       _GetAttributeFlags@16      10007d13 f   KZOEATAA.OBJ
 0001:00006dc9       _AttributeUpdated@12       10007dc9 f   KZOEATAA.OBJ
 0001:00006e67       _fnStoreValueInEntityInstance 10007e67 f   KZOEATAA.OBJ
 0001:000071e0       _GetStringFromAttributeByContext@24 100081e0 f   KZOEATAA.OBJ
 0001:00007254       _GetStringFromAttribute@16 10008254 f   KZOEATAA.OBJ
 0001:00007330       _fnGetStringFromAttribute  10008330 f   KZOEATAA.OBJ
 0001:00007653       _GetViewFromAttribute@16   10008653 f   KZOEATAA.OBJ
 0001:0000766f       _GetIntegerFromAttribute@16 1000866f f   KZOEATAA.OBJ
 0001:0000771e       _fnGetIntegerFromAttribute 1000871e f   KZOEATAA.OBJ
 0001:00007961       _GetDecimalFromAttribute@16 10008961 f   KZOEATAA.OBJ
 0001:000079fd       _fnGetDecimalFromAttribute 100089fd f   KZOEATAA.OBJ
 0001:00007b7b       _GetBlobFromAttribute@20   10008b7b f   KZOEATAA.OBJ
 0001:00007c4c       _fnGetBlobFromAttribute    10008c4c f   KZOEATAA.OBJ
 0001:00007d71       _GetStructFromEntityAttrs@12 10008d71 f   KZOEATAA.OBJ
 0001:00008043       _GetAddrForAttribute@16    10009043 f   KZOEATAA.OBJ
 0001:0000812b       _fnGetAddrForAttribute     1000912b f   KZOEATAA.OBJ
 0001:000082f5       _GetAttributeDisplayLength@20 100092f5 f   KZOEATAA.OBJ
 0001:000084fb       _fnGetTextForTableEntry    100094fb f   KZOEATAA.OBJ
 0001:00008569       _fnGetLongExternalLthForContext 10009569 f   KZOEATAA.OBJ
 0001:000085d9       _fnGetAttributeDisplayLength 100095d9 f   KZOEATAA.OBJ
 0001:000087ca       _GetAttributeLength@16     100097ca f   KZOEATAA.OBJ
 0001:00008869       _fnGetAttributeLength      10009869 f   KZOEATAA.OBJ
 0001:000089cc       _GetActualAttributeLength@16 100099cc f   KZOEATAA.OBJ
 0001:00008a58       _fnGetActualAttributeLength 10009a58 f   KZOEATAA.OBJ
 0001:00008c20       _SetAttributeFromString@16 10009c20 f   KZOEATAA.OBJ
 0001:00008cb8       _fnSetAttributeFromString  10009cb8 f   KZOEATAA.OBJ
 0001:00008e79       _SetAttributeFromView@16   10009e79 f   KZOEATAA.OBJ
 0001:00008e9e       _SetAttributeFromInteger@16 10009e9e f   KZOEATAA.OBJ
 0001:00008f36       _fnSetAttributeFromInteger 10009f36 f   KZOEATAA.OBJ
 0001:00009082       _AddToAttributeFromInteger@16 1000a082 f   KZOEATAA.OBJ
 0001:0000912c       _fnAddToAttributeFromInteger 1000a12c f   KZOEATAA.OBJ
 0001:00009381       _SetAttributeFromDecimal@52 1000a381 f   KZOEATAA.OBJ
 0001:00009419       _fnSetAttributeFromDecimal 1000a419 f   KZOEATAA.OBJ
 0001:0000957b       _AddToAttributeFromDecimal@52 1000a57b f   KZOEATAA.OBJ
 0001:0000962a       _fnAddToAttributeFromDecimal 1000a62a f   KZOEATAA.OBJ
 0001:000098d0       _SetAttributeFromBlob@20   1000a8d0 f   KZOEATAA.OBJ
 0001:00009960       _SetBlobFromEntityAttributes@20 1000a960 f   KZOEATAA.OBJ
 0001:00009eec       _SetBlobFromOI@20          1000aeec f   KZOEATAA.OBJ
 0001:0000a1a2       _SetEntityAttributesFromBlob@20 1000b1a2 f   KZOEATAA.OBJ
 0001:0000a662       _SetOI_FromBlob@28         1000b662 f   KZOEATAA.OBJ
 0001:0000aa3f       _fnSetAttributeFromBlob    1000ba3f f   KZOEATAA.OBJ
 0001:0000abf8       _SetAttributeFromAttribute@24 1000bbf8 f   KZOEATAA.OBJ
 0001:0000b18e       _SetBlobAttributeFromAttribute@24 1000c18e f   KZOEATAA.OBJ
 0001:0000b257       _SetMatchingAttributesByName@20 1000c257 f   KZOEATAA.OBJ
 0001:0000b642       _AddToAttributeFromAttribute@24 1000c642 f   KZOEATAA.OBJ
 0001:0000b70f       _CompareAttributeToAttribute@24 1000c70f f   KZOEATAA.OBJ
 0001:0000bfb1       _CompareAttributeToString@16 1000cfb1 f   KZOEATAA.OBJ
 0001:0000c049       _CompareAttributeToInteger@16 1000d049 f   KZOEATAA.OBJ
 0001:0000c0e1       _CompareAttributeToDecimal@52 1000d0e1 f   KZOEATAA.OBJ
 0001:0000c179       _fnGetTaskDomain           1000d179 f   KZOEATAA.OBJ
 0001:0000c3c5       _fnRetrieveAttribName@12   1000d3c5 f   KZOEATAA.OBJ
 0001:0000c614       _DfExprVML@16              1000d614 f   KZOEATAA.OBJ
 0001:0000c9f2       _DfExecuteXPG@16           1000d9f2 f   KZOEATAA.OBJ
 0001:0000cd89       _fnGetAttribOper           1000dd89 f   KZOEATAA.OBJ
 0001:0000d082       _sFormatIn                 1000e082 f   KZOEATAA.OBJ
 0001:0000d403       _sFormatOut                1000e403 f   KZOEATAA.OBJ
 0001:0000d580       _fnValidateAttributeParameters 1000e580 f   KZOEATAA.OBJ
 0001:0000dbe0       _fnCreateAttributeRecord   1000ebe0 f   KZOEATAA.OBJ
 0001:0000ddd3       _fnStoreBlobInRecord       1000edd3 f   KZOEATAA.OBJ
 0001:0000df17       _fnStoreStringInRecord     1000ef17 f   KZOEATAA.OBJ
 0001:0000e1a0       _fnCopyAttributeRecord     1000f1a0 f   KZOEATAA.OBJ
 0001:0000e342       _fnDeleteAttributeRecord   1000f342 f   KZOEATAA.OBJ
 0001:0000e49b       _ConvertDecimalToString@52 1000f49b f   KZOEATAA.OBJ
 0001:0000e53e       _SetAttributeFromVariable@32 1000f53e f   KZOEATAA.OBJ
 0001:0000e66c       _fnSetAttributeFromVariable 1000f66c f   KZOEATAA.OBJ
 0001:0000ee4e       _AddToAttributeFromVariable@28 1000fe4e f   KZOEATAA.OBJ
 0001:0000eeea       _fnAddToAttributeFromVariable 1000feea f   KZOEATAA.OBJ
 0001:0000f1be       _fnCompareAttributeToString 100101be f   KZOEATAA.OBJ
 0001:0000f61b       _fnCompareAttributeToInteger 1001061b f   KZOEATAA.OBJ
 0001:0000f862       _fnCompareAttributeToDecimal 10010862 f   KZOEATAA.OBJ
 0001:0000fa3e       _fnCompareAttributeToBlob  10010a3e f   KZOEATAA.OBJ
 0001:0000fbc7       _fnCompareDateTimeToDateTime 10010bc7 f   KZOEATAA.OBJ
 0001:0000fc70       _fnCompareAttributeToDateTime 10010c70 f   KZOEATAA.OBJ
 0001:0000fe29       _CompareAttributeToVariable@32 10010e29 f   KZOEATAA.OBJ
 0001:0000feca       _fnCompareAttributeToVariable 10010eca f   KZOEATAA.OBJ
 0001:000101b6       _GetVariableFromAttribute@36 100111b6 f   KZOEATAA.OBJ
 0001:0001038e       _fnGetVariableFromAttribute 1001138e f   KZOEATAA.OBJ
 0001:00010bc5       _GetFirstTableEntryForAttribute@24 10011bc5 f   KZOEATAA.OBJ
 0001:00010d66       _GetNextTableEntryForAttribute@24 10011d66 f   KZOEATAA.OBJ
 0001:00010f07       _SetAttributeValueNext@16  10011f07 f   KZOEATAA.OBJ
 0001:00010f2b       _SetAttributeValuePrev@16  10011f2b f   KZOEATAA.OBJ
 0001:00010f4f       _StoreValueInRecord@20     10011f4f f   KZOEATAA.OBJ
 0001:000113aa       _StoreBytesInRecord@20     100123aa f   KZOEATAA.OBJ
 0001:0001153a       _StoreValueInDerivedAttribute@20 1001253a f   KZOEATAA.OBJ
 0001:000115f7       _StoreStringInDerivedAttribute@16 100125f7 f   KZOEATAA.OBJ
 0001:000116b0       _GetValueFromRecord@24     100126b0 f   KZOEATAA.OBJ
 0001:00011904       _StoreStringInRecord@16    10012904 f   KZOEATAA.OBJ
 0001:00011972       _GetStringFromRecord@20    10012972 f   KZOEATAA.OBJ
 0001:000119e8       _fnSetAttributeValue       100129e8 f   KZOEATAA.OBJ
 0001:00011c4a       _fnAttributeValueNull      10012c4a f   KZOEATAA.OBJ
 0001:00011d6d       _fnRecordForEntityAttr     10012d6d f   KZOEATAA.OBJ
 0001:00011d9e       _fnInvokeDerivedOperation  10012d9e f   KZOEATAA.OBJ
 0001:00011ddc       _fnSetBlobFromFile@16      10012ddc f   KZOEATAA.OBJ
 0001:00011f1b       _SetBlobFromFile@16        10012f1b f   KZOEATAA.OBJ
 0001:0001200d       _fnWriteBlobToFile@16      1001300d f   KZOEATAA.OBJ
 0001:000120fd       _WriteBlobToFile@16        100130fd f   KZOEATAA.OBJ
 0001:000121dd       _fnSetUpdateIndicator      100131dd f   KZOEATAA.OBJ
 0001:000123ed       _zdSUM@16                  100133ed f   KZOEATAA.OBJ
 0001:0001248c       _ziSUM@16                  1001348c f   KZOEATAA.OBJ
 0001:000153f0       _SetCursorNextEntity@12    100163f0 f   KZOECMAA.OBJ
 0001:0001547e       _SetCursorPrevEntity@12    1001647e f   KZOECMAA.OBJ
 0001:0001550c       _SetCursorScopeOI@12       1001650c f   KZOECMAA.OBJ
 0001:00015543       _SetCursorFirstEntity@12   10016543 f   KZOECMAA.OBJ
 0001:000155d1       _SetCursorLastEntity@12    100165d1 f   KZOECMAA.OBJ
 0001:0001565f       _fnQualOperatorMatchesRC   1001665f f   KZOECMAA.OBJ
 0001:00015712       _fnStringMatchesAttributeValue 10016712 f   KZOECMAA.OBJ
 0001:00015847       _fnAttrValueMatchesAttrValue 10016847 f   KZOECMAA.OBJ
 0001:00015d49       _SetCursorFirstEntityByString@20 10016d49 f   KZOECMAA.OBJ
 0001:00016073       _SetCursorNextEntityByString@20 10017073 f   KZOECMAA.OBJ
 0001:0001639d       _fnIntegerMatchesAttributeValue 1001739d f   KZOECMAA.OBJ
 0001:00016426       _fnDecimalMatchesAttributeValue 10017426 f   KZOECMAA.OBJ
 0001:000164a6       _fnDateTimeMatchesAttributeValue@16 100174a6 f   KZOECMAA.OBJ
 0001:00016575       _SetCursorFirstEntityByInteger@20 10017575 f   KZOECMAA.OBJ
 0001:00016643       _SetCursorNextEntityByInteger@20 10017643 f   KZOECMAA.OBJ
 0001:00016711       _SetCursorFirstEntityByDecimal@56 10017711 f   KZOECMAA.OBJ
 0001:000167df       _SetCursorNextEntityByDecimal@56 100177df f   KZOECMAA.OBJ
 0001:000168ad       _SetCursorRelativeEntity@16 100178ad f   KZOECMAA.OBJ
 0001:0001693d       _GetRelativeEntityNumber@16 1001793d f   KZOECMAA.OBJ
 0001:00016bc1       _SetCursorAbsolutePosition@12 10017bc1 f   KZOECMAA.OBJ
 0001:00016e8c       _GetAbsolutePositionForEntity@12 10017e8c f   KZOECMAA.OBJ
 0001:00016fae       _fnInstanceMatchesInstance 10017fae f   KZOECMAA.OBJ
 0001:000170ab       _SetCursorFirstEntityByAttr@28 100180ab f   KZOECMAA.OBJ
 0001:00017200       _SetCursorNextEntityByAttr@28 10018200 f   KZOECMAA.OBJ
 0001:00017344       _SetCursorFirstEntityByEntityCsr@20 10018344 f   KZOECMAA.OBJ
 0001:00017467       _SetCursorNextEntityByEntityCsr@20 10018467 f   KZOECMAA.OBJ
 0001:0001758a       _DefineHierarchicalCursor@8 1001858a f   KZOECMAA.OBJ
 0001:00017628       _DropHierarchicalCursor@4  10018628 f   KZOECMAA.OBJ
 0001:0001768e       _SetCursorNextEntityHierarchical@12 1001868e f   KZOECMAA.OBJ
 0001:000178e5       _GetEntityNameForHierarchicalCsr@16 100188e5 f   KZOECMAA.OBJ
 0001:000179fa       _GetEntityKeyForHierarchicalCsr@16 100189fa f   KZOECMAA.OBJ
 0001:00017ae0       _SetCursorFirstSelectedEntity@12 10018ae0 f   KZOECMAA.OBJ
 0001:00017b71       _SetCursorNextSelectedEntity@12 10018b71 f   KZOECMAA.OBJ
 0001:00017c02       _SetSelectSetForView@8     10018c02 f   KZOECMAA.OBJ
 0001:00017d16       _GetSelectStateOfEntityForSet@12 10018d16 f   KZOECMAA.OBJ
 0001:00017d65       _GetSelectStateOfEntity@8  10018d65 f   KZOECMAA.OBJ
 0001:00017e03       _SetAllSelStatesForEntityForSet@20 10018e03 f   KZOECMAA.OBJ
 0001:00017e5b       _SetAllSelectStatesForEntity@16 10018e5b f   KZOECMAA.OBJ
 0001:00018198       _SetSelectStateOfEntityForSet@16 10019198 f   KZOECMAA.OBJ
 0001:000181ec       _SetSelectStateOfEntity@12 100191ec f   KZOECMAA.OBJ
 0001:0001839f       _SetEntityCursor@40        1001939f f   KZOECMAA.OBJ
 0001:00018890       _fnSetEntityCursor         10019890 f   KZOECMAA.OBJ
 0001:00019b24       _fnScanEI_NoScoping        1001ab24 f   KZOECMAA.OBJ
 0001:00019f0b       _fnScanEI_Scoping          1001af0b f   KZOECMAA.OBJ
 0001:0001a8c3       _fnQualifiedInstance       1001b8c3 f   KZOECMAA.OBJ
 0001:0001ac69       _fnSelectedInstanceFarbler 1001bc69 f   KZOECMAA.OBJ
 0001:0001afb8       _fnValidateCursorParameters 1001bfb8 f   KZOECMAA.OBJ
 0001:0001b750       _fnSetChildCursors         1001c750 f   KZOECMAA.OBJ
 0001:0001b838       _fnResetCursorForViewChildren 1001c838 f   KZOECMAA.OBJ
 0001:0001b8a6       _fnNullCursorForViewChildren 1001c8a6 f   KZOECMAA.OBJ
 0001:0001b8f2       _fnEstablishCursorForView  1001c8f2 f   KZOECMAA.OBJ
 0001:0001bba6       _AddCursorListener@12      1001cba6 f   KZOECMAA.OBJ
 0001:0001bc80       _RemoveCursorListener@12   1001cc80 f   KZOECMAA.OBJ
 0001:0001bd1f       _fnCallListeners           1001cd1f f   KZOECMAA.OBJ
 0001:0001d7f0       _fnCallDomainOper@40       1001e7f0 f   KZOEDMAA.OBJ
 0001:0001d85a       _fnCallDomainOper2@36      1001e85a f   KZOEDMAA.OBJ
 0001:0001d8b7       _fnGetContext              1001e8b7 f   KZOEDMAA.OBJ
 0001:0001d96c       _GetContext@12             1001e96c f   KZOEDMAA.OBJ
 0001:0001d9ba       _GetDefaultContext@8       1001e9ba f   KZOEDMAA.OBJ
 0001:0001da34       _SfGetDefaultContextForDomain@12 1001ea34 f   KZOEDMAA.OBJ
 0001:0001db1a       _fnDomainProcessingRequired 1001eb1a f   KZOEDMAA.OBJ
 0001:0001db86       _TableEntryForInternalValue@16 1001eb86 f   KZOEDMAA.OBJ
 0001:0001dcf5       _TableEntryIntToExt@20     1001ecf5 f   KZOEDMAA.OBJ
 0001:0001de97       _TableEntryExtToInt@20     1001ee97 f   KZOEDMAA.OBJ
 0001:0001e05d       _IsDataNull                1001f05d f   KZOEDMAA.OBJ
 0001:0001e0b0       _fnGetTableEntryForDomain@32 1001f0b0 f   KZOEDMAA.OBJ
 0001:0001e3c7       _Table_Handler@36          1001f3c7 f   KZOEDMAA.OBJ
 0001:00020490       _fnInitAttributes@8        10021490 f   KZOEEIAA.OBJ
 0001:0002050a       _CheckExistenceOfEntity@8  1002150a f   KZOEEIAA.OBJ
 0001:0002067c       _CheckEntityInView@8       1002167c f   KZOEEIAA.OBJ
 0001:00020904       _CreateTemporalEntity@12   10021904 f   KZOEEIAA.OBJ
 0001:00020be2       _CreateEntity@12           10021be2 f   KZOEEIAA.OBJ
 0001:00020ed5       _LoadEntity@16             10021ed5 f   KZOEEIAA.OBJ
 0001:0002100a       _CountEntitiesForView@8    1002200a f   KZOEEIAA.OBJ
 0001:000210fc       _DropEntity@12             100220fc f   KZOEEIAA.OBJ
 0001:00021464       _CountEntitiesForViewUnderParent@12 10022464 f   KZOEEIAA.OBJ
 0001:000216aa       _DeleteEntity@12           100226aa f   KZOEEIAA.OBJ
 0001:00021a78       _fnSameRelationshipInstance 10022a78 f   KZOEEIAA.OBJ
 0001:00021b24       _fnDeleteEntity            10022b24 f   KZOEEIAA.OBJ
 0001:00021de8       _ExcludeEntity@12          10022de8 f   KZOEEIAA.OBJ
 0001:00021f95       _fnExcludeEntity           10022f95 f   KZOEEIAA.OBJ
 0001:000220f7       _RelinkInstanceToInstance@16 100230f7 f   KZOEEIAA.OBJ
 0001:00022480       _SetIncrementalUpdateFlags@12 10023480 f   KZOEEIAA.OBJ
 0001:00022992       _GetIncrementalUpdateFlags@12 10023992 f   KZOEEIAA.OBJ
 0001:00022b27       _fnEstablishViewForInstance 10023b27 f   KZOEEIAA.OBJ
 0001:00022da2       _fnValidateInsertPosition  10023da2 f   KZOEEIAA.OBJ
 0001:000233e1       _fnSetEntityKey@12         100243e1 f   KZOEEIAA.OBJ
 0001:00023426       _GetEntityKey@8            10024426 f   KZOEEIAA.OBJ
 0001:000234a3       _fnCreateEntity@20         100244a3 f   KZOEEIAA.OBJ
 0001:00023cc8       _fnValidateInstanceParameters 10024cc8 f   KZOEEIAA.OBJ
 0001:0002431b       _fnHideLinkedChildren      1002531b f   KZOEEIAA.OBJ
 0001:00024494       _fnHideExcludedDeletedInstances 10025494 f   KZOEEIAA.OBJ
 0001:00024563       _fnExcludeEntityInstance   10025563 f   KZOEEIAA.OBJ
 0001:00024748       _fnSpawnCreateEntity       10025748 f   KZOEEIAA.OBJ
 0001:00024c3a       _fnEntityInstanceIsDead@4  10025c3a f   KZOEEIAA.OBJ
 0001:00024cac       _fnReclaimHiddenInstances@4 10025cac f   KZOEEIAA.OBJ
 0001:00024fda       _fnInstanceLinkedToInstance 10025fda f   KZOEEIAA.OBJ
 0001:00025044       _fnInstanceVersioned       10026044 f   KZOEEIAA.OBJ
 0001:000250a2       _fnInstanceVersionRootMatch 100260a2 f   KZOEEIAA.OBJ
 0001:0002516b       _fnInstanceKeysMatch       1002616b f   KZOEEIAA.OBJ
 0001:00025332       _fnRelinkInstanceToInstance 10026332 f   KZOEEIAA.OBJ
 0001:0002579a       _fnGetEntityCnstrntOper    1002679a f   KZOEEIAA.OBJ
 0001:00025996       _fnInvokeECEOperation      10026996 f   KZOEEIAA.OBJ
 0001:000259d8       _fnValidateInstanceAttributes 100269d8 f   KZOEEIAA.OBJ
 0001:00025ae8       _fnRemoveAllChildTemporalVsns 10026ae8 f   KZOEEIAA.OBJ
 0001:00025d0c       _fnRemoveOtherOI_LinkedInstances 10026d0c f   KZOEEIAA.OBJ
 0001:00025fa4       _fnEntityInRecursivePath   10026fa4 f   KZOEEIAA.OBJ
 0001:00026083       _fnFirstLevel2_ForViewEntity 10027083 f   KZOEEIAA.OBJ
 0001:0002616c       _fnStillPrevVersion        1002716c f   KZOEEIAA.OBJ
 0001:000261cf       _fnEntityContainsEntity@8  100271cf f   KZOEEIAA.OBJ
 0001:00027ca0       _SendDomainError@28        10028ca0 f   KZOEERAA.OBJ
 0001:0002835e       _IssueError@16             1002935e f   KZOEERAA.OBJ
 0001:000283bb       _fnIssueCoreError          100293bb f   KZOEERAA.OBJ
 0001:00028495       _IssueOE_Error@28          10029495 f   KZOEERAA.OBJ
 0001:00028bc0       _MiGetParentEntityNameForView@12 10029bc0 f   KZOEMIAA.OBJ
 0001:00028d79       _MiGetInstanceID_ForView@4 10029d79 f   KZOEMIAA.OBJ
 0001:00028de5       _MiGetUpdateForView@4      10029de5 f   KZOEMIAA.OBJ
 0001:00028e3b       _MiSetInstanceUpdateFlag@8 10029e3b f   KZOEMIAA.OBJ
 0001:00028f25       _MiGetTypeForViewEntityAttr@12 10029f25 f   KZOEMIAA.OBJ
 0001:00029096       _MiGetUpdateForViewEntityAttr@16 1002a096 f   KZOEMIAA.OBJ
 0001:00029286       _MiGetTemporalStateOfEntity@8 1002a286 f   KZOEMIAA.OBJ
 0001:000293f8       _MiGetDateTimeForOI@8      1002a3f8 f   KZOEMIAA.OBJ
 0001:0002947f       _MiGetERTokenForEntity@8   1002a47f f   KZOEMIAA.OBJ
 0001:000294fc       _MiGetKeyFromInstance@16   1002a4fc f   KZOEMIAA.OBJ
 0001:000296bf       _MiGetObjectNameForView@8  1002a6bf f   KZOEMIAA.OBJ
 0001:0002974f       _MiGetViewEntityForView@8  1002a74f f   KZOEMIAA.OBJ
 0001:000297cb       _MiGetOI_ReleaseForView@8  1002a7cb f   KZOEMIAA.OBJ
 0001:00029846       _MiSetOI_ReleaseForView@8  1002a846 f   KZOEMIAA.OBJ
 0001:000298c5       _MiCompareOI_ToRelease@8   1002a8c5 f   KZOEMIAA.OBJ
 0001:00029a53       _MiGetCardinalityForEntity@16 1002aa53 f   KZOEMIAA.OBJ
 0001:00029ae0       _MiHasPersistentChanges@4  1002aae0 f   KZOEMIAA.OBJ
 0001:00029c3f       _MiGetActivateFlags@4      1002ac3f f   KZOEMIAA.OBJ
 0001:00029ca5       _MiValidView@4             1002aca5 f   KZOEMIAA.OBJ
 0001:00029cdf       _MiGetSetViewTaskAppFlags@16 1002acdf f   KZOEMIAA.OBJ
 0001:00029e38       _MiListOE_Memory@8         1002ae38 f   KZOEMIAA.OBJ
 0001:0002a215       _MiEntityVersioned@8       1002b215 f   KZOEMIAA.OBJ
 0001:0002a870       _fnStoreStringInDataspace  1002b870 f   KZOEMMAA.OBJ
 0001:0002a8e5       _fnChainFreespaces         1002b8e5 f   KZOEMMAA.OBJ
 0001:0002aa76       _TraceDataHeader@8         1002ba76 f   KZOEMMAA.OBJ
 0001:0002abd7       _fnListDataspaceLeak@12    1002bbd7 f   KZOEMMAA.OBJ
 0001:0002abde       _fnAllocDataspace          1002bbde f   KZOEMMAA.OBJ
 0001:0002b092       _fnFreeDataspace           1002c092 f   KZOEMMAA.OBJ
 0001:0002b32f       _fnGetDataspaceLength      1002c32f f   KZOEMMAA.OBJ
 0001:0002b3c1       _fnInitializeDataspace     1002c3c1 f   KZOEMMAA.OBJ
 0001:0002b850       _fnGetMsgQ@12              1002c850 f   KZOEMQAA.OBJ
 0001:0002b95a       _MessageSend@24            1002c95a f   KZOEMQAA.OBJ
 0001:0002bd0f       _MessagePrompt@32          1002cd0f f   KZOEMQAA.OBJ
 0001:0002bff3       _MessagePromptForInput@28  1002cff3 f   KZOEMQAA.OBJ
 0001:0002c153       _MessagePresent@12         1002d153 f   KZOEMQAA.OBJ
 0001:0002c27f       _fnFindMQInterface         1002d27f f   KZOEMQAA.OBJ
 0001:0002c2d4       _fnFindTaskApp             1002d2d4 f   KZOEMQAA.OBJ
 0001:0002ca20       _fnFindNetwork@12          1002da20 f   KZOENETA.OBJ
 0001:0002cb1c       _fnRetrieveAppName@8       1002db1c f   KZOENETA.OBJ
 0001:0002cb54       _LoadNetworkOperations     1002db54 f   KZOENETA.OBJ
 0001:0002cc6e       _fnGetApplAddress@24       1002dc6e f   KZOENETA.OBJ
 0001:0002cd79       _fnAddConnectionToNetwork@32 1002dd79 f   KZOENETA.OBJ
 0001:0002cec9       _fnRemoveConnectionFromNetwork@12 1002dec9 f   KZOENETA.OBJ
 0001:0002cfe1       _fnFlushBuffer@8           1002dfe1 f   KZOENETA.OBJ
 0001:0002d024       _fnSendDataPacket@16       1002e024 f   KZOENETA.OBJ
 0001:0002d0e8       _fnReceiveDataPacket@16    1002e0e8 f   KZOENETA.OBJ
 0001:0002d1c9       _fnSendHeaderPacket@16     1002e1c9 f   KZOENETA.OBJ
 0001:0002d24e       _fnCreateMsgObj@4          1002e24e f   KZOENETA.OBJ
 0001:0002d34d       _fnSendMessageObject@12    1002e34d f   KZOENETA.OBJ
 0001:0002d515       _fnSendTraceObj@12         1002e515 f   KZOENETA.OBJ
 0001:0002d609       _fnSendMsgAndTraceObj@12   1002e609 f   KZOENETA.OBJ
 0001:0002d65b       _TestMsgObjDef             1002e65b f   KZOENETA.OBJ
 0001:0002d6fd       _fnRetrieveMessageObject@12 1002e6fd f   KZOENETA.OBJ
 0001:0002d8b6       _fnRetrieveTraceObj@12     1002e8b6 f   KZOENETA.OBJ
 0001:0002da2b       _fnRetrieveMsgAndTraceObj@12 1002ea2b f   KZOENETA.OBJ
 0001:0002da7d       _fnEmptyOI@4               1002ea7d f   KZOENETA.OBJ
 0001:0002db39       _fnSendTraceSwitches@12    1002eb39 f   KZOENETA.OBJ
 0001:0002dbe6       _fnSendTimestamp@12        1002ebe6 f   KZOENETA.OBJ
 0001:0002dc3c       _fnNetActivateOI@32        1002ec3c f   KZOENETA.OBJ
 0001:0002e170       _NetStartup@12             1002f170 f   KZOENETA.OBJ
 0001:0002ecc8       _NetClose@8                1002fcc8 f   KZOENETA.OBJ
 0001:0002ef69       _NetListen@8               1002ff69 f   KZOENETA.OBJ
 0001:0002f0a5       _NetStopListen@8           100300a5 f   KZOENETA.OBJ
 0001:0002f1b9       _NetProcessMessage@12      100301b9 f   KZOENETA.OBJ
 0001:0002f6c1       _fnConvertIS_Clause@4      100306c1 f   KZOENETA.OBJ
 0001:0002fa40       _NetActivateOI@28          10030a40 f   KZOENETA.OBJ
 0001:0002fb4a       _NetActivateOI_FromFile@28 10030b4a f   KZOENETA.OBJ
 0001:0002fb54       _fnFindEntityInstanceByHierCount@8 10030b54 f   KZOENETA.OBJ
 0001:0002fc4b       _fnSetLinkBuffer@20        10030c4b f   KZOENETA.OBJ
 0001:00030216       _fnMergeViews@8            10031216 f   KZOENETA.OBJ
 0001:00030583       _NetCommitOI@28            10031583 f   KZOENETA.OBJ
 0001:0003138c       _NetCommitOI_ToFile@20     1003238c f   KZOENETA.OBJ
 0001:00031396       _NetCallOperation          10032396 f   KZOENETA.OBJ
 0001:000321bc       _NetSendFile@28            100331bc f   KZOENETA.OBJ
 0001:000321c6       _NetSetTraceLevel@12       100331c6 f   KZOENETA.OBJ
 0001:00032262       _NetGetTraceLevel@8        10033262 f   KZOENETA.OBJ
 0001:000322da       _NetStatus@8               100332da f   KZOENETA.OBJ
 0001:00032414       _NetGetLocalHostAddress@12 10033414 f   KZOENETA.OBJ
 0001:000324be       _fnReadDataFromNet@20      100334be f   KZOENETA.OBJ
 0001:0003275c       _fnReceiveOI@24            1003375c f   KZOENETA.OBJ
 0001:0003280e       _fnSendOI_Data@20          1003380e f   KZOENETA.OBJ
 0001:000328d8       _fnSendOI@16               100338d8 f   KZOENETA.OBJ
 0001:00032a2b       _fnProcessActivateOI@12    10033a2b f   KZOENETA.OBJ
 0001:00032ee1       _fnProcessActivateOI_FromFile@8 10033ee1 f   KZOENETA.OBJ
 0001:00032efa       _fnRelinkOIs@16            10033efa f   KZOENETA.OBJ
 0001:000332d8       _fnProcessCommitOI@12      100342d8 f   KZOENETA.OBJ
 0001:00033cd5       _fnProcessCommitOI_ToFile@8 10034cd5 f   KZOENETA.OBJ
 0001:00033cee       _fnProcessSendFile@12      10034cee f   KZOENETA.OBJ
 0001:0003418b       _fnProcessOperation@12     1003518b f   KZOENETA.OBJ
 0001:00034e5f       _fnProcessTraceSwitches@12 10035e5f f   KZOENETA.OBJ
 0001:00034f6d       _fnProcessTimestamp@12     10035f6d f   KZOENETA.OBJ
 0001:00034ff5       _SfStartNetworks@8         10035ff5 f   KZOENETA.OBJ
 0001:00037470       _fnProcessObjectEntity     10038470 f   KZOEODAA.OBJ
 0001:00038412       _fnProcessEntityEntity     10039412 f   KZOEODAA.OBJ
 0001:00039911       _fnProcessAttribEntity     1003a911 f   KZOEODAA.OBJ
 0001:0003b05c       _fnProcessDataRecordEntity 1003c05c f   KZOEODAA.OBJ
 0001:0003b232       _fnProcessDataFieldEntity  1003c232 f   KZOEODAA.OBJ
 0001:0003b58e       _fnProcessRelRecordEntity  1003c58e f   KZOEODAA.OBJ
 0001:0003b8be       _fnProcessRelFieldEntity   1003c8be f   KZOEODAA.OBJ
 0001:0003bb65       _fnCheckIfViewOD_IsUsed@8  1003cb65 f   KZOEODAA.OBJ
 0001:0003bc6b       _DisplayObjectDefinition   1003cc6b f   KZOEODAA.OBJ
 0001:0003c2be       _ActivateViewObject@12     1003d2be f   KZOEODAA.OBJ
 0001:0003d1d3       _fnDeleteViewObject@4      1003e1d3 f   KZOEODAA.OBJ
 0001:0003d51f       _DropViewObject@12         1003e51f f   KZOEODAA.OBJ
 0001:0003efa0       _ActivateEmptyObjectInstance@16 1003ffa0 f   KZOEOIAA.OBJ
 0001:0003f231       _fnResolveQualOI           10040231 f   KZOEOIAA.OBJ
 0001:0003f55e       _fnSetLockingAttributes@36 1004055e f   KZOEOIAA.OBJ
 0001:0003f8de       _fnCreatePessimisticSemaphore@20 100408de f   KZOEOIAA.OBJ
 0001:0003fd25       _fnDeletePessimisticSemaphore@20 10040d25 f   KZOEOIAA.OBJ
 0001:00040088       _fnRelinkObjectInstance@4  10041088 f   KZOEOIAA.OBJ
 0001:00040442       _ActivateObjectInstance@20 10041442 f   KZOEOIAA.OBJ
 0001:0004167d       _fnReadDataFromFileStream@20 1004267d f   KZOEOIAA.OBJ
 0001:000417ea       _ActivateOI_FromFile@20    100427ea f   KZOEOIAA.OBJ
 0001:00041c5d       _ActivateOI_FromOI@12      10042c5d f   KZOEOIAA.OBJ
 0001:00041c77       _ActivateOI_FromOI_ForTask@16 10042c77 f   KZOEOIAA.OBJ
 0001:000423ef       _fnReadDataFromBuffer@20   100433ef f   KZOEOIAA.OBJ
 0001:0004262b       _fnActivateOI_FromBuffer@24 1004362b f   KZOEOIAA.OBJ
 0001:000426af       _fnGetDBHandlerOper@12     100436af f   KZOEOIAA.OBJ
 0001:0004290e       _fnGetGKHandlerOper        1004390e f   KZOEOIAA.OBJ
 0001:00042b5b       _CommitObjectInstance@4    10043b5b f   KZOEOIAA.OBJ
 0001:00042bb8       _CreateViewCluster@8       10043bb8 f   KZOEOIAA.OBJ
 0001:00042c38       _AddToViewCluster@12       10043c38 f   KZOEOIAA.OBJ
 0001:00042d53       _AppendViewCluster@8       10043d53 f   KZOEOIAA.OBJ
 0001:00042ded       _AddViewToViewCluster@8    10043ded f   KZOEOIAA.OBJ
 0001:00042e03       _DropViewCluster@4         10043e03 f   KZOEOIAA.OBJ
 0001:00042ef0       _CommitMultipleOIs@16      10043ef0 f   KZOEOIAA.OBJ
 0001:00043a5b       _CommitMultipleObjectInstances@8 10044a5b f   KZOEOIAA.OBJ
 0001:00043a89       _fnSetForeignKeysForInstance@4 10044a89 f   KZOEOIAA.OBJ
 0001:00043e26       _fnCheckCreateDeleteFlags@24 10044e26 f   KZOEOIAA.OBJ
 0001:000442de       _fnInitializeGenKeys@28    100452de f   KZOEOIAA.OBJ
 0001:00044db3       _fnMarkDuplicateRelationship@8 10045db3 f   KZOEOIAA.OBJ
 0001:0004509a       _fnCommitPreLoops          1004609a f   KZOEOIAA.OBJ
 0001:000452fa       _fnCleanupInstance         100462fa f   KZOEOIAA.OBJ
 0001:000457dd       _fnDeleteLocksOnTwins@24   100467dd f   KZOEOIAA.OBJ
 0001:000459dc       _fnRemoveLocksOnOIs@16     100469dc f   KZOEOIAA.OBJ
 0001:00045d36       _fnCommitSingleOI@16       10046d36 f   KZOEOIAA.OBJ
 0001:00046909       _fnCommitObjectInstance@28 10047909 f   KZOEOIAA.OBJ
 0001:00046e1a       _fnPutDataToFile@20        10047e1a f   KZOEOIAA.OBJ
 0001:00046e60       _fnWriteOI_ToTextStream    10047e60 f   KZOEOIAA.OBJ
 0001:0004863c       _SfWriteOI_ToStream@20     1004963c f   KZOEOIAA.OBJ
 0001:00048b71       _CommitOI_ToFile@12        10049b71 f   KZOEOIAA.OBJ
 0001:00048da8       _DropObjectInstance@4      10049da8 f   KZOEOIAA.OBJ
 0001:00048df5       _ObjectInstanceUpdated@4   10049df5 f   KZOEOIAA.OBJ
 0001:00048e62       _ObjectInstanceUpdatedFromFile@4 10049e62 f   KZOEOIAA.OBJ
 0001:00048ed5       _fnDropViewCsr             10049ed5 f   KZOEOIAA.OBJ
 0001:0004912e       _fnDropObjectInstance      1004a12e f   KZOEOIAA.OBJ
 0001:000491cf       _fnClearLinks@4            1004a1cf f   KZOEOIAA.OBJ
 0001:0004923e       _fnDropViewOI              1004a23e f   KZOEOIAA.OBJ
 0001:000496f9       _fnActivateEmptyObjectInstance 1004a6f9 f   KZOEOIAA.OBJ
 0001:00049a0e       _fnAddHangingEntity@8      1004aa0e f   KZOEOIAA.OBJ
 0001:00049bae       _fnCreateQualification@36  1004abae f   KZOEOIAA.OBJ
 0001:0004a034       _fnFindKeyDelim@16         1004b034 f   KZOEOIAA.OBJ
 0001:0004a12d       _fnCreateConcatKey@16      1004b12d f   KZOEOIAA.OBJ
 0001:0004a2c9       _fnCheckLocksOnTwins@24    1004b2c9 f   KZOEOIAA.OBJ
 0001:0004a622       _fnCheckForRecursiveLoop@8 1004b622 f   KZOEOIAA.OBJ
 0001:0004a930       _fnLoadChildEntities       1004b930 f   KZOEOIAA.OBJ
 0001:0004ad8d       _fnSetLocksOnTwins@24      1004bd8d f   KZOEOIAA.OBJ
 0001:0004b062       _fnActivateObjectInstance  1004c062 f   KZOEOIAA.OBJ
 0001:0004b5db       _fnActivateOI_FromTextStream 1004c5db f   KZOEOIAA.OBJ
 0001:0004d1fe       _SfActivateOI_FromStream@24 1004e1fe f   KZOEOIAA.OBJ
 0001:0004d9ab       _SfActivateSysOI_FromFile@20 1004e9ab f   KZOEOIAA.OBJ
 0001:0004da43       _SfActivateSysEmptyOI@16   1004ea43 f   KZOEOIAA.OBJ
 0001:0004dbc1       _fnDateTimeFormat          1004ebc1 f   KZOEOIAA.OBJ
 0001:0004dc80       _fnCompareEIAttrs@36       1004ec80 f   KZOEOIAA.OBJ
 0001:0004e089       _fnCmprEntities            1004f089 f   KZOEOIAA.OBJ
 0001:0004e0d6       _fnSortCmpr                1004f0d6 f   KZOEOIAA.OBJ
 0001:0004e2be       _Heapify                   1004f2be f   KZOEOIAA.OBJ
 0001:0004e393       _BuildHeap                 1004f393 f   KZOEOIAA.OBJ
 0001:0004e3fa       _fnHeapSort                1004f3fa f   KZOEOIAA.OBJ
 0001:0004e463       _fnQuickSort               1004f463 f   KZOEOIAA.OBJ
 0001:0004e5da       _fnBubbleSort              1004f5da f   KZOEOIAA.OBJ
 0001:0004e68f       _fnOrderEntityForView@16   1004f68f f   KZOEOIAA.OBJ
 0001:0004ec12       _OrderEntityForView@12     1004fc12 f   KZOEOIAA.OBJ
 0001:0004f19b       _fnGetSortAttrsFromEntity@16 1005019b f   KZOEOIAA.OBJ
 0001:0004f2d8       _fnOrderOI_ByDefaultAttribs 100502d8 f   KZOEOIAA.OBJ
 0001:0004f74b       _OrderOI_ByDefaultAttribs@4 1005074b f   KZOEOIAA.OBJ
 0001:0004f7c3       _fnOrderEntitiesByDefaultAttribs 100507c3 f   KZOEOIAA.OBJ
 0001:0004f9e5       _OrderEntitiesByDefaultAttribs@8 100509e5 f   KZOEOIAA.OBJ
 0001:0004fb57       _fnGetObjCnstrntOper       10050b57 f   KZOEOIAA.OBJ
 0001:0004fd4f       _fnInvokeOCEOperation      10050d4f f   KZOEOIAA.OBJ
 0001:0004fd86       _fnQualError@8             10050d86 f   KZOEOIAA.OBJ
 0001:0004fdb0       _CreateQualFromCommand     10050db0 f   KZOEOIAA.OBJ
 0001:0005003a       _UUENCODE_NextEncodedLine@16 1005103a f   KZOEOIAA.OBJ
 0001:00050339       _UUDECODE_NextLineToBuffer@16 10051339 f   KZOEOIAA.OBJ
 0001:00050614       _GenerateQualFromEntityList@20 10051614 f   KZOEOIAA.OBJ
 0001:00054e30       _fnVersionedForUpdate      10055e30 f   KZOESOAA.OBJ
 0001:00054fd4       _CreateTemporalSubobjectVersion@8 10055fd4 f   KZOESOAA.OBJ
 0001:0005582f       _AcceptAllTemporalSubobjects@4 1005682f f   KZOESOAA.OBJ
 0001:000559f1       _fnUpdateNextVsnRecordPointers 100569f1 f   KZOESOAA.OBJ
 0001:00055abd       _fnGetRecurseParentEntity  10056abd f   KZOESOAA.OBJ
 0001:00055b16       _fnCountEntities           10056b16 f   KZOESOAA.OBJ
 0001:00055bdc       _fnValidateCardinality     10056bdc f   KZOESOAA.OBJ
 0001:00055f18       _fnCheckChildEntities      10056f18 f   KZOESOAA.OBJ
 0001:00056430       _fnOEAcceptConstraints     10057430 f   KZOESOAA.OBJ
 0001:00056591       _AcceptSubobject@8         10057591 f   KZOESOAA.OBJ
 0001:000573c2       _fnFindLastEntityUnderParent@8 100583c2 f   KZOESOAA.OBJ
 0001:00057468       _CancelSubobject@8         10058468 f   KZOESOAA.OBJ
 0001:00057c53       _CancelAllTemporalSubobjects@4 10058c53 f   KZOESOAA.OBJ
 0001:00057e36       _IncludeSubobjectFromSubobject@20 10058e36 f   KZOESOAA.OBJ
 0001:00058bcc       _IncludeSubobjectFromSubobjectEx@24 10059bcc f   KZOESOAA.OBJ
 0001:00058de2       _fnMoveSubobjectUnderNewParent@32 10059de2 f   KZOESOAA.OBJ
 0001:0005954f       _fnMoveSubobjectAmongTwins@24 1005a54f f   KZOESOAA.OBJ
 0001:00059b59       _MoveSubobject@24          1005ab59 f   KZOESOAA.OBJ
 0001:00059dbe       _fnUpdateRelinkCursors     1005adbe f   KZOESOAA.OBJ
 0001:00059f80       _RelinkAllSubobjectsForOI@16 1005af80 f   KZOESOAA.OBJ
 0001:0005adac       _fnValidStructureEntity@20 1005bdac f   KZOESOAA.OBJ
 0001:0005b053       _fnValidSubobjectStructureMatch 1005c053 f   KZOESOAA.OBJ
 0001:0005b0d2       _fnInstanceChildOfInstanceForRel 1005c0d2 f   KZOESOAA.OBJ
 0001:0005b37a       _fnIncludeEntityAndChildren@20 1005c37a f   KZOESOAA.OBJ
 0001:0005baae       _fnIncludeSubobjectFromSubobject 1005caae f   KZOESOAA.OBJ
 0001:0005bfe3       _fnSpawnIncludeSubobject   1005cfe3 f   KZOESOAA.OBJ
 0001:0005c622       _fnRelinkVsnSubobjectToSubobject 1005d622 f   KZOESOAA.OBJ
 0001:0005cba2       _SubobjectVersionUpdated@12 1005dba2 f   KZOESOAA.OBJ
 0001:0005eda0       _SfAllocTaskMemory@12      1005fda0 f   KZOETMAA.OBJ
 0001:0005ee12       _SfReAllocTaskMemory@12    1005fe12 f   KZOETMAA.OBJ
 0001:0005eee4       _SfGetTaskMemoryLength@4   1005fee4 f   KZOETMAA.OBJ
 0001:0005eefe       _SfFreeTaskMemory@4        1005fefe f   KZOETMAA.OBJ
 0001:0005ef25       _SfLockTaskMemory@4        1005ff25 f   KZOETMAA.OBJ
 0001:0005ef36       _SfUnlockTaskMemory@4      1005ff36 f   KZOETMAA.OBJ
 0001:0005ef47       _SfSetTaskFlag@12          1005ff47 f   KZOETMAA.OBJ
 0001:0005eff2       _SfIsObjectServicesTask@4  1005fff2 f   KZOETMAA.OBJ
 0001:0005f015       _DisableTask@4             10060015 f   KZOETMAA.OBJ
 0001:0005f076       _EnableTask@4              10060076 f   KZOETMAA.OBJ
 0001:0005f0d7       _fnCreateProcess           100600d7 f   KZOETMAA.OBJ
 0001:0005f0e9       _fnCreateTask              100600e9 f   KZOETMAA.OBJ
 0001:0005f360       _fnFreeTaskDataspace       10060360 f   KZOETMAA.OBJ
 0001:0005f441       _fnDropTaskDomain          10060441 f   KZOETMAA.OBJ
 0001:0005f54e       _fnDropTaskDomains@4       1006054e f   KZOETMAA.OBJ
 0001:0005f5df       _fnDropTaskOperation@8     100605df f   KZOETMAA.OBJ
 0001:0005f875       _fnDropTaskOperations@4    10060875 f   KZOETMAA.OBJ
 0001:0005f8bc       _SfCloseTaskDatabases@4    100608bc f   KZOETMAA.OBJ
 0001:0005f9a7       _fnDropTaskHandlers@4      100609a7 f   KZOETMAA.OBJ
 0001:0005fb7c       _fnDropTaskApp             10060b7c f   KZOETMAA.OBJ
 0001:0005fbcd       _SetTaskDBHandlerTraceLevel@8 10060bcd f   KZOETMAA.OBJ
 0001:0005fc2a       _GetTaskDBHandlerTraceLevel@4 10060c2a f   KZOETMAA.OBJ
 0001:0005fc80       _fnCloseTaskNetworkModules@4 10060c80 f   KZOETMAA.OBJ
 0001:0005fc87       _fnCloseTaskOpenFiles@4    10060c87 f   KZOETMAA.OBJ
 0001:0005fcd5       _fnFreeTaskModules@4       10060cd5 f   KZOETMAA.OBJ
 0001:0005fd95       _fnDropTaskMutexes@4       10060d95 f   KZOETMAA.OBJ
 0001:0005fefb       _fnBuildHexAscii           10060efb f   KZOETMAA.OBJ
 0001:000600c6       _fnCleanupTask             100610c6 f   KZOETMAA.OBJ
 0001:000604cd       _DeleteTask@4              100614cd f   KZOETMAA.OBJ
 0001:00060bfb       _SfGetNextTask@4           10061bfb f   KZOETMAA.OBJ
 0001:00060ce3       _SfGetCurrentTask@4        10061ce3 f   KZOETMAA.OBJ
 0001:00060d04       _SfGetTaskInfo@12          10061d04 f   KZOETMAA.OBJ
 0001:00060dbd       _SfCreateSubtask@12        10061dbd f   KZOETMAA.OBJ
 0001:00060f12       _SfCreateSystemSubtask@12  10061f12 f   KZOETMAA.OBJ
 0001:0006103e       _fnCreateSubtask           1006203e f   KZOETMAA.OBJ
 0001:00061155       _SfDropSubtask@8           10062155 f   KZOETMAA.OBJ
 0001:000611c7       _fnGarbageCollectViews     100621c7 f   KZOETMAA.OBJ
 0001:00061270       _GarbageCollectViews@8     10062270 f   KZOETMAA.OBJ
 0001:00061363       _fnDropSubtask             10062363 f   KZOETMAA.OBJ
 0001:000614f3       _SfCurrentTaskIsServer@4   100624f3 f   KZOETMAA.OBJ
 0001:00061526       _fnStartBrowseOfTaskList@8 10062526 f   KZOETMAA.OBJ
 0001:0006160d       _fnEndBrowseOfTaskList@4   1006260d f   KZOETMAA.OBJ
 0001:0006169d       _fnStartBrowseOfProcessList@8 1006269d f   KZOETMAA.OBJ
 0001:00061784       _fnEndBrowseOfProcessList@4 10062784 f   KZOETMAA.OBJ
 0001:00061814       _DisplayOpenFiles@8        10062814 f   KZOETMAA.OBJ
 0001:000625a0       _OperationCount@8          100635a0 f   KZOETRAA.OBJ
 0001:00062b0f       _TraceLineI@8              10063b0f f   KZOETRAA.OBJ
 0001:00062b3b       _TraceLineX@8              10063b3b f   KZOETRAA.OBJ
 0001:00062b6f       _TraceLineS@8              10063b6f f   KZOETRAA.OBJ
 0001:0006300f       _TraceLine                 1006400f f   KZOETRAA.OBJ
 0001:00063086       _TraceBuffer@12            10064086 f   KZOETRAA.OBJ
 0001:00063420       _SetHexBuffer              10064420 f   KZOETRAA.OBJ
 0001:0006353b       _FormatInteger             1006453b f   KZOETRAA.OBJ
 0001:00063591       _TraceHex@8                10064591 f   KZOETRAA.OBJ
 0001:000636ce       _TraceBlob@12              100646ce f   KZOETRAA.OBJ
 0001:000636ef       _DisplayEntityInstance@8   100646ef f   KZOETRAA.OBJ
 0001:0006385a       _DisplayEntityInstancePath@8 1006485a f   KZOETRAA.OBJ
 0001:00063a61       _DisplayObjectInstance@12  10064a61 f   KZOETRAA.OBJ
 0001:00063ddf       _fnDisplayEntityInstance   10064ddf f   KZOETRAA.OBJ
 0001:000644b7       _fnShowEntityInstanceInfo  100654b7 f   KZOETRAA.OBJ
 0001:00064557       _fnShowViewEntityCsrInfo   10065557 f   KZOETRAA.OBJ
 0001:000645fe       _DisplayCursorInfo@4       100655fe f   KZOETRAA.OBJ
 0001:00064a3a       _fnTraceViewEntity@4       10065a3a f   KZOETRAA.OBJ
 0001:0006509f       _fnTraceViewAttrib@8       1006609f f   KZOETRAA.OBJ
 0001:00065391       _DisplayObjectDef@8        10066391 f   KZOETRAA.OBJ
 0001:00065a61       _fnCompareEntityToEntity   10066a61 f   KZOETRAA.OBJ
 0001:00065cbe       _CompareEntityToEntity@16  10066cbe f   KZOETRAA.OBJ
 0001:00065d75       _fnCompareEntitiesIgnoringAttrs 10066d75 f   KZOETRAA.OBJ
 0001:000660ac       _CompareEntitiesIgnoringAttrs@20 100670ac f   KZOETRAA.OBJ
 0001:00066163       _fnCompareSkipEntityInstance 10067163 f   KZOETRAA.OBJ
 0001:00066256       _fnCompareOI_ToOI          10067256 f   KZOETRAA.OBJ
 0001:00066477       _CompareOI_ToOI@8          10067477 f   KZOETRAA.OBJ
 0001:0006658b       _GetTracingFlags@0         1006758b f   KZOETRAA.OBJ
 0001:000675b0       _zltoal                    100685b0 f   KZOEUFAA.OBJ
 0001:00067641       _UfFormatDateTime@12       10068641 f   KZOEUFAA.OBJ
 0001:0006857a       _UfEditFormatDateTime@8    1006957a f   KZOEUFAA.OBJ
 0001:00069688       _UfStringToDateTime@8      1006a688 f   KZOEUFAA.OBJ
 0001:00069b37       _fnValidateDay             1006ab37 f   KZOEUFAA.OBJ
 0001:00069c33       _UfDateTimeToString@12     1006ac33 f   KZOEUFAA.OBJ
 0001:0006a086       _UfCompareDateTimeToDateTime@8 1006b086 f   KZOEUFAA.OBJ
 0001:0006a09d       _UfGetDayOfWeek@4          1006b09d f   KZOEUFAA.OBJ
 0001:0006a1ca       _UfGetDayOfYear@4          1006b1ca f   KZOEUFAA.OBJ
 0001:0006a2d3       _UfGetWeekOfYear@4         1006b2d3 f   KZOEUFAA.OBJ
 0001:0006a2f1       _fnGetDateTimeComponent    1006b2f1 f   KZOEUFAA.OBJ
 0001:0006a3c9       _fnSetDateTimeComponent    1006b3c9 f   KZOEUFAA.OBJ
 0001:0006a54a       _UfJulianToGregorian@8     1006b54a f   KZOEUFAA.OBJ
 0001:0006a697       _UfEncryptString@12        1006b697 f   KZOEUFAA.OBJ
 0001:0006a9ab       _UfDecryptString@12        1006b9ab f   KZOEUFAA.OBJ
 0001:0006ac4f       _UfAddToDateTime@12        1006bc4f f   KZOEUFAA.OBJ
 0001:0006b12f       _UfDateTimeDiff@16         1006c12f f   KZOEUFAA.OBJ
 0001:0006b4cf       _UfEditFormatString@8      1006c4cf f   KZOEUFAA.OBJ
 0001:0006b9f7       _UfFormatString@8          1006c9f7 f   KZOEUFAA.OBJ
 0001:0006bdd6       _fnDetermineDateTimeStrlen 1006cdd6 f   KZOEUFAA.OBJ
 0001:0006c35f       _ZeidonStringCopy@28       1006d35f f   KZOEUFAA.OBJ
 0001:0006c536       _ZeidonStringConcat@28     1006d536 f   KZOEUFAA.OBJ
 0001:0006c6d3       _ZeidonStringCompare@28    1006d6d3 f   KZOEUFAA.OBJ
 0001:0006c7f8       _ZeidonStringFind@12       1006d7f8 f   KZOEUFAA.OBJ
 0001:0006c840       _ZeidonStringConvertFromNumber@64 1006d840 f   KZOEUFAA.OBJ
 0001:0006c997       _ZeidonCopyWithinString@16 1006d997 f   KZOEUFAA.OBJ
 0001:0006ca39       _fnRemoveChars@24          1006da39 f   KZOEUFAA.OBJ
 0001:0006cc40       _UfCompressName@32         1006dc40 f   KZOEUFAA.OBJ
 0001:0006d0cc       _UfZProbeEnable@4          1006e0cc f   KZOEUFAA.OBJ
 0001:0006d108       _UfZProbeInit@0            1006e108 f   KZOEUFAA.OBJ
 0001:0006d22e       _UfZProbeOn@12             1006e22e f   KZOEUFAA.OBJ
 0001:0006d440       _UfZProbeOff@8             1006e440 f   KZOEUFAA.OBJ
 0001:0006d5b5       _UfZProbeOnByDesc@8        1006e5b5 f   KZOEUFAA.OBJ
 0001:0006d647       _UfZProbeOffByDesc@4       1006e647 f   KZOEUFAA.OBJ
 0001:0006d702       _UfZProbeTrace@4           1006e702 f   KZOEUFAA.OBJ
 0001:0006f300       _fnAddEntityToDebugChange@4 10070300 f   KZOEVLAA.OBJ
 0001:0006f4a6       _fnRemoveEntityFromDebugChange@4 100704a6 f   KZOEVLAA.OBJ
 0001:0006f618       _fnPrintDebugFromSameInstance@4 10070618 f   KZOEVLAA.OBJ
 0001:0006f803       _fnCompareDebugChange@8    10070803 f   KZOEVLAA.OBJ
 0001:0006fe17       _fnOperationCall           10070e17 f   KZOEVLAA.OBJ
 0001:00070180       _fnOperationReturn         10071180 f   KZOEVLAA.OBJ
 0001:00070297       _fnValidView               10071297 f   KZOEVLAA.OBJ
 0001:0007036c       _fnValidSubtaskView        1007136c f   KZOEVLAA.OBJ
 0001:000703b9       _fnValidViewObject         100713b9 f   KZOEVLAA.OBJ
 0001:00070406       _fnValidViewCsr            10071406 f   KZOEVLAA.OBJ
 0001:0007046b       _fnValidViewEntity@16      1007146b f   KZOEVLAA.OBJ
 0001:0007065b       _fnValidViewAttrib         1007165b f   KZOEVLAA.OBJ
 0001:000707fd       _TrueName@8                100717fd f   KZOEVLAA.OBJ
 0001:00070897       _NameForZKey@8             10071897 f   KZOEVLAA.OBJ
 0001:000708b4       _fnValidNumericString      100718b4 f   KZOEVLAA.OBJ
 0001:0007099b       _fnValidDecimalString      1007199b f   KZOEVLAA.OBJ
 0001:00070ae4       _SfCheckOI_Integrity@8     10071ae4 f   KZOEVLAA.OBJ
 0001:000713d0       _fnCreateEntityCsrHandle@12 100723d0 f   KZOEVMAA.OBJ
 0001:00071411       _SetViewReadOnly@4         10072411 f   KZOEVMAA.OBJ
 0001:00071460       _SetViewUpdate@4           10072460 f   KZOEVMAA.OBJ
 0001:000714af       _SetViewFlags@8            100724af f   KZOEVMAA.OBJ
 0001:00071543       _GetViewFlags@4            10072543 f   KZOEVMAA.OBJ
 0001:0007159d       _CreateViewTrace@16        1007259d f   KZOEVMAA.OBJ
 0001:000715fd       _CreateViewFromView@8      100725fd f   KZOEVMAA.OBJ
 0001:00071613       _CreateViewFromViewForTask@12 10072613 f   KZOEVMAA.OBJ
 0001:0007172e       _SfCreateSysViewFromView@8 1007272e f   KZOEVMAA.OBJ
 0001:00071824       _fnDeclareView@20          10072824 f   KZOEVMAA.OBJ
 0001:00071946       _SetViewFromView@8         10072946 f   KZOEVMAA.OBJ
 0001:000719cb       _fnSetViewFromView         100729cb f   KZOEVMAA.OBJ
 0001:000722cc       _DropNameForView@16        100732cc f   KZOEVMAA.OBJ
 0001:00072968       _GetNameForView@16         10073968 f   KZOEVMAA.OBJ
 0001:00072bf8       _SfSetSubtaskView@8        10073bf8 f   KZOEVMAA.OBJ
 0001:00072db5       _SetDefaultViewForActiveTask@8 10073db5 f   KZOEVMAA.OBJ
 0001:00072eb9       _GetDefaultViewForActiveTask@0 10073eb9 f   KZOEVMAA.OBJ
 0001:00072ec3       _SetNameForView@16         10073ec3 f   KZOEVMAA.OBJ
 0001:00073859       _GetViewByName@16          10074859 f   KZOEVMAA.OBJ
 0001:00074063       _SfGetFirstNamedView@16    10075063 f   KZOEVMAA.OBJ
 0001:00074269       _SfGetNextNamedView@16     10075269 f   KZOEVMAA.OBJ
 0001:00074683       _ResetView@4               10075683 f   KZOEVMAA.OBJ
 0001:000746d8       _ResetViewPositions@4      100756d8 f   KZOEVMAA.OBJ
 0001:0007472d       _SetViewToSubobject@8      1007572d f   KZOEVMAA.OBJ
 0001:000749ba       _ResetViewFromSubobjectWithoutError@4 100759ba f   KZOEVMAA.OBJ
 0001:00074aa4       _ResetViewFromSubobject@4  10075aa4 f   KZOEVMAA.OBJ
 0001:00074bd3       _DropViewTrace@8           10075bd3 f   KZOEVMAA.OBJ
 0001:00074c12       _DropView@4                10075c12 f   KZOEVMAA.OBJ
 0001:00074d3e       _SfGetFirstSubtaskView@8   10075d3e f   KZOEVMAA.OBJ
 0001:00074dc0       _SfGetNextSubtaskView@8    10075dc0 f   KZOEVMAA.OBJ
 0001:00074e52       _SfSetApplicationTask@8    10075e52 f   KZOEVMAA.OBJ
 0001:00074f04       _SfSetUserIdForTask@8      10075f04 f   KZOEVMAA.OBJ
 0001:00074f66       _SfGetUserIdForTask@8      10075f66 f   KZOEVMAA.OBJ
 0001:00074fbc       _SfTransferView@12         10075fbc f   KZOEVMAA.OBJ
 0001:0007537c       _SfLockView@4              1007637c f   KZOEVMAA.OBJ
 0001:000753cb       _fnDropView@4              100763cb f   KZOEVMAA.OBJ
 0001:00075fe5       _fnSetViewToSubobject      10076fe5 f   KZOEVMAA.OBJ
 0001:000764d9       _fnResetView               100774d9 f   KZOEVMAA.OBJ
 0001:00076730       _fnResetViewFromSubobject  10077730 f   KZOEVMAA.OBJ
 0001:00076b48       _fnDropAllViewSubobjects   10077b48 f   KZOEVMAA.OBJ
 0001:00078190       _fnContainsSpecialChar@4   10079190 f   KZOEXMLA.OBJ
 0001:0007825b       _fnAppendKeyAttribs@8      1007925b f   KZOEXMLA.OBJ
 0001:00078907       _fnWriteAttribs@20         10079907 f   KZOEXMLA.OBJ
 0001:000793dd       _fnWriteEntityStartTag@12  1007a3dd f   KZOEXMLA.OBJ
 0001:000799f6       _fnWriteAttribEntry@24     1007a9f6 f   KZOEXMLA.OBJ
 0001:0007a026       _fnWriteListEntryValue@16  1007b026 f   KZOEXMLA.OBJ
 0001:0007a162       _fnWriteControlEntry@16    1007b162 f   KZOEXMLA.OBJ
 0001:0007a863       _fnConvertEntity@12        1007b863 f   KZOEXMLA.OBJ
 0001:0007ac28       _WriteSubobjectToXML@20    1007bc28 f   KZOEXMLA.OBJ
 0001:0007b106       _WriteOI_ToXML@16          1007c106 f   KZOEXMLA.OBJ
 0001:0007b164       _WriteMultipleOIs_ToXML@20 1007c164 f   KZOEXMLA.OBJ
 0001:0007b5ad       _fnGetIdentifierValue@16   1007c5ad f   KZOEXMLA.OBJ
 0001:0007b659       _fnTraceAttributes@8       1007c659 f   KZOEXMLA.OBJ
 0001:0007b6d6       _fnProcessOI_Element@8     1007c6d6 f   KZOEXMLA.OBJ
 0001:0007b7bb       _fnProcessEntityElement@16 1007c7bb f   KZOEXMLA.OBJ
 0001:0007bcbb       _fnProcessAttribElement@12 1007ccbb f   KZOEXMLA.OBJ
 0001:0007bf8d       _startElement              1007cf8d f   KZOEXMLA.OBJ
 0001:0007c45a       _endElement                1007d45a f   KZOEXMLA.OBJ
 0001:0007c689       _GetElementData            1007d689 f   KZOEXMLA.OBJ
 0001:0007c810       _unknownEncodingHandler    1007d810 f   KZOEXMLA.OBJ
 0001:0007c859       _ActivateOI_FromXML@24     1007d859 f   KZOEXMLA.OBJ
 0001:0007cbdb       _fnReadXMLData@16          1007dbdb f   KZOEXMLA.OBJ
 0001:0007cc28       _ActivateOI_FromXML_File@20 1007dc28 f   KZOEXMLA.OBJ
 0001:0007cd3e       _fnWriteXML_ToFile@24      1007dd3e f   KZOEXMLA.OBJ
 0001:0007ce00       _CommitOI_ToXML_File@12    1007de00 f   KZOEXMLA.OBJ
 0001:0007cf9b       _CommitSubobjectToXML_File@16 1007df9b f   KZOEXMLA.OBJ
 0001:0007e500       _oKZWDLGXO_DerivedControlText@16 1007f500 f   KZWDLGXO.OBJ
 0001:0007e63a       _oKZWDLGXO_DerivedOptionText@16 1007f63a f   KZWDLGXO.OBJ
 0001:0007e756       _oKZWDLGXO_DerivedCaption@16 1007f756 f   KZWDLGXO.OBJ
 0001:0007e854       _oKZWDLGXO_DerivedDIL_Msg@16 1007f854 f   KZWDLGXO.OBJ
 0001:0007ea10       ??0ZDecimal@@QAE@XZ        1007fa10 f   KZOEDECA.OBJ
 0001:0007ea27       ??0ZDecimal@@QAE@UDecimalStruct@@@Z 1007fa27 f   KZOEDECA.OBJ
 0001:0007ea50       ??0ZDecimal@@QAE@PAUDecimalStruct@@@Z 1007fa50 f   KZOEDECA.OBJ
 0001:0007ea79       ??0ZDecimal@@QAE@PAD@Z     1007fa79 f   KZOEDECA.OBJ
 0001:0007ea96       ??0ZDecimal@@QAE@PBD@Z     1007fa96 f   KZOEDECA.OBJ
 0001:0007eab3       ??0ZDecimal@@QAE@J@Z       1007fab3 f   KZOEDECA.OBJ
 0001:0007ead0       ??0ZDecimal@@QAE@K@Z       1007fad0 f   KZOEDECA.OBJ
 0001:0007eaed       ??0ZDecimal@@QAE@F@Z       1007faed f   KZOEDECA.OBJ
 0001:0007eb0b       ??0ZDecimal@@QAE@G@Z       1007fb0b f   KZOEDECA.OBJ
 0001:0007eb2e       ??0ZDecimal@@QAE@N@Z       1007fb2e f   KZOEDECA.OBJ
 0001:0007eb4f       ??0ZDecimal@@QAE@H@Z       1007fb4f f   KZOEDECA.OBJ
 0001:0007eb6c       ??0ZDecimal@@QAE@I@Z       1007fb6c f   KZOEDECA.OBJ
 0001:0007eb89       ??1ZDecimal@@QAE@XZ        1007fb89 f   KZOEDECA.OBJ
 0001:0007eb94       ??4ZDecimal@@QAE?AV0@V0@@Z 1007fb94 f   KZOEDECA.OBJ
 0001:0007ebca       ??4ZDecimal@@QAE?AV0@UDecimalStruct@@@Z 1007fbca f   KZOEDECA.OBJ
 0001:0007ebf8       ??4ZDecimal@@QAE?AV0@PAUDecimalStruct@@@Z 1007fbf8 f   KZOEDECA.OBJ
 0001:0007ec26       ??4ZDecimal@@QAE?AV0@PAX@Z 1007fc26 f   KZOEDECA.OBJ
 0001:0007ec54       ??4ZDecimal@@QAE?AV0@J@Z   1007fc54 f   KZOEDECA.OBJ
 0001:0007ec82       ??4ZDecimal@@QAE?AV0@K@Z   1007fc82 f   KZOEDECA.OBJ
 0001:0007ecb0       ??4ZDecimal@@QAE?AV0@F@Z   1007fcb0 f   KZOEDECA.OBJ
 0001:0007ecdf       ??4ZDecimal@@QAE?AV0@G@Z   1007fcdf f   KZOEDECA.OBJ
 0001:0007ed13       ??4ZDecimal@@QAE?AV0@H@Z   1007fd13 f   KZOEDECA.OBJ
 0001:0007ed41       ??4ZDecimal@@QAE?AV0@I@Z   1007fd41 f   KZOEDECA.OBJ
 0001:0007ed6f       ??4ZDecimal@@QAE?AV0@N@Z   1007fd6f f   KZOEDECA.OBJ
 0001:0007eda1       ??4ZDecimal@@QBE?AV0@N@Z   1007fda1 f   KZOEDECA.OBJ
 0001:0007edd3       ??4ZDecimal@@QAE?AV0@PAD@Z 1007fdd3 f   KZOEDECA.OBJ
 0001:0007ee01       ??4ZDecimal@@QAE?AV0@PBD@Z 1007fe01 f   KZOEDECA.OBJ
 0001:0007ee2f       ??BZDecimal@@QAENXZ        1007fe2f f   KZOEDECA.OBJ
 0001:0007ee4c       ??BZDecimal@@QAEJXZ        1007fe4c f   KZOEDECA.OBJ
 0001:0007ee69       ??BZDecimal@@QAEKXZ        1007fe69 f   KZOEDECA.OBJ
 0001:0007ee86       ??BZDecimal@@QAEFXZ        1007fe86 f   KZOEDECA.OBJ
 0001:0007eea4       ??BZDecimal@@QAEGXZ        1007fea4 f   KZOEDECA.OBJ
 0001:0007eec2       ??BZDecimal@@QAEPADXZ      1007fec2 f   KZOEDECA.OBJ
 0001:0007eee5       ?IsNull@ZDecimal@@QAEEXZ   1007fee5 f   KZOEDECA.OBJ
 0001:0007ef01       ??N@YGDVZDecimal@@0@Z      1007ff01 f   KZOEDECA.OBJ
 0001:0007ef3e       ??M@YGDVZDecimal@@0@Z      1007ff3e f   KZOEDECA.OBJ
 0001:0007ef7b       ??P@YGDVZDecimal@@0@Z      1007ff7b f   KZOEDECA.OBJ
 0001:0007efb8       ??O@YGDVZDecimal@@0@Z      1007ffb8 f   KZOEDECA.OBJ
 0001:0007eff5       ??8@YGDVZDecimal@@0@Z      1007fff5 f   KZOEDECA.OBJ
 0001:0007f030       ??9@YGDVZDecimal@@0@Z      10080030 f   KZOEDECA.OBJ
 0001:0007f06c       ??7@YGDVZDecimal@@@Z       1008006c f   KZOEDECA.OBJ
 0001:0007f0bf       ??H@YG?AVZDecimal@@V0@0@Z  100800bf f   KZOEDECA.OBJ
 0001:0007f125       ??H@YG?AVZDecimal@@V0@J@Z  10080125 f   KZOEDECA.OBJ
 0001:0007f1ad       ??H@YG?AVZDecimal@@JV0@@Z  100801ad f   KZOEDECA.OBJ
 0001:0007f232       ??H@YG?AVZDecimal@@V0@K@Z  10080232 f   KZOEDECA.OBJ
 0001:0007f2ba       ??H@YG?AVZDecimal@@KV0@@Z  100802ba f   KZOEDECA.OBJ
 0001:0007f33f       ??H@YG?AVZDecimal@@V0@F@Z  1008033f f   KZOEDECA.OBJ
 0001:0007f3c8       ??H@YG?AVZDecimal@@FV0@@Z  100803c8 f   KZOEDECA.OBJ
 0001:0007f44e       ??H@YG?AVZDecimal@@V0@G@Z  1008044e f   KZOEDECA.OBJ
 0001:0007f4d7       ??H@YG?AVZDecimal@@GV0@@Z  100804d7 f   KZOEDECA.OBJ
 0001:0007f55d       ??H@YG?AVZDecimal@@V0@H@Z  1008055d f   KZOEDECA.OBJ
 0001:0007f5e5       ??H@YG?AVZDecimal@@HV0@@Z  100805e5 f   KZOEDECA.OBJ
 0001:0007f66a       ??H@YG?AVZDecimal@@V0@I@Z  1008066a f   KZOEDECA.OBJ
 0001:0007f6f2       ??H@YG?AVZDecimal@@IV0@@Z  100806f2 f   KZOEDECA.OBJ
 0001:0007f777       ??H@YG?AVZDecimal@@V0@D@Z  10080777 f   KZOEDECA.OBJ
 0001:0007f801       ??H@YG?AVZDecimal@@DV0@@Z  10080801 f   KZOEDECA.OBJ
 0001:0007f888       ??H@YG?AVZDecimal@@V0@E@Z  10080888 f   KZOEDECA.OBJ
 0001:0007f912       ??H@YG?AVZDecimal@@EV0@@Z  10080912 f   KZOEDECA.OBJ
 0001:0007f999       ??H@YG?AVZDecimal@@V0@N@Z  10080999 f   KZOEDECA.OBJ
 0001:0007fa28       ??H@YG?AVZDecimal@@NV0@@Z  10080a28 f   KZOEDECA.OBJ
 0001:0007fab1       ??H@YG?AVZDecimal@@V0@M@Z  10080ab1 f   KZOEDECA.OBJ
 0001:0007fb3e       ??H@YG?AVZDecimal@@MV0@@Z  10080b3e f   KZOEDECA.OBJ
 0001:0007fbc8       ??G@YG?AVZDecimal@@V0@0@Z  10080bc8 f   KZOEDECA.OBJ
 0001:0007fc2e       ??G@YG?AVZDecimal@@V0@J@Z  10080c2e f   KZOEDECA.OBJ
 0001:0007fcb6       ??G@YG?AVZDecimal@@JV0@@Z  10080cb6 f   KZOEDECA.OBJ
 0001:0007fd3b       ??G@YG?AVZDecimal@@V0@K@Z  10080d3b f   KZOEDECA.OBJ
 0001:0007fdc3       ??G@YG?AVZDecimal@@KV0@@Z  10080dc3 f   KZOEDECA.OBJ
 0001:0007fe48       ??G@YG?AVZDecimal@@V0@F@Z  10080e48 f   KZOEDECA.OBJ
 0001:0007fed1       ??G@YG?AVZDecimal@@FV0@@Z  10080ed1 f   KZOEDECA.OBJ
 0001:0007ff57       ??G@YG?AVZDecimal@@V0@G@Z  10080f57 f   KZOEDECA.OBJ
 0001:0007ffe0       ??G@YG?AVZDecimal@@GV0@@Z  10080fe0 f   KZOEDECA.OBJ
 0001:00080066       ??G@YG?AVZDecimal@@V0@H@Z  10081066 f   KZOEDECA.OBJ
 0001:000800ee       ??G@YG?AVZDecimal@@HV0@@Z  100810ee f   KZOEDECA.OBJ
 0001:00080173       ??G@YG?AVZDecimal@@V0@I@Z  10081173 f   KZOEDECA.OBJ
 0001:000801fb       ??G@YG?AVZDecimal@@IV0@@Z  100811fb f   KZOEDECA.OBJ
 0001:00080280       ??G@YG?AVZDecimal@@V0@D@Z  10081280 f   KZOEDECA.OBJ
 0001:0008030a       ??G@YG?AVZDecimal@@DV0@@Z  1008130a f   KZOEDECA.OBJ
 0001:00080391       ??G@YG?AVZDecimal@@V0@E@Z  10081391 f   KZOEDECA.OBJ
 0001:0008041b       ??G@YG?AVZDecimal@@EV0@@Z  1008141b f   KZOEDECA.OBJ
 0001:000804a2       ??G@YG?AVZDecimal@@V0@N@Z  100814a2 f   KZOEDECA.OBJ
 0001:00080531       ??G@YG?AVZDecimal@@NV0@@Z  10081531 f   KZOEDECA.OBJ
 0001:000805ba       ??G@YG?AVZDecimal@@V0@M@Z  100815ba f   KZOEDECA.OBJ
 0001:00080647       ??G@YG?AVZDecimal@@MV0@@Z  10081647 f   KZOEDECA.OBJ
 0001:000806d1       ??D@YG?AVZDecimal@@V0@0@Z  100816d1 f   KZOEDECA.OBJ
 0001:00080737       ??D@YG?AVZDecimal@@V0@J@Z  10081737 f   KZOEDECA.OBJ
 0001:000807bf       ??D@YG?AVZDecimal@@JV0@@Z  100817bf f   KZOEDECA.OBJ
 0001:00080844       ??D@YG?AVZDecimal@@V0@K@Z  10081844 f   KZOEDECA.OBJ
 0001:000808cc       ??D@YG?AVZDecimal@@KV0@@Z  100818cc f   KZOEDECA.OBJ
 0001:00080951       ??D@YG?AVZDecimal@@V0@F@Z  10081951 f   KZOEDECA.OBJ
 0001:000809da       ??D@YG?AVZDecimal@@FV0@@Z  100819da f   KZOEDECA.OBJ
 0001:00080a60       ??D@YG?AVZDecimal@@V0@G@Z  10081a60 f   KZOEDECA.OBJ
 0001:00080ae9       ??D@YG?AVZDecimal@@GV0@@Z  10081ae9 f   KZOEDECA.OBJ
 0001:00080b6f       ??D@YG?AVZDecimal@@V0@H@Z  10081b6f f   KZOEDECA.OBJ
 0001:00080bf7       ??D@YG?AVZDecimal@@HV0@@Z  10081bf7 f   KZOEDECA.OBJ
 0001:00080c7c       ??D@YG?AVZDecimal@@V0@I@Z  10081c7c f   KZOEDECA.OBJ
 0001:00080d04       ??D@YG?AVZDecimal@@IV0@@Z  10081d04 f   KZOEDECA.OBJ
 0001:00080d89       ??D@YG?AVZDecimal@@V0@D@Z  10081d89 f   KZOEDECA.OBJ
 0001:00080e13       ??D@YG?AVZDecimal@@DV0@@Z  10081e13 f   KZOEDECA.OBJ
 0001:00080e9a       ??D@YG?AVZDecimal@@V0@E@Z  10081e9a f   KZOEDECA.OBJ
 0001:00080f24       ??D@YG?AVZDecimal@@EV0@@Z  10081f24 f   KZOEDECA.OBJ
 0001:00080fab       ??D@YG?AVZDecimal@@V0@N@Z  10081fab f   KZOEDECA.OBJ
 0001:0008103a       ??D@YG?AVZDecimal@@NV0@@Z  1008203a f   KZOEDECA.OBJ
 0001:000810c3       ??D@YG?AVZDecimal@@V0@M@Z  100820c3 f   KZOEDECA.OBJ
 0001:00081150       ??D@YG?AVZDecimal@@MV0@@Z  10082150 f   KZOEDECA.OBJ
 0001:000811da       ??K@YG?AVZDecimal@@V0@0@Z  100821da f   KZOEDECA.OBJ
 0001:00081240       ??K@YG?AVZDecimal@@V0@J@Z  10082240 f   KZOEDECA.OBJ
 0001:000812c8       ??K@YG?AVZDecimal@@JV0@@Z  100822c8 f   KZOEDECA.OBJ
 0001:0008134d       ??K@YG?AVZDecimal@@V0@K@Z  1008234d f   KZOEDECA.OBJ
 0001:000813d5       ??K@YG?AVZDecimal@@KV0@@Z  100823d5 f   KZOEDECA.OBJ
 0001:0008145a       ??K@YG?AVZDecimal@@V0@F@Z  1008245a f   KZOEDECA.OBJ
 0001:000814e3       ??K@YG?AVZDecimal@@FV0@@Z  100824e3 f   KZOEDECA.OBJ
 0001:00081569       ??K@YG?AVZDecimal@@V0@G@Z  10082569 f   KZOEDECA.OBJ
 0001:000815f2       ??K@YG?AVZDecimal@@GV0@@Z  100825f2 f   KZOEDECA.OBJ
 0001:00081678       ??K@YG?AVZDecimal@@V0@H@Z  10082678 f   KZOEDECA.OBJ
 0001:00081700       ??K@YG?AVZDecimal@@HV0@@Z  10082700 f   KZOEDECA.OBJ
 0001:00081785       ??K@YG?AVZDecimal@@V0@I@Z  10082785 f   KZOEDECA.OBJ
 0001:0008180d       ??K@YG?AVZDecimal@@IV0@@Z  1008280d f   KZOEDECA.OBJ
 0001:00081892       ??K@YG?AVZDecimal@@V0@D@Z  10082892 f   KZOEDECA.OBJ
 0001:0008191c       ??K@YG?AVZDecimal@@DV0@@Z  1008291c f   KZOEDECA.OBJ
 0001:000819a3       ??K@YG?AVZDecimal@@V0@E@Z  100829a3 f   KZOEDECA.OBJ
 0001:00081a2d       ??K@YG?AVZDecimal@@EV0@@Z  10082a2d f   KZOEDECA.OBJ
 0001:00081ab4       ??K@YG?AVZDecimal@@V0@N@Z  10082ab4 f   KZOEDECA.OBJ
 0001:00081b43       ??K@YG?AVZDecimal@@NV0@@Z  10082b43 f   KZOEDECA.OBJ
 0001:00081bcc       ??K@YG?AVZDecimal@@V0@M@Z  10082bcc f   KZOEDECA.OBJ
 0001:00081c59       ??K@YG?AVZDecimal@@MV0@@Z  10082c59 f   KZOEDECA.OBJ
 0001:00081ce3       ??P@YGDJVZDecimal@@@Z      10082ce3 f   KZOEDECA.OBJ
 0001:00081d6d       ??P@YGDVZDecimal@@J@Z      10082d6d f   KZOEDECA.OBJ
 0001:00081dfa       ??P@YGDKVZDecimal@@@Z      10082dfa f   KZOEDECA.OBJ
 0001:00081e84       ??P@YGDVZDecimal@@K@Z      10082e84 f   KZOEDECA.OBJ
 0001:00081f11       ??P@YGDFVZDecimal@@@Z      10082f11 f   KZOEDECA.OBJ
 0001:00081f9c       ??P@YGDVZDecimal@@F@Z      10082f9c f   KZOEDECA.OBJ
 0001:0008202a       ??P@YGDGVZDecimal@@@Z      1008302a f   KZOEDECA.OBJ
 0001:000820b5       ??P@YGDVZDecimal@@G@Z      100830b5 f   KZOEDECA.OBJ
 0001:00082143       ??P@YGDVZDecimal@@H@Z      10083143 f   KZOEDECA.OBJ
 0001:000821d0       ??P@YGDHVZDecimal@@@Z      100831d0 f   KZOEDECA.OBJ
 0001:0008225a       ??P@YGDVZDecimal@@I@Z      1008325a f   KZOEDECA.OBJ
 0001:000822e7       ??P@YGDIVZDecimal@@@Z      100832e7 f   KZOEDECA.OBJ
 0001:00082371       ??P@YGDVZDecimal@@D@Z      10083371 f   KZOEDECA.OBJ
 0001:00082400       ??P@YGDDVZDecimal@@@Z      10083400 f   KZOEDECA.OBJ
 0001:0008248c       ??P@YGDEVZDecimal@@@Z      1008348c f   KZOEDECA.OBJ
 0001:00082518       ??P@YGDVZDecimal@@E@Z      10083518 f   KZOEDECA.OBJ
 0001:000825a7       ??P@YGDNVZDecimal@@@Z      100835a7 f   KZOEDECA.OBJ
 0001:00082635       ??P@YGDVZDecimal@@N@Z      10083635 f   KZOEDECA.OBJ
 0001:000826c9       ??P@YGDMVZDecimal@@@Z      100836c9 f   KZOEDECA.OBJ
 0001:00082758       ??P@YGDVZDecimal@@M@Z      10083758 f   KZOEDECA.OBJ
 0001:000827ea       ??O@YGDJVZDecimal@@@Z      100837ea f   KZOEDECA.OBJ
 0001:00082874       ??O@YGDVZDecimal@@J@Z      10083874 f   KZOEDECA.OBJ
 0001:00082901       ??O@YGDKVZDecimal@@@Z      10083901 f   KZOEDECA.OBJ
 0001:0008298b       ??O@YGDVZDecimal@@K@Z      1008398b f   KZOEDECA.OBJ
 0001:00082a18       ??O@YGDFVZDecimal@@@Z      10083a18 f   KZOEDECA.OBJ
 0001:00082aa3       ??O@YGDVZDecimal@@F@Z      10083aa3 f   KZOEDECA.OBJ
 0001:00082b31       ??O@YGDGVZDecimal@@@Z      10083b31 f   KZOEDECA.OBJ
 0001:00082bbc       ??O@YGDVZDecimal@@G@Z      10083bbc f   KZOEDECA.OBJ
 0001:00082c4a       ??O@YGDVZDecimal@@H@Z      10083c4a f   KZOEDECA.OBJ
 0001:00082cd7       ??O@YGDHVZDecimal@@@Z      10083cd7 f   KZOEDECA.OBJ
 0001:00082d61       ??O@YGDVZDecimal@@I@Z      10083d61 f   KZOEDECA.OBJ
 0001:00082dee       ??O@YGDIVZDecimal@@@Z      10083dee f   KZOEDECA.OBJ
 0001:00082e78       ??O@YGDVZDecimal@@D@Z      10083e78 f   KZOEDECA.OBJ
 0001:00082f07       ??O@YGDDVZDecimal@@@Z      10083f07 f   KZOEDECA.OBJ
 0001:00082f93       ??O@YGDEVZDecimal@@@Z      10083f93 f   KZOEDECA.OBJ
 0001:0008301f       ??O@YGDVZDecimal@@E@Z      1008401f f   KZOEDECA.OBJ
 0001:000830ae       ??O@YGDNVZDecimal@@@Z      100840ae f   KZOEDECA.OBJ
 0001:0008313c       ??O@YGDVZDecimal@@N@Z      1008413c f   KZOEDECA.OBJ
 0001:000831d0       ??O@YGDMVZDecimal@@@Z      100841d0 f   KZOEDECA.OBJ
 0001:0008325f       ??O@YGDVZDecimal@@M@Z      1008425f f   KZOEDECA.OBJ
 0001:000832f1       ??N@YGDJVZDecimal@@@Z      100842f1 f   KZOEDECA.OBJ
 0001:0008337b       ??N@YGDVZDecimal@@J@Z      1008437b f   KZOEDECA.OBJ
 0001:00083408       ??N@YGDKVZDecimal@@@Z      10084408 f   KZOEDECA.OBJ
 0001:00083492       ??N@YGDVZDecimal@@K@Z      10084492 f   KZOEDECA.OBJ
 0001:0008351f       ??N@YGDFVZDecimal@@@Z      1008451f f   KZOEDECA.OBJ
 0001:000835aa       ??N@YGDVZDecimal@@F@Z      100845aa f   KZOEDECA.OBJ
 0001:00083638       ??N@YGDGVZDecimal@@@Z      10084638 f   KZOEDECA.OBJ
 0001:000836c3       ??N@YGDVZDecimal@@G@Z      100846c3 f   KZOEDECA.OBJ
 0001:00083751       ??N@YGDVZDecimal@@H@Z      10084751 f   KZOEDECA.OBJ
 0001:000837de       ??N@YGDHVZDecimal@@@Z      100847de f   KZOEDECA.OBJ
 0001:00083868       ??N@YGDVZDecimal@@I@Z      10084868 f   KZOEDECA.OBJ
 0001:000838f5       ??N@YGDIVZDecimal@@@Z      100848f5 f   KZOEDECA.OBJ
 0001:0008397f       ??N@YGDVZDecimal@@D@Z      1008497f f   KZOEDECA.OBJ
 0001:00083a0e       ??N@YGDDVZDecimal@@@Z      10084a0e f   KZOEDECA.OBJ
 0001:00083a9a       ??N@YGDEVZDecimal@@@Z      10084a9a f   KZOEDECA.OBJ
 0001:00083b26       ??N@YGDVZDecimal@@E@Z      10084b26 f   KZOEDECA.OBJ
 0001:00083bb5       ??N@YGDNVZDecimal@@@Z      10084bb5 f   KZOEDECA.OBJ
 0001:00083c43       ??N@YGDVZDecimal@@N@Z      10084c43 f   KZOEDECA.OBJ
 0001:00083cd7       ??N@YGDMVZDecimal@@@Z      10084cd7 f   KZOEDECA.OBJ
 0001:00083d66       ??N@YGDVZDecimal@@M@Z      10084d66 f   KZOEDECA.OBJ
 0001:00083df8       ??M@YGDJVZDecimal@@@Z      10084df8 f   KZOEDECA.OBJ
 0001:00083e82       ??M@YGDVZDecimal@@J@Z      10084e82 f   KZOEDECA.OBJ
 0001:00083f0f       ??M@YGDKVZDecimal@@@Z      10084f0f f   KZOEDECA.OBJ
 0001:00083f99       ??M@YGDVZDecimal@@K@Z      10084f99 f   KZOEDECA.OBJ
 0001:00084026       ??M@YGDFVZDecimal@@@Z      10085026 f   KZOEDECA.OBJ
 0001:000840b1       ??M@YGDVZDecimal@@F@Z      100850b1 f   KZOEDECA.OBJ
 0001:0008413f       ??M@YGDGVZDecimal@@@Z      1008513f f   KZOEDECA.OBJ
 0001:000841ca       ??M@YGDVZDecimal@@G@Z      100851ca f   KZOEDECA.OBJ
 0001:00084258       ??M@YGDVZDecimal@@H@Z      10085258 f   KZOEDECA.OBJ
 0001:000842e5       ??M@YGDHVZDecimal@@@Z      100852e5 f   KZOEDECA.OBJ
 0001:0008436f       ??M@YGDVZDecimal@@I@Z      1008536f f   KZOEDECA.OBJ
 0001:000843fc       ??M@YGDIVZDecimal@@@Z      100853fc f   KZOEDECA.OBJ
 0001:00084486       ??M@YGDVZDecimal@@D@Z      10085486 f   KZOEDECA.OBJ
 0001:00084515       ??M@YGDDVZDecimal@@@Z      10085515 f   KZOEDECA.OBJ
 0001:000845a1       ??M@YGDEVZDecimal@@@Z      100855a1 f   KZOEDECA.OBJ
 0001:0008462d       ??M@YGDVZDecimal@@E@Z      1008562d f   KZOEDECA.OBJ
 0001:000846bc       ??M@YGDNVZDecimal@@@Z      100856bc f   KZOEDECA.OBJ
 0001:0008474a       ??M@YGDVZDecimal@@N@Z      1008574a f   KZOEDECA.OBJ
 0001:000847de       ??M@YGDMVZDecimal@@@Z      100857de f   KZOEDECA.OBJ
 0001:0008486d       ??M@YGDVZDecimal@@M@Z      1008586d f   KZOEDECA.OBJ
 0001:000848ff       ??8@YGDJVZDecimal@@@Z      100858ff f   KZOEDECA.OBJ
 0001:00084989       ??8@YGDVZDecimal@@J@Z      10085989 f   KZOEDECA.OBJ
 0001:00084a16       ??8@YGDKVZDecimal@@@Z      10085a16 f   KZOEDECA.OBJ
 0001:00084aa0       ??8@YGDVZDecimal@@K@Z      10085aa0 f   KZOEDECA.OBJ
 0001:00084b2d       ??8@YGDFVZDecimal@@@Z      10085b2d f   KZOEDECA.OBJ
 0001:00084bb8       ??8@YGDVZDecimal@@F@Z      10085bb8 f   KZOEDECA.OBJ
 0001:00084c46       ??8@YGDGVZDecimal@@@Z      10085c46 f   KZOEDECA.OBJ
 0001:00084cd1       ??8@YGDVZDecimal@@G@Z      10085cd1 f   KZOEDECA.OBJ
 0001:00084d5f       ??8@YGDVZDecimal@@H@Z      10085d5f f   KZOEDECA.OBJ
 0001:00084dec       ??8@YGDHVZDecimal@@@Z      10085dec f   KZOEDECA.OBJ
 0001:00084e76       ??8@YGDVZDecimal@@I@Z      10085e76 f   KZOEDECA.OBJ
 0001:00084f03       ??8@YGDIVZDecimal@@@Z      10085f03 f   KZOEDECA.OBJ
 0001:00084f8d       ??8@YGDVZDecimal@@D@Z      10085f8d f   KZOEDECA.OBJ
 0001:0008501c       ??8@YGDDVZDecimal@@@Z      1008601c f   KZOEDECA.OBJ
 0001:000850a8       ??8@YGDEVZDecimal@@@Z      100860a8 f   KZOEDECA.OBJ
 0001:00085134       ??8@YGDVZDecimal@@E@Z      10086134 f   KZOEDECA.OBJ
 0001:000851c3       ??8@YGDNVZDecimal@@@Z      100861c3 f   KZOEDECA.OBJ
 0001:00085251       ??8@YGDVZDecimal@@N@Z      10086251 f   KZOEDECA.OBJ
 0001:000852e5       ??8@YGDMVZDecimal@@@Z      100862e5 f   KZOEDECA.OBJ
 0001:00085374       ??8@YGDVZDecimal@@M@Z      10086374 f   KZOEDECA.OBJ
 0001:00085406       ??9@YGDJVZDecimal@@@Z      10086406 f   KZOEDECA.OBJ
 0001:00085490       ??9@YGDVZDecimal@@J@Z      10086490 f   KZOEDECA.OBJ
 0001:0008551d       ??9@YGDKVZDecimal@@@Z      1008651d f   KZOEDECA.OBJ
 0001:000855a7       ??9@YGDVZDecimal@@K@Z      100865a7 f   KZOEDECA.OBJ
 0001:00085634       ??9@YGDFVZDecimal@@@Z      10086634 f   KZOEDECA.OBJ
 0001:000856bf       ??9@YGDVZDecimal@@F@Z      100866bf f   KZOEDECA.OBJ
 0001:0008574d       ??9@YGDGVZDecimal@@@Z      1008674d f   KZOEDECA.OBJ
 0001:000857d8       ??9@YGDVZDecimal@@G@Z      100867d8 f   KZOEDECA.OBJ
 0001:00085866       ??9@YGDVZDecimal@@H@Z      10086866 f   KZOEDECA.OBJ
 0001:000858f3       ??9@YGDHVZDecimal@@@Z      100868f3 f   KZOEDECA.OBJ
 0001:0008597d       ??9@YGDVZDecimal@@I@Z      1008697d f   KZOEDECA.OBJ
 0001:00085a0a       ??9@YGDIVZDecimal@@@Z      10086a0a f   KZOEDECA.OBJ
 0001:00085a94       ??9@YGDVZDecimal@@D@Z      10086a94 f   KZOEDECA.OBJ
 0001:00085b23       ??9@YGDDVZDecimal@@@Z      10086b23 f   KZOEDECA.OBJ
 0001:00085baf       ??9@YGDEVZDecimal@@@Z      10086baf f   KZOEDECA.OBJ
 0001:00085c3b       ??9@YGDVZDecimal@@E@Z      10086c3b f   KZOEDECA.OBJ
 0001:00085cca       ??9@YGDNVZDecimal@@@Z      10086cca f   KZOEDECA.OBJ
 0001:00085d58       ??9@YGDVZDecimal@@N@Z      10086d58 f   KZOEDECA.OBJ
 0001:00085dec       ??9@YGDMVZDecimal@@@Z      10086dec f   KZOEDECA.OBJ
 0001:00085e7b       ??9@YGDVZDecimal@@M@Z      10086e7b f   KZOEDECA.OBJ
 0001:00085f0d       ??Y@YG?AVZDecimal@@AAV0@V0@@Z 10086f0d f   KZOEDECA.OBJ
 0001:00085f9e       ??Y@YG?AVZDecimal@@V0@J@Z  10086f9e f   KZOEDECA.OBJ
 0001:0008606c       ??Y@YGJAAJVZDecimal@@@Z    1008706c f   KZOEDECA.OBJ
 0001:0008609d       ??Y@YG?AVZDecimal@@V0@K@Z  1008709d f   KZOEDECA.OBJ
 0001:0008616b       ??Y@YGKKVZDecimal@@@Z      1008716b f   KZOEDECA.OBJ
 0001:00086196       ??Y@YG?AVZDecimal@@V0@F@Z  10087196 f   KZOEDECA.OBJ
 0001:00086265       ??Y@YGFFVZDecimal@@@Z      10087265 f   KZOEDECA.OBJ
 0001:0008629a       ??Y@YG?AVZDecimal@@V0@G@Z  1008729a f   KZOEDECA.OBJ
 0001:00086369       ??Y@YGGGVZDecimal@@@Z      10087369 f   KZOEDECA.OBJ
 0001:000863a5       ??Y@YG?AVZDecimal@@V0@H@Z  100873a5 f   KZOEDECA.OBJ
 0001:00086473       ??Y@YG?AVZDecimal@@V0@I@Z  10087473 f   KZOEDECA.OBJ
 0001:00086541       ??Y@YG?AVZDecimal@@V0@D@Z  10087541 f   KZOEDECA.OBJ
 0001:00086610       ??Y@YG?AVZDecimal@@V0@E@Z  10087610 f   KZOEDECA.OBJ
 0001:000866e3       ??Y@YG?AVZDecimal@@V0@N@Z  100876e3 f   KZOEDECA.OBJ
 0001:000867b8       ??Z@YG?AVZDecimal@@AAV0@V0@@Z 100877b8 f   KZOEDECA.OBJ
 0001:00086849       ??Z@YG?AVZDecimal@@V0@J@Z  10087849 f   KZOEDECA.OBJ
 0001:00086917       ??Z@YGJAAJVZDecimal@@@Z    10087917 f   KZOEDECA.OBJ
 0001:00086948       ??Z@YG?AVZDecimal@@V0@K@Z  10087948 f   KZOEDECA.OBJ
 0001:00086a16       ??Z@YGKKVZDecimal@@@Z      10087a16 f   KZOEDECA.OBJ
 0001:00086a41       ??Z@YG?AVZDecimal@@V0@F@Z  10087a41 f   KZOEDECA.OBJ
 0001:00086b10       ??Z@YGFFVZDecimal@@@Z      10087b10 f   KZOEDECA.OBJ
 0001:00086b45       ??Z@YG?AVZDecimal@@V0@G@Z  10087b45 f   KZOEDECA.OBJ
 0001:00086c14       ??Z@YGGGVZDecimal@@@Z      10087c14 f   KZOEDECA.OBJ
 0001:00086c50       ??Z@YG?AVZDecimal@@V0@H@Z  10087c50 f   KZOEDECA.OBJ
 0001:00086d1e       ??Z@YG?AVZDecimal@@V0@I@Z  10087d1e f   KZOEDECA.OBJ
 0001:00086dec       ??Z@YG?AVZDecimal@@V0@D@Z  10087dec f   KZOEDECA.OBJ
 0001:00086ebb       ??Z@YG?AVZDecimal@@V0@E@Z  10087ebb f   KZOEDECA.OBJ
 0001:00086f8e       ??Z@YG?AVZDecimal@@V0@N@Z  10087f8e f   KZOEDECA.OBJ
 0001:00087063       ??X@YG?AVZDecimal@@AAV0@V0@@Z 10088063 f   KZOEDECA.OBJ
 0001:000870f4       ??X@YG?AVZDecimal@@V0@J@Z  100880f4 f   KZOEDECA.OBJ
 0001:000871c2       ??X@YGJAAJVZDecimal@@@Z    100881c2 f   KZOEDECA.OBJ
 0001:000871f4       ??X@YG?AVZDecimal@@V0@K@Z  100881f4 f   KZOEDECA.OBJ
 0001:000872c2       ??X@YGKKVZDecimal@@@Z      100882c2 f   KZOEDECA.OBJ
 0001:000872ee       ??X@YG?AVZDecimal@@V0@F@Z  100882ee f   KZOEDECA.OBJ
 0001:000873bd       ??X@YGFFVZDecimal@@@Z      100883bd f   KZOEDECA.OBJ
 0001:000873f3       ??X@YG?AVZDecimal@@V0@G@Z  100883f3 f   KZOEDECA.OBJ
 0001:000874c2       ??X@YGGGVZDecimal@@@Z      100884c2 f   KZOEDECA.OBJ
 0001:000874ff       ??X@YG?AVZDecimal@@V0@H@Z  100884ff f   KZOEDECA.OBJ
 0001:000875cd       ??X@YG?AVZDecimal@@V0@I@Z  100885cd f   KZOEDECA.OBJ
 0001:0008769b       ??X@YG?AVZDecimal@@V0@D@Z  1008869b f   KZOEDECA.OBJ
 0001:0008776a       ??X@YG?AVZDecimal@@V0@E@Z  1008876a f   KZOEDECA.OBJ
 0001:0008783d       ??X@YG?AVZDecimal@@V0@N@Z  1008883d f   KZOEDECA.OBJ
 0001:00087912       ??_0@YG?AVZDecimal@@AAV0@V0@@Z 10088912 f   KZOEDECA.OBJ
 0001:000879a3       ??_0@YG?AVZDecimal@@V0@J@Z 100889a3 f   KZOEDECA.OBJ
 0001:00087a71       ??_0@YGJAAJVZDecimal@@@Z   10088a71 f   KZOEDECA.OBJ
 0001:00087aa5       ??_0@YG?AVZDecimal@@V0@K@Z 10088aa5 f   KZOEDECA.OBJ
 0001:00087b73       ??_0@YGKKVZDecimal@@@Z     10088b73 f   KZOEDECA.OBJ
 0001:00087ba2       ??_0@YG?AVZDecimal@@V0@F@Z 10088ba2 f   KZOEDECA.OBJ
 0001:00087c71       ??_0@YGFFVZDecimal@@@Z     10088c71 f   KZOEDECA.OBJ
 0001:00087ca9       ??_0@YG?AVZDecimal@@V0@G@Z 10088ca9 f   KZOEDECA.OBJ
 0001:00087d78       ??_0@YGGGVZDecimal@@@Z     10088d78 f   KZOEDECA.OBJ
 0001:00087dbb       ??_0@YG?AVZDecimal@@V0@H@Z 10088dbb f   KZOEDECA.OBJ
 0001:00087e89       ??_0@YG?AVZDecimal@@V0@I@Z 10088e89 f   KZOEDECA.OBJ
 0001:00087f57       ??_0@YG?AVZDecimal@@V0@D@Z 10088f57 f   KZOEDECA.OBJ
 0001:00088026       ??_0@YG?AVZDecimal@@V0@E@Z 10089026 f   KZOEDECA.OBJ
 0001:000880f9       ??_0@YG?AVZDecimal@@V0@N@Z 100890f9 f   KZOEDECA.OBJ
 0001:000881ce       ??0ARACrypt@@QAE@XZ        100891ce f   KZOEDECA.OBJ
 0001:00088271       ??1ARACrypt@@UAE@XZ        10089271 f   KZOEDECA.OBJ
 0001:00088285       ?SetKey@ARACrypt@@UAEXPBD@Z 10089285 f   KZOEDECA.OBJ
 0001:000883e9       ?GetKey@ARACrypt@@UAEXPAD@Z 100893e9 f   KZOEDECA.OBJ
 0001:00088409       ?TransformChar@ARACrypt@@UAEXAAE@Z 10089409 f   KZOEDECA.OBJ
 0001:0008857c       ?TransformString@ARACrypt@@UAEXPADPBD@Z 1008957c f   KZOEDECA.OBJ
 0001:000885fa       ?fnEncryptStringUL@@YAFPAD00GE@Z 100895fa f   KZOEDECA.OBJ
 0001:00088abe       _UfEncryptStringUL@16      10089abe f   KZOEDECA.OBJ
 0001:00088ae0       _UfEncryptStringLong@16    10089ae0 f   KZOEDECA.OBJ
 0001:00088bfd       ?fnDecryptStringUL@@YGFPAD00GE@Z 10089bfd f   KZOEDECA.OBJ
 0001:00088fd4       _UfDecryptStringUL@16      10089fd4 f   KZOEDECA.OBJ
 0001:00088ff3       _UfDecryptStringLong@16    10089ff3 f   KZOEDECA.OBJ
 0001:0008910f       ?CommitMultipleOIs@@YGFJFPAFJ@Z 1008a10f f   KZOEDECA.OBJ
 0001:0008912c       _fnCallDecOper@16          1008a12c f   KZOEDECA.OBJ
 0001:00089179       _SysCallDecimalOperation@16 1008a179 f   KZOEDECA.OBJ
 0001:00089195       _SysAssignDecimalFromDecimal@8 1008a195 f   KZOEDECA.OBJ
 0001:000891ad       _SysAssignDecimalFromNull@4 1008a1ad f   KZOEDECA.OBJ
 0001:000891c3       _SysCompareDecimalToDecimal@8 1008a1c3 f   KZOEDECA.OBJ
 0001:000891db       _SysCompareDecimalToDouble@12 1008a1db f   KZOEDECA.OBJ
 0001:000891f3       _SysCompareDecimalToNull@4 1008a1f3 f   KZOEDECA.OBJ
 0001:00089209       _SysConvertDecimalToString@12 1008a209 f   KZOEDECA.OBJ
 0001:00089223       _SysConvertStringToDecimal@8 1008a223 f   KZOEDECA.OBJ
 0001:0008923b       _SysConvertLongToDecimal@8 1008a23b f   KZOEDECA.OBJ
 0001:00089253       _SysConvertDecimalToLong@8 1008a253 f   KZOEDECA.OBJ
 0001:0008926b       _SysConvertDecimalToDouble@8 1008a26b f   KZOEDECA.OBJ
 0001:00089283       _SysConvertDoubleToDecimal@12 1008a283 f   KZOEDECA.OBJ
 0001:0008929b       _SysAddDecimalToDecimal@12 1008a29b f   KZOEDECA.OBJ
 0001:000892b5       _SysSubtractDecimalFromDecimal@12 1008a2b5 f   KZOEDECA.OBJ
 0001:000892cf       _SysMultiplyDecimalByDecimal@12 1008a2cf f   KZOEDECA.OBJ
 0001:000892e9       _SysDivideDecimalByDecimal@12 1008a2e9 f   KZOEDECA.OBJ
 0001:00089303       _SysRoundDecimal@8         1008a303 f   KZOEDECA.OBJ
 0001:0008bd60       ??_GARACrypt@@UAEPAXI@Z    1008cd60 f i KZOEDECA.OBJ
 0001:0008bd60       ??_EARACrypt@@UAEPAXI@Z    1008cd60 f i KZOEDECA.OBJ
 0001:0008bda0       _fnSetProcessIdx           1008cda0 f   KZOESYAA.OBJ
 0001:0008be4c       _FindWebSubtask@4          1008ce4c f   KZOESYAA.OBJ
 0001:0008bf47       _SysGetProcessID@4         1008cf47 f   KZOESYAA.OBJ
 0001:0008bf6e       _SysGetTaskFromView@4      1008cf6e f   KZOESYAA.OBJ
 0001:0008bf85       _SysSetDefaultTaskForProcess@4 1008cf85 f   KZOESYAA.OBJ
 0001:0008bfa5       _SetTransientTaskProcess@16 1008cfa5 f   KZOESYAA.OBJ
 0001:0008c133       _SysMakeWebFileName@12     1008d133 f   KZOESYAA.OBJ
 0001:0008c275       _SysSetFocusToWebCtrl@20   1008d275 f   KZOESYAA.OBJ
 0001:0008c3d6       _SysSetWebBannerName@12    1008d3d6 f   KZOESYAA.OBJ
 0001:0008c464       _SysGetWebBannerName@12    1008d464 f   KZOESYAA.OBJ
 0001:0008c4d1       _RegisterZeidonApplication@28 1008d4d1 f   KZOESYAA.OBJ
 0001:0008c9a4       _UnregisterZeidonApplication@4 1008d9a4 f   KZOESYAA.OBJ
 0001:0008cb26       _SysFreeInternational@4    1008db26 f   KZOESYAA.OBJ
 0001:0008cb8f       _fnConvertToZeidonFormat   1008db8f f   KZOESYAA.OBJ
 0001:0008d250       _SysCreateInternational@0  1008e250 f   KZOESYAA.OBJ
 0001:0008d7e6       _SysGetLanguageCode@4      1008e7e6 f   KZOESYAA.OBJ
 0001:0008d815       _SysSetLanguageCode@4      1008e815 f   KZOESYAA.OBJ
 0001:0008d842       _SysGetNumberFormat@12     1008e842 f   KZOESYAA.OBJ
 0001:0008d8ba       _SysGetTimeFormat@4        1008e8ba f   KZOESYAA.OBJ
 0001:0008d91b       _SysGetLongDateFormat@4    1008e91b f   KZOESYAA.OBJ
 0001:0008d97c       _SysGetShortDateFormat@4   1008e97c f   KZOESYAA.OBJ
 0001:0008d9dd       _fnConvertEnvironmentString@8 1008e9dd f   KZOESYAA.OBJ
 0001:0008dad5       _SysConvertEnvironmentString@8 1008ead5 f   KZOESYAA.OBJ
 0001:0008dae9       _fnBuildZeidonIni          1008eae9 f   KZOESYAA.OBJ
 0001:0008db4c       _InitializeAnchorBlock@16  1008eb4c f   KZOESYAA.OBJ
 0001:0008e65e       _fnFreeLocalAnchorBlock@4  1008f65e f   KZOESYAA.OBJ
 0001:0008e72c       _FreeAnchorBlock@4         1008f72c f   KZOESYAA.OBJ
 0001:0008e7e1       _ProcessZeidonMessage@8    1008f7e1 f   KZOESYAA.OBJ
 0001:0008ed3d       _fnAllocSharedMemory@16    1008fd3d f   KZOESYAA.OBJ
 0001:0008eed8       _CheckPointer              1008fed8 f   KZOESYAA.OBJ
 0001:0008ef5c       _fnFreeSharedMemory@8      1008ff5c f   KZOESYAA.OBJ
 0001:0008f14b       _SysMalloc@4               1009014b f   KZOESYAA.OBJ
 0001:0008f16a       _SysFree@4                 1009016a f   KZOESYAA.OBJ
 0001:0008f184       _SysMemSize@4              10090184 f   KZOESYAA.OBJ
 0001:0008f198       _SysAllocMemory@20         10090198 f   KZOESYAA.OBJ
 0001:0008f1fb       _SysFreeMemory@4           100901fb f   KZOESYAA.OBJ
 0001:0008f21a       _SysAddressMemory@4        1009021a f   KZOESYAA.OBJ
 0001:0008f232       _SysValidAddress@12        10090232 f   KZOESYAA.OBJ
 0001:0008f278       _SysCheckTaskMemory@0      10090278 f   KZOESYAA.OBJ
 0001:0008f27f       _fnGetAnchorBlock@8        1009027f f   KZOESYAA.OBJ
 0001:0008f489       _SysGetAnchorBlock@0       10090489 f   KZOESYAA.OBJ
 0001:0008f493       _SysGetAnchorBlockData@4   10090493 f   KZOESYAA.OBJ
 0001:0008f547       _SysStartObjectServices    10090547 f   KZOESYAA.OBJ
 0001:0008fa64       _fnSysGetPointerFromHandleServerMode@4 10090a64 f   KZOESYAA.OBJ
 0001:0008fa6e       _fnSysGetPointerFromHandleShared@4 10090a6e f   KZOESYAA.OBJ
 0001:0008fbb9       _SysGetPointerFromHandle@4 10090bb9 f   KZOESYAA.OBJ
 0001:0008fbca       _fnSysGetHandleFromPointerServerMode@4 10090bca f   KZOESYAA.OBJ
 0001:0008fbd4       _fnSysGetHandleFromPointerShared@4 10090bd4 f   KZOESYAA.OBJ
 0001:0008fc2b       _SysGetHandleFromPointer@4 10090c2b f   KZOESYAA.OBJ
 0001:0008fc3c       _fnSysCreateHandle@8       10090c3c f   KZOESYAA.OBJ
 0001:0008fcaf       _fnMapFile@16              10090caf f   KZOESYAA.OBJ
 0001:0008fe48       _SysGetEnvVar@12           10090e48 f   KZOESYAA.OBJ
 0001:0008fe74       _SysWait@4                 10090e74 f   KZOESYAA.OBJ
 0001:0008fe8a       _SysDiagnosticMessage@16   10090e8a f   KZOESYAA.OBJ
 0001:0008fedd       _fnSysMessageBox@16        10090edd f   KZOESYAA.OBJ
 0001:000900ab       _SysMessageBox@16          100910ab f   KZOESYAA.OBJ
 0001:00090156       _SysMessageList@4          10091156 f   KZOESYAA.OBJ
 0001:00090369       _SysSetUserID@12           10091369 f   KZOESYAA.OBJ
 0001:000904e0       _SysSetDB_UserID@12        100914e0 f   KZOESYAA.OBJ
 0001:00090593       _SysGetUserID@12           10091593 f   KZOESYAA.OBJ
 0001:000906a8       _SysGetDB_UserID@12        100916a8 f   KZOESYAA.OBJ
 0001:00090746       _SysCreateTempFileName@4   10091746 f   KZOESYAA.OBJ
 0001:00090791       _fnSysCopyFile@16          10091791 f   KZOESYAA.OBJ
 0001:000908cd       _SysCopyFile@16            100918cd f   KZOESYAA.OBJ
 0001:00090913       _fnSysRenameFile@16        10091913 f   KZOESYAA.OBJ
 0001:000909fc       _SysRenameFile@16          100919fc f   KZOESYAA.OBJ
 0001:00090a42       _fnSysOpenFile@12          10091a42 f   KZOESYAA.OBJ
 0001:00090ff7       _SysOpenFile@12            10091ff7 f   KZOESYAA.OBJ
 0001:00091039       _fnSysReadFile@16          10092039 f   KZOESYAA.OBJ
 0001:00091066       _SysReadFile@16            10092066 f   KZOESYAA.OBJ
 0001:000910ac       _fnSysReadLine@16          100920ac f   KZOESYAA.OBJ
 0001:00091518       _SysReadLine@12            10092518 f   KZOESYAA.OBJ
 0001:0009155c       _fnSysReadLineLth@20       1009255c f   KZOESYAA.OBJ
 0001:000918dd       _SysReadLineLth@16         100928dd f   KZOESYAA.OBJ
 0001:00091925       _fnSysWriteFile@16         10092925 f   KZOESYAA.OBJ
 0001:000919ac       _SysWriteFile@16           100929ac f   KZOESYAA.OBJ
 0001:000919f2       _fnSysWriteLine@16         100929f2 f   KZOESYAA.OBJ
 0001:00091c44       _SysWriteLine@12           10092c44 f   KZOESYAA.OBJ
 0001:00091c88       _fnSysWriteLineLth@24      10092c88 f   KZOESYAA.OBJ
 0001:00091ef7       _SysWriteLineLth@20        10092ef7 f   KZOESYAA.OBJ
 0001:00091f43       _fnSysCloseFileWithControl@16 10092f43 f   KZOESYAA.OBJ
 0001:0009214c       _SysCloseFileWithControl@16 1009314c f   KZOESYAA.OBJ
 0001:00092192       _fnSysCloseFile@12         10093192 f   KZOESYAA.OBJ
 0001:000921af       _SysCloseFile@12           100931af f   KZOESYAA.OBJ
 0001:000921f6       _SysSetFileTime@12         100931f6 f   KZOESYAA.OBJ
 0001:00092330       _SysGetBaseMessage@12      10093330 f   KZOESYAA.OBJ
 0001:000923f6       _SysGetOperationMessage@12 100933f6 f   KZOESYAA.OBJ
 0001:000924bc       _SysPositionFile@8         100934bc f   KZOESYAA.OBJ
 0001:000924d5       _SysGetFilePosition@4      100934d5 f   KZOESYAA.OBJ
 0001:000924ec       _SysGetFileSize@4          100934ec f   KZOESYAA.OBJ
 0001:000924ff       _fnSysTruncateFile@8       100934ff f   KZOESYAA.OBJ
 0001:00092525       _SysTruncateFile@8         10093525 f   KZOESYAA.OBJ
 0001:00092563       _SysParseLine@12           10093563 f   KZOESYAA.OBJ
 0001:000926fd       _SysGetLocalDirectory@4    100936fd f   KZOESYAA.OBJ
 0001:00092731       _SysGetLocalSysDirectory@4 10093731 f   KZOESYAA.OBJ
 0001:00092765       _SysGetFileDateTime@8      10093765 f   KZOESYAA.OBJ
 0001:00092804       _SysGetDateTime@4          10093804 f   KZOESYAA.OBJ
 0001:00092870       __zCall_GetDateTime@8      10093870 f   KZOESYAA.OBJ
 0001:0009289f       _SysGetServerDateTime@8    1009389f f   KZOESYAA.OBJ
 0001:00092947       _SysGetDateTimeDifference@16 10093947 f   KZOESYAA.OBJ
 0001:000929cd       _SysTranslateString@8      100939cd f   KZOESYAA.OBJ
 0001:000929f3       _SysLoadLibraryWithErrFlag@12 100939f3 f   KZOESYAA.OBJ
 0001:00092e74       _SysLoadLibrary@8          10093e74 f   KZOESYAA.OBJ
 0001:00092e8a       _SysGetProc@8              10093e8a f   KZOESYAA.OBJ
 0001:00092f01       _SysGetInstance@4          10093f01 f   KZOESYAA.OBJ
 0001:00092f2b       _fnSysFreeLibrary@12       10093f2b f   KZOESYAA.OBJ
 0001:0009316f       _SysFreeLibrary@8          1009416f f   KZOESYAA.OBJ
 0001:000931c2       _fnReuseEntity@4           100941c2 f   KZOESYAA.OBJ
 0001:0009323b       _SysReadZeidonIni@16       1009423b f   KZOESYAA.OBJ
 0001:0009360a       _SysUpdateZeidonIni@12     1009460a f   KZOESYAA.OBJ
 0001:00093bab       _SfListTasks               10094bab f   KZOESYAA.OBJ
 0001:00093bcb       _SysMessageBeep@0          10094bcb f   KZOESYAA.OBJ
 0001:00093bd8       _SysAppendcDirSep@4        10094bd8 f   KZOESYAA.OBJ
 0001:00093c30       _SysValidDirOrFile@16      10094c30 f   KZOESYAA.OBJ
 0001:00093d43       _SysStartHelp@8            10094d43 f   KZOESYAA.OBJ
 0001:00093f24       _SysSetAnchorBlock@4       10094f24 f   KZOESYAA.OBJ
 0001:00093f2b       _SysGetTickCount@0         10094f2b f   KZOESYAA.OBJ
 0001:00093f36       _SysStartTimer@4           10094f36 f   KZOESYAA.OBJ
 0001:00093f53       _SysElapsedTimer@8         10094f53 f   KZOESYAA.OBJ
 0001:00093fad       _SysGetOS_Info@4           10094fad f   KZOESYAA.OBJ
 0001:00093fdb       _SysConvertANSI_String@4   10094fdb f   KZOESYAA.OBJ
 0001:00093fe2       _SysSendOE_Message@8       10094fe2 f   KZOESYAA.OBJ
 0001:00094006       _SysDescribeZeidonPageTable@4 10095006 f   KZOESYAA.OBJ
 0001:000940da       _fnDecimalOperation@16     100950da f   KZOESYAA.OBJ
 0001:000944e2       _fnSysCreateCoreMutex@4    100954e2 f   KZOESYAA.OBJ
 0001:000945b7       _fnSysDestroyCoreMutex@4   100955b7 f   KZOESYAA.OBJ
 0001:00094685       _fnSysLockCoreMutex@4      10095685 f   KZOESYAA.OBJ
 0001:00094704       _fnSysUnlockCoreMutex@4    10095704 f   KZOESYAA.OBJ
 0001:000947c2       _fnHashName@4              100957c2 f   KZOESYAA.OBJ
 0001:00094844       _fnMutexFind@8             10095844 f   KZOESYAA.OBJ
 0001:00094961       _fnMutexCreate@16          10095961 f   KZOESYAA.OBJ
 0001:00094b36       _fnMutexCreateOS@12        10095b36 f   KZOESYAA.OBJ
 0001:00094ba8       _SysMutexCreate@12         10095ba8 f   KZOESYAA.OBJ
 0001:00094bf5       _fnSysMutexLock@16         10095bf5 f   KZOESYAA.OBJ
 0001:00094c70       _SysMutexLock@16           10095c70 f   KZOESYAA.OBJ
 0001:00094da1       _fnSysMutexUnlock@8        10095da1 f   KZOESYAA.OBJ
 0001:00094e01       _SysMutexUnlock@12         10095e01 f   KZOESYAA.OBJ
 0001:00094ec6       _SysMutexClose@4           10095ec6 f   KZOESYAA.OBJ
 0001:00094ed7       _fnSysMutexDestroy@8       10095ed7 f   KZOESYAA.OBJ
 0001:00095008       _SysMutexQueryLock@4       10096008 f   KZOESYAA.OBJ
 0001:00095070       _SysMutexQueryStatus@0     10096070 f   KZOESYAA.OBJ
 0001:00095348       _SysStartBrowseOfTaskList@4 10096348 f   KZOESYAA.OBJ
 0001:0009535d       _SysEndBrowseOfTaskList@0  1009635d f   KZOESYAA.OBJ
 0001:00095369       _SysGetClientMessage@0     10096369 f   KZOESYAA.OBJ
 0001:0009538d       _SysMainWndProc@16         1009638d f   KZOESYAA.OBJ
 0001:000953f9       _SysInitApplicationWindow@12 100963f9 f   KZOESYAA.OBJ
 0001:00095560       _DllMain@12                10096560 f   KZOESYAA.OBJ
 0001:00098240       _CreateMeteredSection      10099240 f   METERSEC.OBJ
 0001:000982c9       _OpenMeteredSection        100992c9 f   METERSEC.OBJ
 0001:00098322       _EnterMeteredSection       10099322 f   METERSEC.OBJ
 0001:000983c1       _LeaveMeteredSection       100993c1 f   METERSEC.OBJ
 0001:000984ba       _CloseMeteredSection       100994ba f   METERSEC.OBJ
 0001:00098512       _InitMeteredSection        10099512 f   METERSEC.OBJ
 0001:00098558       _CreateMetSectEvent        10099558 f   METERSEC.OBJ
 0001:000985dc       _CreateMetSectFileView     100995dc f   METERSEC.OBJ
 0001:00098702       _GetMeteredSectionLock     10099702 f   METERSEC.OBJ
 0001:00098727       _ReleaseMeteredSectionLock 10099727 f   METERSEC.OBJ
 0001:00098880       _fnTraceCompileTime@0      10099880 f   KZOETSAA.OBJ
 0001:0009889a       _MessageBoxA@16            1009989a f   user32:USER32.dll
 0001:000988a0       _GetActiveWindow@0         100998a0 f   user32:USER32.dll
 0001:000988a6       _UnregisterClassA@8        100998a6 f   user32:USER32.dll
 0001:000988ac       _PostMessageA@16           100998ac f   user32:USER32.dll
 0001:000988b2       _SendMessageA@16           100998b2 f   user32:USER32.dll
 0001:000988b8       _GetWindowTextA@12         100998b8 f   user32:USER32.dll
 0001:000988be       _IsWindow@4                100998be f   user32:USER32.dll
 0001:000988c4       _CharUpperA@4              100998c4 f   user32:USER32.dll
 0001:000988ca       _CharLowerA@4              100998ca f   user32:USER32.dll
 0001:000988d0       _MessageBeep@4             100998d0 f   user32:USER32.dll
 0001:000988d6       _GetDesktopWindow@0        100998d6 f   user32:USER32.dll
 0001:000988dc       _WinHelpA@16               100998dc f   user32:USER32.dll
 0001:000988e2       _RegisterWindowMessageA@4  100998e2 f   user32:USER32.dll
 0001:000988e8       _DefWindowProcA@16         100998e8 f   user32:USER32.dll
 0001:000988ee       _PostQuitMessage@4         100998ee f   user32:USER32.dll
 0001:000988f4       _ShowWindow@8              100998f4 f   user32:USER32.dll
 0001:000988fa       _CreateWindowExA@48        100998fa f   user32:USER32.dll
 0001:00098900       _GetSystemMetrics@4        10099900 f   user32:USER32.dll
 0001:00098906       _RegisterClassA@4          10099906 f   user32:USER32.dll
 0001:0009890c       _LoadCursorA@8             1009990c f   user32:USER32.dll
 0001:00098912       _LoadIconA@8               10099912 f   user32:USER32.dll
 0001:00098918       _wsprintfA                 10099918 f   user32:USER32.dll
 0001:0009891e       _GetCurrentProcessId@0     1009991e f   kernel32:KERNEL32.dll
 0001:00098924       _GetCurrentThreadId@0      10099924 f   kernel32:KERNEL32.dll
 0001:0009892a       _LeaveCriticalSection@4    1009992a f   kernel32:KERNEL32.dll
 0001:00098930       _EnterCriticalSection@4    10099930 f   kernel32:KERNEL32.dll
 0001:00098936       _InitializeCriticalSection@4 10099936 f   kernel32:KERNEL32.dll
 0001:0009893c       _CloseHandle@4             1009993c f   kernel32:KERNEL32.dll
 0001:00098942       _OpenMutexA@12             10099942 f   kernel32:KERNEL32.dll
 0001:00098948       _GetLastError@0            10099948 f   kernel32:KERNEL32.dll
 0001:0009894e       _DeleteCriticalSection@4   1009994e f   kernel32:KERNEL32.dll
 0001:00098954       _GetProfileStringA@20      10099954 f   kernel32:KERNEL32.dll
 0001:0009895a       _GetProfileIntA@12         1009995a f   kernel32:KERNEL32.dll
 0001:00098960       _GetPrivateProfileIntA@16  10099960 f   kernel32:KERNEL32.dll
 0001:00098966       _UnmapViewOfFile@4         10099966 f   kernel32:KERNEL32.dll
 0001:0009896c       _FreeLibrary@4             1009996c f   kernel32:KERNEL32.dll
 0001:00098972       _LocalFree@4               10099972 f   kernel32:KERNEL32.dll
 0001:00098978       _FormatMessageA@28         10099978 f   kernel32:KERNEL32.dll
 0001:0009897e       _GetHandleInformation@8    1009997e f   kernel32:KERNEL32.dll
 0001:00098984       _DuplicateHandle@28        10099984 f   kernel32:KERNEL32.dll
 0001:0009898a       _OpenProcess@12            1009998a f   kernel32:KERNEL32.dll
 0001:00098990       _GetCurrentProcess@0       10099990 f   kernel32:KERNEL32.dll
 0001:00098996       _IsBadReadPtr@8            10099996 f   kernel32:KERNEL32.dll
 0001:0009899c       _IsBadWritePtr@8           1009999c f   kernel32:KERNEL32.dll
 0001:000989a2       _MapViewOfFile@20          100999a2 f   kernel32:KERNEL32.dll
 0001:000989a8       _OpenFileMappingA@12       100999a8 f   kernel32:KERNEL32.dll
 0001:000989ae       _WaitForSingleObject@8     100999ae f   kernel32:KERNEL32.dll
 0001:000989b4       _CreateProcessA@40         100999b4 f   kernel32:KERNEL32.dll
 0001:000989ba       _CreateEventA@16           100999ba f   kernel32:KERNEL32.dll
 0001:000989c0       _ReadFile@20               100999c0 f   kernel32:KERNEL32.dll
 0001:000989c6       _CreateFileA@28            100999c6 f   kernel32:KERNEL32.dll
 0001:000989cc       _CreateFileMappingA@24     100999cc f   kernel32:KERNEL32.dll
 0001:000989d2       _GetEnvironmentVariableA@12 100999d2 f   kernel32:KERNEL32.dll
 0001:000989d8       _Sleep@4                   100999d8 f   kernel32:KERNEL32.dll
 0001:000989de       _MoveFileA@8               100999de f   kernel32:KERNEL32.dll
 0001:000989e4       _DeleteFileA@4             100999e4 f   kernel32:KERNEL32.dll
 0001:000989ea       _SearchPathA@24            100999ea f   kernel32:KERNEL32.dll
 0001:000989f0       _SetFilePointer@16         100999f0 f   kernel32:KERNEL32.dll
 0001:000989f6       _WriteFile@20              100999f6 f   kernel32:KERNEL32.dll
 0001:000989fc       _SetFileTime@16            100999fc f   kernel32:KERNEL32.dll
 0001:00098a02       _SystemTimeToFileTime@8    10099a02 f   kernel32:KERNEL32.dll
 0001:00098a08       _GetFileSize@8             10099a08 f   kernel32:KERNEL32.dll
 0001:00098a0e       _FileTimeToSystemTime@8    10099a0e f   kernel32:KERNEL32.dll
 0001:00098a14       _GetFileTime@16            10099a14 f   kernel32:KERNEL32.dll
 0001:00098a1a       _GetLocalTime@4            10099a1a f   kernel32:KERNEL32.dll
 0001:00098a20       _LoadLibraryA@4            10099a20 f   kernel32:KERNEL32.dll
 0001:00098a26       _LoadLibraryExA@12         10099a26 f   kernel32:KERNEL32.dll
 0001:00098a2c       _SetCurrentDirectoryA@4    10099a2c f   kernel32:KERNEL32.dll
 0001:00098a32       _GetCurrentDirectoryA@8    10099a32 f   kernel32:KERNEL32.dll
 0001:00098a38       _GetProcAddress@8          10099a38 f   kernel32:KERNEL32.dll
 0001:00098a3e       _CreateDirectoryA@8        10099a3e f   kernel32:KERNEL32.dll
 0001:00098a44       _GetFileAttributesA@4      10099a44 f   kernel32:KERNEL32.dll
 0001:00098a4a       _GetFullPathNameA@16       10099a4a f   kernel32:KERNEL32.dll
 0001:00098a50       _GetTickCount@0            10099a50 f   kernel32:KERNEL32.dll
 0001:00098a56       _CreateMutexA@12           10099a56 f   kernel32:KERNEL32.dll
 0001:00098a5c       _ReleaseMutex@4            10099a5c f   kernel32:KERNEL32.dll
 0001:00098a62       _GetPrivateProfileStringA@24 10099a62 f   kernel32:KERNEL32.dll
 0001:00098a68       _GetVersionExA@4           10099a68 f   kernel32:KERNEL32.dll
 0001:00098a6e       _SetLastError@4            10099a6e f   kernel32:KERNEL32.dll
 0001:00098a74       _ResetEvent@4              10099a74 f   kernel32:KERNEL32.dll
 0001:00098a7a       _SetEvent@4                10099a7a f   kernel32:KERNEL32.dll
 0001:00098a80       _OpenEventA@12             10099a80 f   kernel32:KERNEL32.dll
 0001:00098a86       _InterlockedExchange@8     10099a86 f   kernel32:KERNEL32.dll
 0001:00098a8c       _GetStockObject@4          10099a8c f   gdi32:GDI32.dll
 0001:00098a92       _HtmlHelpA@16              10099a92 f   htmlhelp:init.obj
 0001:00098b8a       _HtmlHelpW@16              10099b8a f   htmlhelp:init.obj
 0001:00098c24       _DecimalOperation@16       10099c24 f   zdecimal:ZDECIMAL.dll
 0001:00098c2a       __imp_load__XML_ParserFree 10099c2a     xmlparse:xmlparse.dll
 0001:00098c36       __tailMerge_xmlparse       10099c36     xmlparse:xmlparse.dll
 0001:00098c44       _XML_ParserFree            10099c44     xmlparse:xmlparse.dll
 0001:00098c4a       __imp_load__XML_ErrorString 10099c4a     xmlparse:xmlparse.dll
 0001:00098c56       _XML_ErrorString           10099c56     xmlparse:xmlparse.dll
 0001:00098c5c       __imp_load__XML_GetErrorCode 10099c5c     xmlparse:xmlparse.dll
 0001:00098c68       _XML_GetErrorCode          10099c68     xmlparse:xmlparse.dll
 0001:00098c6e       __imp_load__XML_GetCurrentLineNumber 10099c6e     xmlparse:xmlparse.dll
 0001:00098c7a       _XML_GetCurrentLineNumber  10099c7a     xmlparse:xmlparse.dll
 0001:00098c80       __imp_load__XML_Parse      10099c80     xmlparse:xmlparse.dll
 0001:00098c8c       _XML_Parse                 10099c8c     xmlparse:xmlparse.dll
 0001:00098c92       __imp_load__XML_SetUnknownEncodingHandler 10099c92     xmlparse:xmlparse.dll
 0001:00098c9e       _XML_SetUnknownEncodingHandler 10099c9e     xmlparse:xmlparse.dll
 0001:00098ca4       __imp_load__XML_SetCharacterDataHandler 10099ca4     xmlparse:xmlparse.dll
 0001:00098cb0       _XML_SetCharacterDataHandler 10099cb0     xmlparse:xmlparse.dll
 0001:00098cb6       __imp_load__XML_SetElementHandler 10099cb6     xmlparse:xmlparse.dll
 0001:00098cc2       _XML_SetElementHandler     10099cc2     xmlparse:xmlparse.dll
 0001:00098cc8       __imp_load__XML_SetUserData 10099cc8     xmlparse:xmlparse.dll
 0001:00098cd4       _XML_SetUserData           10099cd4     xmlparse:xmlparse.dll
 0001:00098cda       __imp_load__XML_ParserCreate 10099cda     xmlparse:xmlparse.dll
 0001:00098ce6       _XML_ParserCreate          10099ce6     xmlparse:xmlparse.dll
 0001:00098cec       ___delayLoadHelper@8       10099cec f   DelayImp:delayhlp.obj
 0001:00098ee5       ___FUnloadDelayLoadedDLL@4 10099ee5 f   DelayImp:delayhlp.obj
 0001:00098f98       _strcpy                    10099f98 f   MSVCRTD:MSVCRTD.dll
 0001:00098f9e       _strlen                    10099f9e f   MSVCRTD:MSVCRTD.dll
 0001:00098fa4       __isctype                  10099fa4 f   MSVCRTD:MSVCRTD.dll
 0001:00098faa       _strchr                    10099faa f   MSVCRTD:MSVCRTD.dll
 0001:00098fb0       _atol                      10099fb0 f   MSVCRTD:MSVCRTD.dll
 0001:00098fb6       _strcmp                    10099fb6 f   MSVCRTD:MSVCRTD.dll
 0001:00098fbc       _strncmp                   10099fbc f   MSVCRTD:MSVCRTD.dll
 0001:00098fc2       _strcat                    10099fc2 f   MSVCRTD:MSVCRTD.dll
 0001:00098fc8       __stricmp                  10099fc8 f   MSVCRTD:MSVCRTD.dll
 0001:00098fce       _memcpy                    10099fce f   MSVCRTD:MSVCRTD.dll
 0001:00098fd4       _memcmp                    10099fd4 f   MSVCRTD:MSVCRTD.dll
 0001:00098fda       __ltoa                     10099fda f   MSVCRTD:MSVCRTD.dll
 0001:00098fe0       _strncat                   10099fe0 f   MSVCRTD:MSVCRTD.dll
 0001:00098fe6       _strncpy                   10099fe6 f   MSVCRTD:MSVCRTD.dll
 0001:00098fec       _memset                    10099fec f   MSVCRTD:MSVCRTD.dll
 0001:00099000       __chkstk                   1009a000 f   MSVCRTD:chkstk.obj
 0001:00099000       __alloca_probe             1009a000 f   MSVCRTD:chkstk.obj
 0001:00099030       _sprintf                   1009a030 f   MSVCRTD:MSVCRTD.dll
 0001:00099036       _strtoul                   1009a036 f   MSVCRTD:MSVCRTD.dll
 0001:0009903c       __setjmp3                  1009a03c f   MSVCRTD:MSVCRTD.dll
 0001:00099042       _toupper                   1009a042 f   MSVCRTD:MSVCRTD.dll
 0001:00099048       _strtol                    1009a048 f   MSVCRTD:MSVCRTD.dll
 0001:0009904e       __strlwr                   1009a04e f   MSVCRTD:MSVCRTD.dll
 0001:00099060       _free                      1009a060 f   MSVCRTD:MSVCRTD.dll
 0001:00099066       _malloc                    1009a066 f   MSVCRTD:MSVCRTD.dll
 0001:0009906c       __strnicmp                 1009a06c f   MSVCRTD:MSVCRTD.dll
 0001:00099072       _strrchr                   1009a072 f   MSVCRTD:MSVCRTD.dll
 0001:00099078       __vsnprintf                1009a078 f   MSVCRTD:MSVCRTD.dll
 0001:0009907e       _tolower                   1009a07e f   MSVCRTD:MSVCRTD.dll
 0001:00099084       _labs                      1009a084 f   MSVCRTD:MSVCRTD.dll
 0001:0009908a       _strstr                    1009a08a f   MSVCRTD:MSVCRTD.dll
 0001:00099090       __strrev                   1009a090 f   MSVCRTD:MSVCRTD.dll
 0001:00099096       ??3@YAXPAX@Z               1009a096 f   MSVCRTD:MSVCRTD.dll
 0001:0009909c       _rand                      1009a09c f   MSVCRTD:MSVCRTD.dll
 0001:000990a2       _srand                     1009a0a2 f   MSVCRTD:MSVCRTD.dll
 0001:000990a8       ??2@YAPAXI@Z               1009a0a8 f   MSVCRTD:MSVCRTD.dll
 0001:000990ae       _calloc                    1009a0ae f   MSVCRTD:MSVCRTD.dll
 0001:000990b4       _atoi                      1009a0b4 f   MSVCRTD:MSVCRTD.dll
 0001:000990ba       __msize                    1009a0ba f   MSVCRTD:MSVCRTD.dll
 0001:000990c0       __strupr                   1009a0c0 f   MSVCRTD:MSVCRTD.dll
 0001:000990c6       _floor                     1009a0c6 f   MSVCRTD:MSVCRTD.dll
 0001:000990cc       _atof                      1009a0cc f   MSVCRTD:MSVCRTD.dll
 0001:000990d2       __ftol                     1009a0d2 f   MSVCRTD:MSVCRTD.dll
 0001:000990e0       __CRT_INIT@12              1009a0e0 f   MSVCRTD:crtdll.obj
 0001:000991f0       __DllMainCRTStartup@12     1009a1f0 f   MSVCRTD:crtdll.obj
 0001:000992e4       __free_dbg                 1009a2e4 f   MSVCRTD:MSVCRTD.dll
 0001:000992ea       __initterm                 1009a2ea f   MSVCRTD:MSVCRTD.dll
 0001:000992f0       __onexit                   1009a2f0 f   MSVCRTD:atonexit.obj
 0001:00099330       _atexit                    1009a330 f   MSVCRTD:atonexit.obj
 0001:00099348       __malloc_dbg               1009a348 f   MSVCRTD:MSVCRTD.dll
 0001:0009934e       ___dllonexit               1009a34e f   MSVCRTD:MSVCRTD.dll
 0001:00099354       _RegCloseKey@4             1009a354 f   advapi32:ADVAPI32.dll
 0001:0009935a       _RegQueryValueExA@24       1009a35a f   advapi32:ADVAPI32.dll
 0001:00099360       _RegOpenKeyExA@20          1009a360 f   advapi32:ADVAPI32.dll
 0001:00099366       _LocalAlloc@8              1009a366 f   kernel32:KERNEL32.dll
 0001:0009936c       _RaiseException@16         1009a36c f   kernel32:KERNEL32.dll
 0002:00000020       __real@8@4008fa00000000000000 1009b020     KZOEOIAA.OBJ
 0002:0000002c       ??_7ARACrypt@@6B@          1009b02c     KZOEDECA.OBJ
 0002:00000a98       __real@8@3fff8000000000000000 1009ba98     KZOESYAA.OBJ
 0002:00000aa8       __real@8@3ffe8000000000000000 1009baa8     KZOESYAA.OBJ
 0002:00000ab8       __real@8@4002a000000000000000 1009bab8     KZOESYAA.OBJ
 0002:00000ac8       __real@8@00000000000000000000 1009bac8     KZOESYAA.OBJ
 0002:00000b30       __sz_xmlparse              1009bb30     xmlparse:xmlparse.dll
 0002:00000b40       ??_C@_08JKC@crtdll?4c?$AA@ 1009bb40     MSVCRTD:crtdll.obj
 0003:00000000       ___xc_a                    100a3000     MSVCRTD:cinitexe.obj
 0003:00000104       ___xc_z                    100a3104     MSVCRTD:cinitexe.obj
 0003:00000208       ___xi_a                    100a3208     MSVCRTD:cinitexe.obj
 0003:0000030c       ___xi_z                    100a330c     MSVCRTD:cinitexe.obj
 0003:00000410       ??_C@_0DA@PLNM@?$CIap?$CJ?5More?5than?5one?5default?5Conte@ 100a3410     KZOEAPAA.OBJ
 0003:0000044c       ??_C@_0L@CGKE@OPERNUMBER?$AA@ 100a344c     KZOEAPAA.OBJ
 0003:0000045c       ??_C@_08JOPH@OPERNAME?$AA@ 100a345c     KZOEAPAA.OBJ
 0003:00000468       ??_C@_0M@NDFG@DomainGroup?$AA@ 100a3468     KZOEAPAA.OBJ
 0003:00000478       ??_C@_06PIJH@OBJECT?$AA@   100a3478     KZOEAPAA.OBJ
 0003:00000480       ??_C@_04DIDG@ROOT?$AA@     100a3480     KZOEAPAA.OBJ
 0003:00000488       ??_C@_0CA@MKLC@?$CIap?$CJ?5looking?5for?5domains?5with?3?5?$AA@ 100a3488     KZOEAPAA.OBJ
 0003:000004b0       ??_C@_07GIMK@Domains?$AA@  100a34b0     KZOEAPAA.OBJ
 0003:000004bc       ??_C@_0BG@GDLG@CreateApp?5KeepAlive?3?5?$AA@ 100a34bc     KZOEAPAA.OBJ
 0003:000004d8       ??_C@_09LNJJ@KeepAlive?$AA@ 100a34d8     KZOEAPAA.OBJ
 0003:000004e4       ??_C@_01FIMD@?$FN?$AA@     100a34e4     KZOEAPAA.OBJ
 0003:000004e8       ??_C@_05JBPC@?$FLApp?4?$AA@ 100a34e8     KZOEAPAA.OBJ
 0003:000004f0       ??_C@_0BN@GLMH@?$CIAPP?$CJ?5About?5to?5create?5app?5?$DN?5?$AA@ 100a34f0     KZOEAPAA.OBJ
 0003:00000514       ??_C@_0O@HBNK@Zeidon?5System?$AA@ 100a3514     KZOEAPAA.OBJ
 0003:00000524       ??_C@_0EM@BOOB@?$CIAPP?$CJ?5About?5to?5create?5app?5?$CI0x?$CF08@ 100a3524     KZOEAPAA.OBJ
 0003:00000580       ??_C@_0CF@PPFE@?$CIAPP?$CJ?5DeleteApp?5SUCCESSFUL?5for?5A@ 100a3580     KZOEAPAA.OBJ
 0003:000005ac       ??_C@_0CO@HIAJ@?$CIAPP?$CJ?5Finished?5dropping?5GK?5Handl@ 100a35ac     KZOEAPAA.OBJ
 0003:000005e4       ??_C@_0CO@JEMD@?$CIAPP?$CJ?5Finished?5dropping?5DB?5Handl@ 100a35e4     KZOEAPAA.OBJ
 0003:0000061c       ??_C@_0CK@ILFL@?$CIAPP?$CJ?5Finished?5dropping?5ViewODs?5@ 100a361c     KZOEAPAA.OBJ
 0003:00000650       ??_C@_0DA@KPA@?$CIAPP?$CJ?5Finished?5dropping?5Logical?5@ 100a3650     KZOEAPAA.OBJ
 0003:0000068c       ??_C@_0CK@PHHJ@?$CIAPP?$CJ?5Finished?5dropping?5Domains?5@ 100a368c     KZOEAPAA.OBJ
 0003:000006c0       ??_C@_0CM@ONOE@?$CIAPP?$CJ?5Finished?5dropping?5App?5View@ 100a36c0     KZOEAPAA.OBJ
 0003:000006f4       ??_C@_0CN@NHKB@?$CIAPP?$CJ?5Finished?5dropping?5View?5Nam@ 100a36f4     KZOEAPAA.OBJ
 0003:0000072c       ??_C@_0CI@OAOJ@?$CIAPP?$CJ?5Finished?5dropping?5Views?5fo@ 100a372c     KZOEAPAA.OBJ
 0003:0000075c       ??_C@_0BM@OIFA@?$CIAPP?$CJ?5About?5to?5delete?5App?3?5?$AA@ 100a375c     KZOEAPAA.OBJ
 0003:00000780       ??_C@_03BKPH@DKS?$AA@      100a3780     KZOEAPAA.OBJ
 0003:00000784       ??_C@_0O@DOED@IMPOSSIBLE?$CB?$CB?$CB?$AA@ 100a3784     KZOEAPAA.OBJ
 0003:00000794       ??_C@_0CK@IPAG@fnDeleteApp?5found?5Domains?5linked@ 100a3794     KZOEAPAA.OBJ
 0003:000007c8       ??_C@_0CL@DFNM@fnDeleteApp?5found?5Subtasks?5linke@ 100a37c8     KZOEAPAA.OBJ
 0003:000007fc       ??_C@_0EC@PMKL@fnDeleteApp?5found?5ViewOD?5?$CI?$CFs?$CJ?5fo@ 100a37fc     KZOEAPAA.OBJ
 0003:0000084c       ??_C@_0CI@PMOF@fnDeleteApp?5found?5Tasks?5linked?5t@ 100a384c     KZOEAPAA.OBJ
 0003:0000087c       ??_C@_0DA@HNEC@DeleteApp?5for?5App?5?$DN?$DN?$DN?$DN?$DN?$DN?$DN?$DN?$DN?$DN?$DN?$DN?$DN?$DN@ 100a387c     KZOEAPAA.OBJ
 0003:000008b8       ??_C@_0M@OGPE@?$CIKeepAlive?$CJ?$AA@ 100a38b8     KZOEAPAA.OBJ
 0003:000008c8       ??_C@_07BFAH@Options?$AA@  100a38c8     KZOEAPAA.OBJ
 0003:000008d4       ??_C@_0L@LOJF@EntityName?$AA@ 100a38d4     KZOEAPAA.OBJ
 0003:000008e4       ??_C@_0L@EIGE@EntitySpec?$AA@ 100a38e4     KZOEAPAA.OBJ
 0003:000008f4       ??_C@_0CF@OGEJ@SetDatabaseUser?3?5?$CFs?5for?5task?3?50x@ 100a38f4     KZOEAPAA.OBJ
 0003:00000920       ??_C@_08ILBJ@KZDBHQUA?$AA@ 100a3920     KZOEAPAA.OBJ
 0003:0000092c       ??_C@_0DL@MBON@Binary?5large?5object?5length?3?5?$CFd?5?5@ 100a392c     KZOEATAA.OBJ
 0003:00000974       ??_C@_02GIEM@?0?5?$AA@     100a3974     KZOEATAA.OBJ
 0003:00000978       ??_C@_0CI@PDJD@?$CIat?$CJ?5Couldn?8t?5read?5entire?5file?4?5@ 100a3978     KZOEATAA.OBJ
 0003:000009a8       ??_C@_0CD@HHFA@?$CIat?$CJ?5in?5SAFA?5fnGetAddrForAttribu@ 100a39a8     KZOEATAA.OBJ
 0003:000009d4       ??_C@_08DAHE@?5failed?4?$AA@ 100a39d4     KZOEATAA.OBJ
 0003:000009e0       ??_C@_0N@JOIE@InvokeInterp?$AA@ 100a39e0     KZOEATAA.OBJ
 0003:000009f0       ??_C@_0BJ@PBHD@Zeidon?5Interpretor?5Error?$AA@ 100a39f0     KZOEATAA.OBJ
 0003:00000a10       ??_C@_0BO@LLLM@Could?5not?5locate?5TZVMLOPR?4DLL?$AA@ 100a3a10     KZOEATAA.OBJ
 0003:00000a34       ??_C@_08HCPG@TZVMLOPR?$AA@ 100a3a34     KZOEATAA.OBJ
 0003:00000a40       ??_C@_05KBGO@Value?$AA@    100a3a40     KZOEATAA.OBJ
 0003:00000a48       ??_C@_05CMKC@vView?$AA@    100a3a48     KZOEATAA.OBJ
 0003:00000a50       ??_C@_08NCCJ@vSubtask?$AA@ 100a3a50     KZOEATAA.OBJ
 0003:00000a5c       ??_C@_02GMH@ID?$AA@        100a3a5c     KZOEATAA.OBJ
 0003:00000a60       ??_C@_08LOHJ@Variable?$AA@ 100a3a60     KZOEATAA.OBJ
 0003:00000a6c       ??_C@_04EFNI@Name?$AA@     100a3a6c     KZOEATAA.OBJ
 0003:00000a74       ??_C@_0O@NMLL@OperationCall?$AA@ 100a3a74     KZOEATAA.OBJ
 0003:00000a84       ??_C@_08BFEE@TZVSRTOO?$AA@ 100a3a84     KZOEATAA.OBJ
 0003:00000a90       ??_C@_03EFM@XPG?$AA@       100a3a90     KZOEATAA.OBJ
 0003:00000a94       ??_C@_0BE@LIH@Internal?5Core?5Error?$AA@ 100a3a94     KZOEATAA.OBJ
 0003:00000aac       ??_C@_0BN@FADF@Error?5reading?5OI?5from?5buffer?$AA@ 100a3aac     KZOEATAA.OBJ
 0003:00000ad0       ??_C@_08BIAE@TZVSPOOO?$AA@ 100a3ad0     KZOEATAA.OBJ
 0003:00000adc       ??_C@_0M@MBIB@VML_XSource?$AA@ 100a3adc     KZOEATAA.OBJ
 0003:00000aec       ??_C@_08PJNG@MetaName?$AA@ 100a3aec     KZOEATAA.OBJ
 0003:00000af8       ??_C@_07PHAI@LastXPG?$AA@  100a3af8     KZOEATAA.OBJ
 0003:00000b04       ??_C@_0M@NDPP@StackObject?$AA@ 100a3b04     KZOEATAA.OBJ
 0003:00000b14       ??_C@_0N@NAIN@Zeidon_Tools?$AA@ 100a3b14     KZOEATAA.OBJ
 0003:00000b24       ??_C@_09MGCF@ZeidonVML?$AA@ 100a3b24     KZOEATAA.OBJ
 0003:00000b30       ??_C@_0BA@EJKH@DerivedFunction?$AA@ 100a3b30     KZOEATAA.OBJ
 0003:00000b44       ??_C@_05GPHN@?$CKxpg?$CK?$AA@ 100a3b44     KZOEATAA.OBJ
 0003:00000b4c       ??_C@_09JBJF@DfExprVML?$AA@ 100a3b4c     KZOEATAA.OBJ
 0003:00000b58       ??_C@_0BK@CFAE@Entity?5Update?5not?5allowed?$AA@ 100a3b58     KZOEATAA.OBJ
 0003:00000b78       ??_C@_08MEJN@TZDMD101?$AA@ 100a3b78     KZOEATAA.OBJ
 0003:00000b84       ??_C@_0N@LGH@System?5Error?$AA@ 100a3b84     KZOEATAA.OBJ
 0003:00000b94       ??_C@_0EE@ELLG@Operation?5?8?$CFs?8?5does?5not?5handle?5a@ 100a3b94     KZOEATAA.OBJ
 0003:00000be8       ??_C@_03MIH@361?$AA@       100a3be8     KZOEATAA.OBJ
 0003:00000bec       ??_C@_0DK@MIOO@Invalid?5data?5format?4?5?5Your?5data?5@ 100a3bec     KZOEATAA.OBJ
 0003:00000c34       ??_C@_01PJCK@?4?$AA@       100a3c34     KZOEATAA.OBJ
 0003:00000c38       ??_C@_0L@DBIE@?0?5Domain?3?5?$AA@ 100a3c38     KZOEATAA.OBJ
 0003:00000c48       ??_C@_06MJOA@Type?3?5?$AA@ 100a3c48     KZOEATAA.OBJ
 0003:00000c50       ??_C@_0M@KHBM@Attribute?3?7?$AA@ 100a3c50     KZOEATAA.OBJ
 0003:00000c60       ??_C@_08DIIO@Entity?3?7?$AA@ 100a3c60     KZOEATAA.OBJ
 0003:00000c6c       ??_C@_01FDLN@?1?$AA@       100a3c6c     KZOEATAA.OBJ
 0003:00000c70       ??_C@_0BN@IKOI@SetCursorFirstEntityByString?$AA@ 100a3c70     KZOECMAA.OBJ
 0003:00000c94       ??_C@_0N@LPFC@?6Attribute?3?5?$AA@ 100a3c94     KZOECMAA.OBJ
 0003:00000ca4       ??_C@_09CJA@?6Entity?3?5?$AA@ 100a3ca4     KZOECMAA.OBJ
 0003:00000cb0       ??_C@_0O@LMDE@?6Object?5Def?3?5?$AA@ 100a3cb0     KZOECMAA.OBJ
 0003:00000cc0       ??_C@_0HD@GMPL@Failure?5during?5standard?5call?0?5bu@ 100a3cc0     KZOECMAA.OBJ
 0003:00000d4c       ??_C@_09PDHB@?$CIS?9?$DODT?$CJ?0?5?$AA@ 100a3d4c     KZOECMAA.OBJ
 0003:00000d58       ??_C@_0BM@EHFF@SetCursorNextEntityByString?$AA@ 100a3d58     KZOECMAA.OBJ
 0003:00000d7c       ??_C@_04PDNN@?$CIM?9?$DO?$AA@ 100a3d7c     KZOECMAA.OBJ
 0003:00000d84       ??_C@_04KOHF@?$CIS?9?$DO?$AA@ 100a3d84     KZOECMAA.OBJ
 0003:00000d8c       ??_C@_08EADA@?$CIS?9?$DOM?$CJ?0?5?$AA@ 100a3d8c     KZOECMAA.OBJ
 0003:00000d98       ??_C@_08GFGC@?$CIS?9?$DOL?$CJ?0?5?$AA@ 100a3d98     KZOECMAA.OBJ
 0003:00000da4       ??_C@_09JMMI@?$CI?$DP?9?$DODT?$CJ?0?5?$AA@ 100a3da4     KZOECMAA.OBJ
 0003:00000db0       ??_C@_03OIDK@?$CJ?0?5?$AA@ 100a3db0     KZOECMAA.OBJ
 0003:00000db4       ??_C@_04KBML@?$CIL?9?$DO?$AA@ 100a3db4     KZOECMAA.OBJ
 0003:00000dbc       ??_C@_0CO@LMCH@?$CIcm?$CJ?5Invalid?5qualification?5type?5@ 100a3dbc     KZOECMAA.OBJ
 0003:00000df4       ??_C@_0BC@JABP@fnSetEntityCursor?$AA@ 100a3df4     KZOECMAA.OBJ
 0003:00000e0c       ??_C@_0P@HOOF@Internal?5Error?$AA@ 100a3e0c     KZOECMAA.OBJ
 0003:00000e20       ??_C@_0EB@NEHK@?$CIcm?$CJ?5ERROR?5Unexpected?5Recursive?5@ 100a3e20     KZOECMAA.OBJ
 0003:00000e70       ??_C@_0N@EEMD@Zeidon?5Error?$AA@ 100a3e70     KZOEDMAA.OBJ
 0003:00000e80       ??_C@_0BO@PGDP@Domain?5has?5an?5unnamed?5Context?$AA@ 100a3e80     KZOEDMAA.OBJ
 0003:00000ea4       ??_C@_0BJ@JMFE@?0?5not?5found?5for?5Domain?3?5?$AA@ 100a3ea4     KZOEDMAA.OBJ
 0003:00000ec4       ??_C@_0M@ECFE@Operation?0?5?$AA@ 100a3ec4     KZOEDMAA.OBJ
 0003:00000ed4       ??_C@_0CB@OJIO@TZDME025?5?9?5Invalid?5table?5value?3?5@ 100a3ed4     KZOEDMAA.OBJ
 0003:00000efc       ??_C@_0FN@CICK@?$CItblh?$CJ?5Entry?5type?3?5?$CFd?5?5?5chType?3?5@ 100a3efc     KZOEDMAA.OBJ
 0003:00000f6c       ??_C@_0BM@PPJM@Entity?5Creation?5not?5allowed?$AA@ 100a3f6c     KZOEEIAA.OBJ
 0003:00000f90       ??_C@_0DC@CMIH@Entity?5Deletion?5not?5allowed?5?9?5ch@ 100a3f90     KZOEEIAA.OBJ
 0003:00000fcc       ??_C@_0EJ@KNBD@Can?8t?5delete?5entity?5?$CFs?5because?5o@ 100a3fcc     KZOEEIAA.OBJ
 0003:00001024       ??_C@_0BM@EFIC@Entity?5Deletion?5not?5allowed?$AA@ 100a4024     KZOEEIAA.OBJ
 0003:00001048       ??_C@_0BN@HDIE@Entity?5Exclusion?5not?5allowed?$AA@ 100a4048     KZOEEIAA.OBJ
 0003:0000106c       ??_C@_0DH@HEFK@LODs?5are?5potentially?5out?5of?5sync@ 100a406c     KZOEEIAA.OBJ
 0003:000010b0       ??_C@_0O@IMEJ@?$FLWorkstation?$FN?$AA@ 100a40b0     KZOEEIAA.OBJ
 0003:000010c0       ??_C@_0L@POIA@SyncER?1LOD?$AA@ 100a40c0     KZOEEIAA.OBJ
 0003:000010d0       ??_C@_0CO@PONF@Out?9of?9sync?5error?4?5Source?5LOD?5?$DN?5@ 100a40d0     KZOEEIAA.OBJ
 0003:00001108       ??_C@_07MBAF@?5?5?5?$DN?$DN?$DO?5?$AA@ 100a4108     KZOEEIAA.OBJ
 0003:00001114       ??_C@_0CO@BJBK@Out?9of?9sync?5error?4?5Target?5LOD?5?$DN?5@ 100a4114     KZOEEIAA.OBJ
 0003:0000114c       ??_C@_07JCPH@ERROR?3?5?$AA@ 100a414c     KZOEEIAA.OBJ
 0003:00001158       ??_C@_0DK@NDAP@The?5following?5LODs?5are?5out?5of?5sy@ 100a4158     KZOEEIAA.OBJ
 0003:000011a0       ??_C@_0BN@OGJL@Source?5Entity?5not?5includeble?$AA@ 100a41a0     KZOEEIAA.OBJ
 0003:000011c4       ??_C@_0BG@KEHK@Internal?5Zeidon?5Error?$AA@ 100a41c4     KZOEEIAA.OBJ
 0003:000011e0       ??_C@_0BM@MFFF@Entity?5Instance?5key?5is?5NULL?$AA@ 100a41e0     KZOEEIAA.OBJ
 0003:00001204       ??_C@_0EL@COED@fnCreateEntity?5ERROR?5locating?5Re@ 100a4204     KZOEEIAA.OBJ
 0003:00001260       ??_C@_0EG@IMAH@KZOEE264?5?9?5Invalid?5Operation?5for@ 100a4260     KZOEEIAA.OBJ
 0003:000012b4       ??_C@_0EE@GENJ@KZOEE255?5?9?5Attempt?5to?5update?5a?5p@ 100a42b4     KZOEEIAA.OBJ
 0003:00001308       ??_C@_0DD@MCKE@KZOEE254?5?9?5Entity?5cursor?5is?5unde@ 100a4308     KZOEEIAA.OBJ
 0003:00001348       ??_C@_03FMHJ@DGC?$AA@      100a4348     KZOEEIAA.OBJ
 0003:0000134c       ??_C@_0CF@ICNK@Invalid?5Table?5ID?5for?5entity?5inst@ 100a434c     KZOEEIAA.OBJ
 0003:00001378       ??_C@_0BJ@ODME@?$CIDGC?$CJ?5Entity?5Instance?5?$DN?5?$AA@ 100a4378     KZOEEIAA.OBJ
 0003:00001398       ??_C@_0BJ@HFKD@?$CIDGC?$CJ?5Entity?5Cursor?5?5?5?$DN?5?$AA@ 100a4398     KZOEEIAA.OBJ
 0003:000013b8       ??_C@_0BJ@FCJI@?$CIDGC?$CJ?5View?5?5?5Cursor?5?5?5?$DN?5?$AA@ 100a43b8     KZOEEIAA.OBJ
 0003:000013d8       ??_C@_0DG@FPJO@KZOEE252?5?9?5Root?5of?5view?5has?5been@ 100a43d8     KZOEEIAA.OBJ
 0003:00001418       ??_C@_0CO@MCMH@KZOEE253?5?9?5Entity?5cursor?5is?5NULL@ 100a4418     KZOEEIAA.OBJ
 0003:00001450       ??_C@_0DI@HOGP@KZOEE119?5?9?5Invalid?5View?0?5View?5is@ 100a4450     KZOEEIAA.OBJ
 0003:00001494       ??_C@_0CC@IILP@RemoveAllTemporal?5skipping?5break@ 100a4494     KZOEEIAA.OBJ
 0003:000014bc       ??_C@_0BA@JIGI@?5dks?52007?404?423?$AA@ 100a44bc     KZOEEIAA.OBJ
 0003:000014d0       ??_C@_0DO@GDJM@DomainError?3?5?$CFs?5?9?5?$CFs?5?5?5Type?3?5?$CFc?5@ 100a44d0     KZOEERAA.OBJ
 0003:0000151c       ??_C@_0BE@IDMA@Domain?5Name?5Unknown?$AA@ 100a451c     KZOEERAA.OBJ
 0003:00001534       ??_C@_0BB@JJHO@?6?5Debug?5Info?52?3?7?$AA@ 100a4534     KZOEERAA.OBJ
 0003:00001548       ??_C@_0BC@CGAI@?6?6?5Debug?5Info?51?3?7?$AA@ 100a4548     KZOEERAA.OBJ
 0003:00001560       ??_C@_07FGLN@?$FLDebug?$FN?$AA@ 100a4560     KZOEERAA.OBJ
 0003:0000156c       ??_C@_0O@CPBN@DomainMessage?$AA@ 100a456c     KZOEERAA.OBJ
 0003:0000157c       ??_C@_0BH@OAD@Unknown?5Error?5Message?5?$AA@ 100a457c     KZOEERAA.OBJ
 0003:00001598       ??_C@_0BF@CEEK@Invalid?5table?5value?4?$AA@ 100a4598     KZOEERAA.OBJ
 0003:000015b4       ??_C@_08DENA@TZDME025?$AA@ 100a45b4     KZOEERAA.OBJ
 0003:000015c0       ??_C@_0BI@KKAD@Invalid?5integer?5string?4?$AA@ 100a45c0     KZOEERAA.OBJ
 0003:000015dc       ??_C@_08JOEH@TZDME024?$AA@ 100a45dc     KZOEERAA.OBJ
 0003:000015e8       ??_C@_0BN@DPOI@Value?5is?5out?5of?5valid?5range?4?$AA@ 100a45e8     KZOEERAA.OBJ
 0003:0000160c       ??_C@_08MLKC@TZDME023?$AA@ 100a460c     KZOEERAA.OBJ
 0003:00001618       ??_C@_0CF@BPCL@Only?5AlphaNumeric?5chars?5are?5allo@ 100a4618     KZOEERAA.OBJ
 0003:00001644       ??_C@_08GBDF@TZDME022?$AA@ 100a4644     KZOEERAA.OBJ
 0003:00001650       ??_C@_0DD@IKIP@Return?5area?5not?5large?5enough?5for@ 100a4650     KZOEERAA.OBJ
 0003:00001690       ??_C@_08JOIM@TZDME021?$AA@ 100a4690     KZOEERAA.OBJ
 0003:0000169c       ??_C@_0BI@OIGC@Invalid?5decimal?5string?4?$AA@ 100a469c     KZOEERAA.OBJ
 0003:000016b8       ??_C@_08DEBL@TZDME020?$AA@ 100a46b8     KZOEERAA.OBJ
 0003:000016c4       ??_C@_0DC@KKBP@International?5number?5formatting?5@ 100a46c4     KZOEERAA.OBJ
 0003:00001700       ??_C@_08PBML@TZDME019?$AA@ 100a4700     KZOEERAA.OBJ
 0003:0000170c       ??_C@_0BN@MGEJ@Context?5edit?5string?5is?5null?4?$AA@ 100a470c     KZOEERAA.OBJ
 0003:00001730       ??_C@_08FLFM@TZDME018?$AA@ 100a4730     KZOEERAA.OBJ
 0003:0000173c       ??_C@_0CH@PBEI@Context?5Required?5when?5Type?5is?5DE@ 100a473c     KZOEERAA.OBJ
 0003:0000176c       ??_C@_08FKAB@TZDME017?$AA@ 100a476c     KZOEERAA.OBJ
 0003:00001778       ??_C@_0BL@OKJP@Input?5invalid?5for?5context?4?$AA@ 100a4778     KZOEERAA.OBJ
 0003:00001798       ??_C@_08PAJG@TZDME016?$AA@ 100a4798     KZOEERAA.OBJ
 0003:000017a4       ??_C@_0CN@FMDG@Context?5only?5used?5for?5arithmetic@ 100a47a4     KZOEERAA.OBJ
 0003:000017dc       ??_C@_08PCP@TZDME015?$AA@  100a47dc     KZOEERAA.OBJ
 0003:000017e8       ??_C@_0BP@CPMD@Context?5is?5for?5retrieval?5only?4?$AA@ 100a47e8     KZOEERAA.OBJ
 0003:00001810       ??_C@_08KFLI@TZDME014?$AA@ 100a4810     KZOEERAA.OBJ
 0003:0000181c       ??_C@_0CG@CJOK@Context?1cType?5Combination?5is?5inv@ 100a481c     KZOEERAA.OBJ
 0003:0000184c       ??_C@_08PAFN@TZDME013?$AA@ 100a484c     KZOEERAA.OBJ
 0003:00001858       ??_C@_0CI@HFIM@Context?5Required?5when?5Type?5is?5IN@ 100a4858     KZOEERAA.OBJ
 0003:00001888       ??_C@_08FKMK@TZDME012?$AA@ 100a4888     KZOEERAA.OBJ
 0003:00001894       ??_C@_0BP@FMOF@Error?5storing?5value?5in?5record?4?$AA@ 100a4894     KZOEERAA.OBJ
 0003:000018bc       ??_C@_08KFHD@TZDME011?$AA@ 100a48bc     KZOEERAA.OBJ
 0003:000018c8       ??_C@_0BP@KFNE@DateTime?5input?5string?5invalid?4?$AA@ 100a48c8     KZOEERAA.OBJ
 0003:000018f0       ??_C@_08POE@TZDME010?$AA@  100a48f0     KZOEERAA.OBJ
 0003:000018fc       ??_C@_0CL@KJPO@Context?5edit?5string?5is?5invalid?5f@ 100a48fc     KZOEERAA.OBJ
 0003:00001930       ??_C@_08OHGB@TZDME009?$AA@ 100a4930     KZOEERAA.OBJ
 0003:0000193c       ??_C@_0CD@JBNF@Could?5not?5find?5context?5for?5Domai@ 100a493c     KZOEERAA.OBJ
 0003:00001968       ??_C@_08ENPG@TZDME008?$AA@ 100a4968     KZOEERAA.OBJ
 0003:00001974       ??_C@_0BD@DDHE@Integer?5underflow?4?$AA@ 100a4974     KZOEERAA.OBJ
 0003:0000198c       ??_C@_08EMKL@TZDME007?$AA@ 100a498c     KZOEERAA.OBJ
 0003:00001998       ??_C@_0BC@IKDN@Integer?5overflow?4?$AA@ 100a4998     KZOEERAA.OBJ
 0003:000019b0       ??_C@_08OGDM@TZDME006?$AA@ 100a49b0     KZOEERAA.OBJ
 0003:000019bc       ??_C@_0CH@GED@Table_Handler?5invalid?5for?5this?5D@ 100a49bc     KZOEERAA.OBJ
 0003:000019ec       ??_C@_08BJIF@TZDME005?$AA@ 100a49ec     KZOEERAA.OBJ
 0003:000019f8       ??_C@_0BL@KCLF@Invalid?5Domain?5Entry?5Type?4?$AA@ 100a49f8     KZOEERAA.OBJ
 0003:00001a18       ??_C@_08LDBC@TZDME004?$AA@ 100a4a18     KZOEERAA.OBJ
 0003:00001a24       ??_C@_0CI@PNKK@Attribute?5Type?5invalid?5for?5this?5@ 100a4a24     KZOEERAA.OBJ
 0003:00001a54       ??_C@_08OGPH@TZDME003?$AA@ 100a4a54     KZOEERAA.OBJ
 0003:00001a60       ??_C@_0CG@NMOP@Text?5String?5exceeds?5attribute?5le@ 100a4a60     KZOEERAA.OBJ
 0003:00001a90       ??_C@_08EMGA@TZDME002?$AA@ 100a4a90     KZOEERAA.OBJ
 0003:00001a9c       ??_C@_0BJ@JKNP@Invalid?5Input?5Data?5Type?4?$AA@ 100a4a9c     KZOEERAA.OBJ
 0003:00001abc       ??_C@_08LDNJ@TZDME001?$AA@ 100a4abc     KZOEERAA.OBJ
 0003:00001ac8       ??_C@_0N@OBAJ@IssueError?3?5?$AA@ 100a4ac8     KZOEERAA.OBJ
 0003:00001ad8       ??_C@_0BI@CKFD@?$CIer?$CJ?5?9?5recursive?5error?5?$AA@ 100a4ad8     KZOEERAA.OBJ
 0003:00001af4       ??_C@_0L@PCAD@No?5message?$AA@ 100a4af4     KZOEERAA.OBJ
 0003:00001b04       ??_C@_0CB@DILP@IssueOE_Error?3?5?5?$CFs?5?5Severity?3?5?$CFd@ 100a4b04     KZOEERAA.OBJ
 0003:00001b2c       ??_C@_0O@IOG@?0?6Operation?3?5?$AA@ 100a4b2c     KZOEERAA.OBJ
 0003:00001b3c       ??_C@_01KMMP@?$CJ?$AA@     100a4b3c     KZOEERAA.OBJ
 0003:00001b40       ??_C@_0BB@JCA@?0?6?6View?5Object?3?5?$AA@ 100a4b40     KZOEERAA.OBJ
 0003:00001b54       ??_C@_0BB@CCFO@IssueOE_Error?5?3?5?$AA@ 100a4b54     KZOEERAA.OBJ
 0003:00001b68       ??_C@_02DLDK@?0?6?$AA@     100a4b68     KZOEERAA.OBJ
 0003:00001b6c       ??_C@_04OLOD@?0?6?6?5?$AA@ 100a4b6c     KZOEERAA.OBJ
 0003:00001b74       ??_C@_02CEEM@?$CJ?5?$AA@   100a4b74     KZOEERAA.OBJ
 0003:00001b78       ??_C@_0BI@IKFG@Unknown?5Error?5Message?5?$CI?$AA@ 100a4b78     KZOEERAA.OBJ
 0003:00001b94       ??_C@_0EF@FKMI@MiGetSetViewTaskAppFlags?5setting@ 100a4b94     KZOEMIAA.OBJ
 0003:00001be8       ??_C@_03CMJG@OFF?$AA@      100a4be8     KZOEMIAA.OBJ
 0003:00001bec       ??_C@_02HAKO@ON?$AA@       100a4bec     KZOEMIAA.OBJ
 0003:00001bf0       ??_C@_0DB@JEPJ@?$CImi?$CJ?5List?5OE?5Memory?5?$CD?$CD?$CD?$CD?$CD?$CD?5END?5?$CD@ 100a4bf0     KZOEMIAA.OBJ
 0003:00001c2c       ??_C@_0DK@CLED@?5?5?5?$FL?$CFlx?$FN?5size?3?5?$CFld?$DL?5fs?5ceiling?3?5@ 100a4c2c     KZOEMIAA.OBJ
 0003:00001c74       ??_C@_06LOAA@Active?$AA@   100a4c74     KZOEMIAA.OBJ
 0003:00001c7c       ??_C@_08DCJK@Shutdown?$AA@ 100a4c7c     KZOEMIAA.OBJ
 0003:00001c88       ??_C@_0DO@PPCE@?5?5Memory?5?$FL?$CFx?$FN?5for?5Task?50x?$CF08x?5?5?5@ 100a4c88     KZOEMIAA.OBJ
 0003:00001cd4       ??_C@_03NMFM@?$DP?$DP?$DP?$AA@ 100a4cd4     KZOEMIAA.OBJ
 0003:00001cd8       ??_C@_0DF@OHAL@?$CImi?$CJ?5List?5OE?5Memory?5?$CD?$CD?$CD?$CD?$CD?$CD?5BEGIN@ 100a4cd8     KZOEMIAA.OBJ
 0003:00001d18       ??_C@_0BB@KILE@Trace?5dataspace?5?$AA@ 100a4d18     KZOEMIAA.OBJ
 0003:00001d2c       ??_C@_03KLCE@Off?$AA@      100a4d2c     KZOEMIAA.OBJ
 0003:00001d30       ??_C@_02CCEO@On?$AA@       100a4d30     KZOEMIAA.OBJ
 0003:00001d34       ??_C@_0DG@DHCM@Memory?5Management?3?5Inconsistent?5@ 100a4d34     KZOEMMAA.OBJ
 0003:00001d74       ??_C@_0DE@LLGA@Memory?5Management?5Error?$CB?5Wrong?5D@ 100a4d74     KZOEMMAA.OBJ
 0003:00001db4       ??_C@_0BA@JAEC@TraceDataHeader?$AA@ 100a4db4     KZOEMMAA.OBJ
 0003:00001dc8       ??_C@_0N@PHMM@Zero?5FreeLth?$AA@ 100a4dc8     KZOEMMAA.OBJ
 0003:00001dd8       ??_C@_0BI@FNEN@?5?5Free?5Blocks?5?5?5?5?5?5?5?5?$DN?5?$AA@ 100a4dd8     KZOEMMAA.OBJ
 0003:00001df4       ??_C@_0BI@LPLM@?5?5Used?5Blocks?5?5?5?5?5?5?5?5?$DN?5?$AA@ 100a4df4     KZOEMMAA.OBJ
 0003:00001e10       ??_C@_0BI@OFMA@?5?5Max?5free?5Blocksize?5?$DN?5?$AA@ 100a4e10     KZOEMMAA.OBJ
 0003:00001e2c       ??_C@_0BI@BOEP@?5?5Used?5Size?5?5?5?5?5?5?5?5?5?5?$DN?5?$AA@ 100a4e2c     KZOEMMAA.OBJ
 0003:00001e48       ??_C@_0BI@DDBI@?5?5Total?5Size?5?5?5?5?5?5?5?5?5?$DN?5?$AA@ 100a4e48     KZOEMMAA.OBJ
 0003:00001e64       ??_C@_0BI@JKJL@Data?5Header?5Number?3?5?5?5?5?$AA@ 100a4e64     KZOEMMAA.OBJ
 0003:00001e80       ??_C@_0CO@CBEG@Running?5in?5Server?5Mode?5and?5using@ 100a4e80     KZOEMMAA.OBJ
 0003:00001eb8       ??_C@_0CO@OOLB@?$CImm?$CJ?5fnAllocDataspace?5unsuccessf@ 100a4eb8     KZOEMMAA.OBJ
 0003:00001ef0       ??_C@_0DD@GFFE@?$CImm?$CJ?5fnAllocDataspace?5for?5Anchor@ 100a4ef0     KZOEMMAA.OBJ
 0003:00001f30       ??_C@_0EP@KINB@?$CImm?$CJ?5fnAllocDataspace?5?$CI?$CFd?$CJ?5alloc@ 100a4f30     KZOEMMAA.OBJ
 0003:00001f90       ??_C@_0FB@JIKN@?$CImm?$CJ?5fnAllocDataspace?5?$CI?$CFd?$CJ?5alloc@ 100a4f90     KZOEMMAA.OBJ
 0003:00001ff4       ??_C@_0BK@GKIL@Memory?5Management?5Error?3?5?$AA@ 100a4ff4     KZOEMMAA.OBJ
 0003:00002014       ??_C@_0BN@PEEN@Inconsistent?5Freespace?5Count?$AA@ 100a5014     KZOEMMAA.OBJ
 0003:00002038       ??_C@_0CH@HDNL@?$CImm?$CJ?5Invalid?5fnAllocDataspace?5re@ 100a5038     KZOEMMAA.OBJ
 0003:00002068       ??_C@_0DH@GLJH@Memory?5Management?$CB?5Used?5memory?5s@ 100a5068     KZOEMMAA.OBJ
 0003:000020ac       ??_C@_0DF@DPJC@Memory?5Management?5Error?$CB?5Wrong?5D@ 100a50ac     KZOEMMAA.OBJ
 0003:000020ec       ??_C@_0BO@ILLO@Memory?5to?5free?5already?5freed?4?$AA@ 100a50ec     KZOEMMAA.OBJ
 0003:00002110       ??_C@_0EI@JPKG@FreeDataspace?3?5Memory?5to?5free?5al@ 100a5110     KZOEMMAA.OBJ
 0003:00002168       ??_C@_0BM@BEKD@Data?5header?5request?5invalid?$AA@ 100a5168     KZOEMMAA.OBJ
 0003:0000218c       ??_C@_0BK@PMAL@Freespace?5request?5invalid?$AA@ 100a518c     KZOEMMAA.OBJ
 0003:000021ac       ??_C@_0DK@MPFG@Allocating?5new?5space?5for?5Task?5?$CI0@ 100a51ac     KZOEMMAA.OBJ
 0003:000021f4       ??_C@_04KHMB@QMsg?$AA@     100a51f4     KZOEMQAA.OBJ
 0003:000021fc       ??_C@_08JIIE@KZMSGQOO?$AA@ 100a51fc     KZOEMQAA.OBJ
 0003:00002208       ??_C@_04ODNG@View?$AA@     100a5208     KZOEMQAA.OBJ
 0003:00002210       ??_C@_04BNNJ@Text?$AA@     100a5210     KZOEMQAA.OBJ
 0003:00002218       ??_C@_05LDDM@Title?$AA@    100a5218     KZOEMQAA.OBJ
 0003:00002220       ??_C@_06DPMO@Client?$AA@   100a5220     KZOEMQAA.OBJ
 0003:00002228       ??_C@_09NBP@ZeidonWeb?$AA@ 100a5228     KZOEMQAA.OBJ
 0003:00002234       ??_C@_0EM@CPND@MessagePrompt?5Trying?5to?5pop?5up?5a@ 100a5234     KZOEMQAA.OBJ
 0003:00002290       ??_C@_0P@CGC@?$FLObjectEngine?$FN?$AA@ 100a5290     KZOEMQAA.OBJ
 0003:000022a4       ??_C@_0BF@BDGH@WebUserErrorMessages?$AA@ 100a52a4     KZOEMQAA.OBJ
 0003:000022c0       ??_C@_0CN@PJMD@MessageSend?5Interface?5Active?3?5?$CFs@ 100a52c0     KZOEMQAA.OBJ
 0003:000022f8       ??_C@_0CM@LDEE@MessageSend?5Recursive?5Error?3?5?$CFs?5@ 100a52f8     KZOEMQAA.OBJ
 0003:0000232c       ??_C@_0CI@IADP@Message?5Interface?5Inactive?3?5?$CFs?5?$CF@ 100a532c     KZOEMQAA.OBJ
 0003:0000235c       ??_C@_0CP@DHOD@MessageSend?5Interface?5Inactive?3?5@ 100a535c     KZOEMQAA.OBJ
 0003:00002394       ??_C@_0CH@DILJ@MessageSend?5Task?5Error?3?5?$CFs?5?5?$CFs?5?5@ 100a5394     KZOEMQAA.OBJ
 0003:000023c4       ??_C@_04FCOP@Type?$AA@     100a53c4     KZOEMQAA.OBJ
 0003:000023cc       ??_C@_0DD@HLOO@MessagePrompt?5Trying?5to?5pop?5up?5a@ 100a53cc     KZOEMQAA.OBJ
 0003:0000240c       ??_C@_0CK@MJKJ@MessagePrompt?5Recursive?5Error?3?5?$CF@ 100a540c     KZOEMQAA.OBJ
 0003:00002440       ??_C@_0BD@IFDH@Interface?5Inactive?$AA@ 100a5440     KZOEMQAA.OBJ
 0003:00002458       ??_C@_0CF@PEEM@MessagePrompt?5Task?5Error?3?5?$CFs?5?5?$CFs@ 100a5458     KZOEMQAA.OBJ
 0003:00002484       ??_C@_0DC@GIEP@MessagePromptForInput?5Recursive?5@ 100a5484     KZOEMQAA.OBJ
 0003:000024c0       ??_C@_0CN@DBII@MessagePromptForInput?5Task?5Error@ 100a54c0     KZOEMQAA.OBJ
 0003:000024f8       ??_C@_0CD@OKDI@MessagePresent?5Recursive?5Error?3?5@ 100a54f8     KZOEMQAA.OBJ
 0003:00002524       ??_C@_0BO@FPIH@MessagePresent?5Task?5Error?3?5?$CFd?$AA@ 100a5524     KZOEMQAA.OBJ
 0003:00002548       ??_C@_0BN@ODIO@Cannot?5load?5Message?5Object?3?5?$AA@ 100a5548     KZOEMQAA.OBJ
 0003:0000256c       ??_C@_0BC@PICA@MQInterfaceRecord?$AA@ 100a556c     KZOEMQAA.OBJ
 0003:00002584       ??_C@_0BC@DNBO@fnFindMQInterface?$AA@ 100a5584     KZOEMQAA.OBJ
 0003:0000259c       ??_C@_0O@EKFD@TaskAppRecord?$AA@ 100a559c     KZOEMQAA.OBJ
 0003:000025ac       _szlApplA                  100a55ac     KZOENETA.OBJ
 0003:000025b4       _szlAddress                100a55b4     KZOENETA.OBJ
 0003:000025bc       __szlApplication           100a55bc     KZOENETA.OBJ
 0003:000025c8       _szlArgument               100a55c8     KZOENETA.OBJ
 0003:000025d4       _szlDataServer             100a55d4     KZOENETA.OBJ
 0003:000025e0       _szlDefaultServer          100a55e0     KZOENETA.OBJ
 0003:000025f0       _szlLOD                    100a55f0     KZOENETA.OBJ
 0003:000025f4       _szlNetworkError           100a55f4     KZOENETA.OBJ
 0003:0000260c       _szlOverrideLOD            100a560c     KZOENETA.OBJ
 0003:00002618       _szlOverrideLOD_Server     100a5618     KZOENETA.OBJ
 0003:0000262c       _szlOverrideOper           100a562c     KZOENETA.OBJ
 0003:0000263c       _szlOverrideOperServer     100a563c     KZOENETA.OBJ
 0003:00002650       _szlFalse                  100a5650     KZOENETA.OBJ
 0003:00002654       _szlTrue                   100a5654     KZOENETA.OBJ
 0003:00002658       _szlTranDataServer         100a5658     KZOENETA.OBJ
 0003:00002668       _szlTransformation         100a5668     KZOENETA.OBJ
 0003:00002678       _szlTranUserGroup          100a5678     KZOENETA.OBJ
 0003:00002688       _szlUserGroup              100a5688     KZOENETA.OBJ
 0003:000026c0       ??_C@_0BJ@EHOH@Cannot?5find?5network?5?8?$CFs?8?$AA@ 100a56c0     KZOENETA.OBJ
 0003:000026e0       ??_C@_0BF@GLC@Zeidon?5Network?5Error?$AA@ 100a56e0     KZOENETA.OBJ
 0003:000026fc       ??_C@_0ED@DJEB@Can?8t?5find?5Server?5Directory?5func@ 100a56fc     KZOENETA.OBJ
 0003:0000274c       ??_C@_0BC@HBA@zServerDirGetAddr?$AA@ 100a574c     KZOENETA.OBJ
 0003:00002764       ??_C@_0BA@MCNM@zServerDirClose?$AA@ 100a5764     KZOENETA.OBJ
 0003:00002778       ??_C@_0P@NBFJ@zServerDirInit?$AA@ 100a5778     KZOENETA.OBJ
 0003:0000278c       ??_C@_0L@MHGJ@ApplServer?$AA@ 100a578c     KZOENETA.OBJ
 0003:0000279c       ??_C@_04GKDJ@?$FL?$CFs?$FN?$AA@ 100a579c     KZOENETA.OBJ
 0003:000027a4       ??_C@_0DD@DDIN@?$CIkzoeneta?$CJ?5?$CK?$CK?5Open?5connection?5fa@ 100a57a4     KZOENETA.OBJ
 0003:000027e4       ??_C@_0DL@HADH@?$CIkzoeneta?$CJ?5?$CK?$CK?5Opening?5a?5connecti@ 100a57e4     KZOENETA.OBJ
 0003:0000282c       ??_C@_0BJ@HMHB@Couldn?8t?5find?5lpNetConn?$CB?$AA@ 100a582c     KZOENETA.OBJ
 0003:0000284c       ??_C@_02FECH@Id?$AA@       100a584c     KZOENETA.OBJ
 0003:00002850       ??_C@_04HDAF@Task?$AA@     100a5850     KZOENETA.OBJ
 0003:00002858       ??_C@_06OMJI@__MSGQ?$AA@   100a5858     KZOENETA.OBJ
 0003:00002860       ??_C@_0CN@HCGL@?$CIkzoeneta?$CJ?5?$CK?$CK?5Unable?5to?5send?5mes@ 100a5860     KZOENETA.OBJ
 0003:00002898       ??_C@_09IMGK@DBH_Error?$AA@ 100a5898     KZOENETA.OBJ
 0003:000028a4       ??_C@_0CL@IOJK@?$CIkzoeneta?$CJ?5?$CK?$CK?5Unable?5to?5send?5Tra@ 100a58a4     KZOENETA.OBJ
 0003:000028d8       ??_C@_0CP@NBFM@?$CIkzoeneta?$CJ?5?$CK?$CK?5Unable?5to?5send?5Tra@ 100a58d8     KZOENETA.OBJ
 0003:00002910       ??_C@_05EMFM@Trace?$AA@    100a5910     KZOENETA.OBJ
 0003:00002918       ??_C@_08PPHM@TraceEnd?$AA@ 100a5918     KZOENETA.OBJ
 0003:00002924       ??_C@_08GPOP@DateTime?$AA@ 100a5924     KZOENETA.OBJ
 0003:00002930       ??_C@_08JIKI@KZTRACEO?$AA@ 100a5930     KZOENETA.OBJ
 0003:0000293c       ??_C@_0DA@EAEJ@?$CIkzoeneta?$CJ?5?$CK?$CK?5Couldn?8t?5retrieve?5@ 100a593c     KZOENETA.OBJ
 0003:00002978       ??_C@_08JAGJ@kzmsgqoo?$AA@ 100a5978     KZOENETA.OBJ
 0003:00002984       ??_C@_0CO@OJEE@?$CIkzoeneta?$CJ?5?$CK?$CK?5Couldn?8t?5retrieve?5@ 100a5984     KZOENETA.OBJ
 0003:000029bc       ??_C@_0CB@KMFA@?$CIkzoeneta?$CJ?5?$CK?$CK?5End?5Server?5Trace?3?5@ 100a59bc     KZOENETA.OBJ
 0003:000029e4       ??_C@_0BF@EGEJ@?$CIkzoeneta?$CJ?5?$CK?$CK?5Line?3?5?$AA@ 100a59e4     KZOENETA.OBJ
 0003:00002a00       ??_C@_0CD@GAND@?$CIkzoeneta?$CJ?5?$CK?$CK?5Start?5Server?5Trace@ 100a5a00     KZOENETA.OBJ
 0003:00002a2c       ??_C@_0L@JJBL@TraceStart?$AA@ 100a5a2c     KZOENETA.OBJ
 0003:00002a3c       ??_C@_04KEDG@Line?$AA@     100a5a3c     KZOENETA.OBJ
 0003:00002a44       ??_C@_0CO@JAOH@?$CIkzoeneta?$CJ?5?$CK?$CK?5Couldn?8t?5retrieve?5@ 100a5a44     KZOENETA.OBJ
 0003:00002a7c       ??_C@_0CM@NAPH@?$CIkzoeneta?$CJ?5?$CK?$CK?5Couldn?8t?5retrieve?5@ 100a5a7c     KZOENETA.OBJ
 0003:00002ab0       ??_C@_06DOOC@?$CF2?42hd?$AA@ 100a5ab0     KZOENETA.OBJ
 0003:00002ab8       ??_C@_0CC@HGLB@?$CIkzoeneta?$CJ?5?$CK?$CK?5RC?5from?5activate?5?$DN@ 100a5ab8     KZOENETA.OBJ
 0003:00002ae0       ??_C@_0CJ@BGHJ@?$CIkzoeneta?$CJ?5?$CK?$CK?5No?5return?5code?5for@ 100a5ae0     KZOENETA.OBJ
 0003:00002b14       ??_C@_0CH@PAEI@?$CIkzoeneta?$CJ?5?$CK?$CK?5Received?5unknown?5P@ 100a5b14     KZOENETA.OBJ
 0003:00002b44       ??_C@_0CM@NFHD@?$CIkzoeneta?$CJ?5?$CK?$CK?5Received?5RC?5?9?5erro@ 100a5b44     KZOENETA.OBJ
 0003:00002b78       ??_C@_0BK@MODC@Server?5Transaction?5Crash?5?$AA@ 100a5b78     KZOENETA.OBJ
 0003:00002b98       ??_C@_0BA@LFAO@?$CKOut?5Of?5Memory?$CK?$AA@ 100a5b98     KZOENETA.OBJ
 0003:00002bac       ??_C@_0CC@BADB@Application?5not?5defined?5on?5Serve@ 100a5bac     KZOENETA.OBJ
 0003:00002bd4       ??_C@_0BO@NAJA@?$CIkzoeneta?$CJ?5?$CK?$CK?5Network?5error?5?$CD?$AA@ 100a5bd4     KZOENETA.OBJ
 0003:00002bf8       ??_C@_0CG@LNK@?$CIkzoeneta?$CJ?5?$CK?$CK?5Receiving?5activate@ 100a5bf8     KZOENETA.OBJ
 0003:00002c28       ??_C@_0DF@FLBM@?$CIkzoeneta?$CJ?5?$CK?$CK?5Received?5Act?5ACK?5?9@ 100a5c28     KZOENETA.OBJ
 0003:00002c68       ??_C@_0CG@DAND@?$CIkzoeneta?$CJ?5?$CK?$CK?5Error?5receiving?5OI@ 100a5c68     KZOENETA.OBJ
 0003:00002c98       ??_C@_0CH@JCDN@?$CIkzoeneta?$CJ?5?$CK?$CK?5Sending?5qualificat@ 100a5c98     KZOENETA.OBJ
 0003:00002cc8       ??_C@_0FG@MJBO@?$CIkzoeneta?$CJ?5?$CK?$CK?5Sending?5Activate?5P@ 100a5cc8     KZOENETA.OBJ
 0003:00002d30       ??_C@_02LFP@1b?$AA@        100a5d30     KZOENETA.OBJ
 0003:00002d34       ??_C@_0CH@PBEA@?$CIkzoeneta?$CJ?5?$CK?$CK?5Sending?5RequestOI?5@ 100a5d34     KZOENETA.OBJ
 0003:00002d64       ??_C@_08BLJC@zSimpDir?$AA@ 100a5d64     KZOENETA.OBJ
 0003:00002d70       ??_C@_0N@HDAN@ServerDirApp?$AA@ 100a5d70     KZOENETA.OBJ
 0003:00002d80       ??_C@_0CE@FAEG@?$CIkzoeneta?$CJ?5?$CK?$CK?5Local?5host?5address@ 100a5d80     KZOENETA.OBJ
 0003:00002dac       ??_C@_0BE@JFOA@ServerDBHTraceLevel?$AA@ 100a5dac     KZOENETA.OBJ
 0003:00002dc4       ??_C@_0BE@HNF@ServerNetTraceLevel?$AA@ 100a5dc4     KZOENETA.OBJ
 0003:00002ddc       ??_C@_0BF@JFNK@ServerCoreTraceLevel?$AA@ 100a5ddc     KZOENETA.OBJ
 0003:00002df8       ??_C@_0L@ODNC@TraceLevel?$AA@ 100a5df8     KZOENETA.OBJ
 0003:00002e08       ??_C@_0BK@KAO@Out?5of?5memory?5for?5network?$AA@ 100a5e08     KZOENETA.OBJ
 0003:00002e28       ??_C@_0CA@JHEM@?$CIkzoeneta?$CJ?5?$CK?$CK?5Starting?5network?5?$AA@ 100a5e28     KZOENETA.OBJ
 0003:00002e50       ??_C@_0DO@LNFB@Cannot?5find?5operation?5zNetGetLoc@ 100a5e50     KZOENETA.OBJ
 0003:00002e9c       ??_C@_0BD@GMJ@zNetGetHostAddress?$AA@ 100a5e9c     KZOENETA.OBJ
 0003:00002eb4       ??_C@_0DC@FPPO@Cannot?5find?5operation?5zNetReceiv@ 100a5eb4     KZOENETA.OBJ
 0003:00002ef0       ??_C@_0M@PEDE@zNetReceive?$AA@ 100a5ef0     KZOENETA.OBJ
 0003:00002f00       ??_C@_0CO@NJIH@Can?8t?5find?5operation?5zNetSend?5in@ 100a5f00     KZOENETA.OBJ
 0003:00002f38       ??_C@_08KIFN@zNetSend?$AA@ 100a5f38     KZOENETA.OBJ
 0003:00002f44       ??_C@_0DJ@MEBA@Can?8t?5find?5operation?5zNetCloseCo@ 100a5f44     KZOENETA.OBJ
 0003:00002f88       ??_C@_0BE@JINK@zNetCloseConnection?$AA@ 100a5f88     KZOENETA.OBJ
 0003:00002fa0       ??_C@_0DI@JOAI@Can?8t?5find?5operation?5zNetOpenCon@ 100a5fa0     KZOENETA.OBJ
 0003:00002fe4       ??_C@_0BD@KLFB@zNetOpenConnection?$AA@ 100a5fe4     KZOENETA.OBJ
 0003:00002ffc       ??_C@_0DE@GMNN@Can?8t?5find?5operation?5zNetStopLis@ 100a5ffc     KZOENETA.OBJ
 0003:0000303c       ??_C@_0P@PKGC@zNetStopListen?$AA@ 100a603c     KZOENETA.OBJ
 0003:00003050       ??_C@_0DA@JLPI@Can?8t?5find?5operation?5zNetListen?5@ 100a6050     KZOENETA.OBJ
 0003:0000308c       ??_C@_0L@OAJL@zNetListen?$AA@ 100a608c     KZOENETA.OBJ
 0003:0000309c       ??_C@_0CP@MPJH@Can?8t?5find?5operation?5zNetClose?5i@ 100a609c     KZOENETA.OBJ
 0003:000030d4       ??_C@_09DIDO@zNetClose?$AA@ 100a60d4     KZOENETA.OBJ
 0003:000030e0       ??_C@_0CP@LMKD@Can?8t?5find?5operation?5zNetStart?5i@ 100a60e0     KZOENETA.OBJ
 0003:00003118       ??_C@_09CMFF@zNetStart?$AA@ 100a6118     KZOENETA.OBJ
 0003:00003124       ??_C@_0BI@HHFA@Can?8t?5find?5library?5?8?$CFs?8?$AA@ 100a6124     KZOENETA.OBJ
 0003:00003140       ??_C@_0BD@IMBJ@DefaultNetworkExec?$AA@ 100a6140     KZOENETA.OBJ
 0003:00003158       ??_C@_0CC@BDFJ@No?5default?5network?5for?5NetStartu@ 100a6158     KZOENETA.OBJ
 0003:00003180       ??_C@_08KBJI@?$FLZeidon?$FN?$AA@ 100a6180     KZOENETA.OBJ
 0003:0000318c       ??_C@_0P@BGAE@DefaultNetwork?$AA@ 100a618c     KZOENETA.OBJ
 0003:000031a0       ??_C@_0BP@OPC@?$CIkzoeneta?$CJ?5?$CK?$CK?5Closing?5network?5?$AA@ 100a61a0     KZOENETA.OBJ
 0003:000031c8       ??_C@_0CF@NPEH@?$CIkzoeneta?$CJ?5?$CK?$CK?5NetClose?5for?5Netwo@ 100a61c8     KZOENETA.OBJ
 0003:000031f4       ??_C@_0CL@IJCC@?$CIkzoeneta?$CJ?5?$CK?$CK?5Starting?5listen?5fo@ 100a61f4     KZOENETA.OBJ
 0003:00003228       ??_C@_0CJ@JJBO@?$CIkzoeneta?$CJ?5?$CK?$CK?5Network?5already?5li@ 100a6228     KZOENETA.OBJ
 0003:0000325c       ??_C@_0CO@EOKO@?$CIkzoeneta?$CJ?5?$CK?$CK?5Starting?5NetListen@ 100a625c     KZOENETA.OBJ
 0003:00003294       ??_C@_0CF@JGGP@?$CIkzoeneta?$CJ?5?$CK?$CK?5Network?5not?5listen@ 100a6294     KZOENETA.OBJ
 0003:000032c0       ??_C@_0CL@BKLL@?$CIkzoeneta?$CJ?5?$CK?$CK?5Stopping?5listen?5fo@ 100a62c0     KZOENETA.OBJ
 0003:000032f4       ??_C@_0DP@KGCE@?$CIkzoeneta?$CJ?5?$CK?$CK?5Leaving?5NetProcess@ 100a62f4     KZOENETA.OBJ
 0003:00003340       ??_C@_0CI@FBNM@?$CIkzoeneta?$CJ?5?$CK?$CK?5Error?5sending?5zPAC@ 100a6340     KZOENETA.OBJ
 0003:00003370       ??_C@_0BN@MJIB@?$CIkzoeneta?$CJ?5?$CK?$CK?5Bad?5message?5?$DN?5?$AA@ 100a6370     KZOENETA.OBJ
 0003:00003394       ??_C@_0BP@KGDJ@?$CIkzoeneta?$CJ?5?$CK?$CK?5Message?5Type?5?$DN?$DN?5?$AA@ 100a6394     KZOENETA.OBJ
 0003:000033bc       ??_C@_0M@HADB@BAD_MESSAGE?$AA@ 100a63bc     KZOENETA.OBJ
 0003:000033cc       ??_C@_0P@FEMH@Call?5Operation?$AA@ 100a63cc     KZOENETA.OBJ
 0003:000033e0       ??_C@_09BFMO@Send?5File?$AA@ 100a63e0     KZOENETA.OBJ
 0003:000033ec       ??_C@_09LDEG@Commit?5OI?$AA@ 100a63ec     KZOENETA.OBJ
 0003:000033f8       ??_C@_0BC@MOPB@Commit?5OI?5to?5File?$AA@ 100a63f8     KZOENETA.OBJ
 0003:00003410       ??_C@_0L@GEHI@Request?5OI?$AA@ 100a6410     KZOENETA.OBJ
 0003:00003420       ??_C@_0BF@MKJM@Request?5OI?5From?5File?$AA@ 100a6420     KZOENETA.OBJ
 0003:0000343c       ??_C@_05GIDN@nLine?$AA@    100a643c     KZOENETA.OBJ
 0003:00003444       ??_C@_0DK@EGGP@?$CIkzoeneta?$CJ?5?$CK?$CK?5Error?5?4?4?4?5removing@ 100a6444     KZOENETA.OBJ
 0003:0000348c       ??_C@_0CN@MIOH@?$CIkzoeneta?$CJ?5?$CK?$CK?5Error?5receiving?5Tr@ 100a648c     KZOENETA.OBJ
 0003:000034c4       ??_C@_0CH@KPAK@?$CIkzoeneta?$CJ?5?$CK?$CK?5Error?5receiving?5me@ 100a64c4     KZOENETA.OBJ
 0003:000034f4       ??_C@_0CM@CDA@?$CIkzoeneta?$CJ?5?$CK?$CK?5Received?5message?5f@ 100a64f4     KZOENETA.OBJ
 0003:00003528       ??_C@_0EB@GMML@?$CIkzoeneta?$CJ?5?$CK?$CK?5Cannot?5find?5networ@ 100a6528     KZOENETA.OBJ
 0003:00003578       ??_C@_0DE@NCA@?$CIkzoeneta?$CJ?5?$CK?$CK?5Inside?5NetProcessM@ 100a6578     KZOENETA.OBJ
 0003:000035b8       ??_C@_01KPOD@?$DN?$AA@     100a65b8     KZOENETA.OBJ
 0003:000035bc       ??_C@_0O@JICG@AttributeName?$AA@ 100a65bc     KZOENETA.OBJ
 0003:000035cc       ??_C@_03LACO@AND?$AA@      100a65cc     KZOENETA.OBJ
 0003:000035d0       ??_C@_01GFI@?$CI?$AA@      100a65d0     KZOENETA.OBJ
 0003:000035d4       ??_C@_0BB@CPOO@SourceEntityName?$AA@ 100a65d4     KZOENETA.OBJ
 0003:000035e8       ??_C@_0N@NIIK@SourceViewID?$AA@ 100a65e8     KZOENETA.OBJ
 0003:000035f8       ??_C@_0P@FPPG@SourceViewName?$AA@ 100a65f8     KZOENETA.OBJ
 0003:0000360c       ??_C@_04FKDH@Oper?$AA@     100a660c     KZOENETA.OBJ
 0003:00003614       ??_C@_02PKFC@IS?$AA@       100a6614     KZOENETA.OBJ
 0003:00003618       ??_C@_0O@GCPH@SubQualAttrib?$AA@ 100a6618     KZOENETA.OBJ
 0003:00003628       ??_C@_0L@DIOI@QualAttrib?$AA@ 100a6628     KZOENETA.OBJ
 0003:00003638       ??_C@_0DO@DJKH@?$CIkzoeneta?$CJ?5?$CK?$CK?5Starting?5activate?5@ 100a6638     KZOENETA.OBJ
 0003:00003684       ??_C@_06CEIK@?$CFx?3?$CFlx?$AA@ 100a6684     KZOENETA.OBJ
 0003:0000368c       ??_C@_0BN@ONLK@?$CImerge?$CJ?5Extra?5New?5entity?$CB?5?$DN?5?$AA@ 100a668c     KZOENETA.OBJ
 0003:000036b0       ??_C@_0BH@LDLJ@?$CImerge?$CJ?5lpNew?9?$DOlTag?5?$DN?5?$AA@ 100a66b0     KZOENETA.OBJ
 0003:000036cc       ??_C@_0BH@BKMF@?$CImerge?$CJ?5lpOld?5?5?5?5?5?5?5?$DN?5?$AA@ 100a66cc     KZOENETA.OBJ
 0003:000036e8       ??_C@_0CI@FPHM@?$CImerge?$CJ?5Tags?5don?8t?5match?$CB?5New?5en@ 100a66e8     KZOENETA.OBJ
 0003:00003718       ??_C@_0CI@JLMD@?$CImerge?$CJ?5Tags?5don?8t?5match?$CB?5Old?5en@ 100a6718     KZOENETA.OBJ
 0003:00003748       ??_C@_0CA@EJON@?$CIkzoeneta?$CJ?5?$CK?$CK?5RC?5from?5commit?5?$DN?5?$AA@ 100a6748     KZOENETA.OBJ
 0003:00003770       ??_C@_0CJ@NGEM@?$CIkzoeneta?$CJ?5?$CK?$CK?5Received?5bytes?5but@ 100a6770     KZOENETA.OBJ
 0003:000037a4       ??_C@_0CP@PMCB@?$CIkzoeneta?$CJ?5?$CK?$CK?5Error?5receiving?5OI@ 100a67a4     KZOENETA.OBJ
 0003:000037dc       ??_C@_0CG@CNJI@?$CIkzoeneta?$CJ?5?$CK?$CK?5Waiting?5for?5return@ 100a67dc     KZOENETA.OBJ
 0003:0000380c       ??_C@_0CL@GOMF@?$CIkzoeneta?$CJ?5?$CK?$CK?5Error?5sending?5OI?5f@ 100a680c     KZOENETA.OBJ
 0003:00003840       ??_C@_0CE@BDJB@?$CIkzoeneta?$CJ?5?$CK?$CK?5Sending?5OIs?5to?5com@ 100a6840     KZOENETA.OBJ
 0003:0000386c       ??_C@_0BH@CGMJ@?$CIkzoeneta?$CJ?5?$CK?$CK?5LB?5Lth?3?5?$AA@ 100a686c     KZOENETA.OBJ
 0003:00003888       ??_C@_0BJ@LCNM@?$CIkzoeneta?$CJ?5?$CK?$CK?5OD?5Names?3?5?$AA@ 100a6888     KZOENETA.OBJ
 0003:000038a8       ??_C@_0CO@ODIF@?$CIkzoeneta?$CJ?5?$CK?$CK?5View?5Count?3?5?$CFs?5?5OD@ 100a68a8     KZOENETA.OBJ
 0003:000038e0       ??_C@_0CM@DEHH@?$CIkzoeneta?$CJ?5?$CK?$CK?5Appl?5Name?3?5?$CFs?5?5Use@ 100a68e0     KZOENETA.OBJ
 0003:00003914       ??_C@_0CH@DJGN@?$CIkzoeneta?$CJ?5?$CK?$CK?5Sending?5Commit?5OI?5@ 100a6914     KZOENETA.OBJ
 0003:00003944       ??_C@_0CF@NMFO@?$CIkzoeneta?$CJ?5?$CK?$CK?5RC?5from?5transactio@ 100a6944     KZOENETA.OBJ
 0003:00003970       ??_C@_0CN@KEIF@?$CIkzoeneta?$CJ?5?$CK?$CK?5Not?5able?5to?5retrie@ 100a6970     KZOENETA.OBJ
 0003:000039a8       ??_C@_0N@LNAH@ViewReturned?$AA@ 100a69a8     KZOENETA.OBJ
 0003:000039b8       ??_C@_01KFAL@E?$AA@        100a69b8     KZOENETA.OBJ
 0003:000039bc       ??_C@_0M@BKKK@ReturnValue?$AA@ 100a69bc     KZOENETA.OBJ
 0003:000039cc       ??_C@_0CN@JCDO@?$CIkzoeneta?$CJ?5?$CK?$CK?5Not?5able?5to?5retrie@ 100a69cc     KZOENETA.OBJ
 0003:00003a04       ??_C@_0DD@NHEI@?$CIkzoeneta?$CJ?5?$CK?$CK?5No?5return?5code?5for@ 100a6a04     KZOENETA.OBJ
 0003:00003a44       ??_C@_0BO@PLHK@?$CIkzoeneta?$CJ?5?$CK?$CK?5Waiting?5for?5ACK?$AA@ 100a6a44     KZOENETA.OBJ
 0003:00003a68       ??_C@_0CJ@EPEH@?$CIkzoeneta?$CJ?5?$CK?$CK?5Error?5sending?5argu@ 100a6a68     KZOENETA.OBJ
 0003:00003a9c       ??_C@_01PDMC@V?$AA@        100a6a9c     KZOENETA.OBJ
 0003:00003aa0       ??_C@_0CE@OPPG@?$CIkzoeneta?$CJ?5?$CK?$CK?5Error?5sending?5Arg?5@ 100a6aa0     KZOENETA.OBJ
 0003:00003acc       ??_C@_0CK@EIIH@?$CIkzoeneta?$CJ?5?$CK?$CK?5Sending?5Transforma@ 100a6acc     KZOENETA.OBJ
 0003:00003b00       ??_C@_0M@ONNJ@SubtaskView?$AA@ 100a6b00     KZOENETA.OBJ
 0003:00003b10       ??_C@_01OAK@N?$AA@         100a6b10     KZOENETA.OBJ
 0003:00003b14       ??_C@_08FNON@DataType?$AA@ 100a6b14     KZOENETA.OBJ
 0003:00003b20       ??_C@_0N@EPJI@SendArgument?$AA@ 100a6b20     KZOENETA.OBJ
 0003:00003b30       ??_C@_0N@GJDM@PointerValue?$AA@ 100a6b30     KZOENETA.OBJ
 0003:00003b40       ??_C@_0P@EDLM@ReturnArgument?$AA@ 100a6b40     KZOENETA.OBJ
 0003:00003b54       ??_C@_01PCJP@Y?$AA@        100a6b54     KZOENETA.OBJ
 0003:00003b58       ??_C@_0L@JGJO@ReturnType?$AA@ 100a6b58     KZOENETA.OBJ
 0003:00003b68       ??_C@_08PMAN@DLL_Name?$AA@ 100a6b68     KZOENETA.OBJ
 0003:00003b74       ??_C@_01PACF@G?$AA@        100a6b74     KZOENETA.OBJ
 0003:00003b78       ??_C@_0L@OKBL@ObjectName?$AA@ 100a6b78     KZOENETA.OBJ
 0003:00003b88       ??_C@_0O@LJID@OperationType?$AA@ 100a6b88     KZOENETA.OBJ
 0003:00003b98       ??_C@_01KGOM@T?$AA@        100a6b98     KZOENETA.OBJ
 0003:00003b9c       ??_C@_08DJIK@OperName?$AA@ 100a6b9c     KZOENETA.OBJ
 0003:00003ba8       ??_C@_0BA@FCJM@ApplicationName?$AA@ 100a6ba8     KZOENETA.OBJ
 0003:00003bbc       ??_C@_09GMMJ@Operation?$AA@ 100a6bbc     KZOENETA.OBJ
 0003:00003bc8       ??_C@_08FNEA@kztranwo?$AA@ 100a6bc8     KZOENETA.OBJ
 0003:00003bd4       ??_C@_0CK@EJAP@?$CIkzoeneta?$CJ?5?$CK?$CK?5Setting?5Net?5trace?5@ 100a6bd4     KZOENETA.OBJ
 0003:00003c08       ??_C@_0CI@DBIM@?$CIkzoeneta?$CJ?5?5?5?5?5?5?5?5?5?$CK?$CK?5Network?5li@ 100a6c08     KZOENETA.OBJ
 0003:00003c38       ??_C@_0CM@ENIE@?$CIkzoeneta?$CJ?5?5?5?5?5?5?5?5?5?$CK?$CK?5Connection@ 100a6c38     KZOENETA.OBJ
 0003:00003c6c       ??_C@_0CG@PDGB@?$CIkzoeneta?$CJ?5?5?5?5?5?5?5?5?5?$CK?$CK?5Network?5ru@ 100a6c6c     KZOENETA.OBJ
 0003:00003c9c       ??_C@_0CL@KFLK@?$CIkzoeneta?$CJ?5?$CK?$CK?5Network?5status?5for@ 100a6c9c     KZOENETA.OBJ
 0003:00003cd0       ??_C@_0DG@BKII@?$CIkzoeneta?$CJ?5?$CK?$CK?5Network?5status?3?5no@ 100a6cd0     KZOENETA.OBJ
 0003:00003d10       ??_C@_09GPO@?$CKdefault?$CK?$AA@ 100a6d10     KZOENETA.OBJ
 0003:00003d1c       ??_C@_0CD@ICDP@?$CIkzoeneta?$CJ?5?$CK?$CK?5Error?5receiving?5da@ 100a6d1c     KZOENETA.OBJ
 0003:00003d48       ??_C@_0CO@HIHC@?$CIkzoeneta?$CJ?5?$CK?$CK?5Received?5SENDLTH?5p@ 100a6d48     KZOENETA.OBJ
 0003:00003d80       ??_C@_0DG@KIBO@?$CIkzoeneta?$CJ?5?$CK?$CK?5Invalid?5packet?5typ@ 100a6d80     KZOENETA.OBJ
 0003:00003dc0       ??_C@_0CM@BNG@?$CIkzoeneta?$CJ?5?$CK?$CK?5Received?5Packet?5ER@ 100a6dc0     KZOENETA.OBJ
 0003:00003df4       ??_C@_0CK@KHFM@Error?5transmitting?5OI?5?9?9?5some?5li@ 100a6df4     KZOENETA.OBJ
 0003:00003e28       ??_C@_0CG@LDBC@?$CIkzoeneta?$CJ?5?$CK?$CK?5Received?5OI?5END?5me@ 100a6e28     KZOENETA.OBJ
 0003:00003e58       ??_C@_0CH@GEHO@?$CIkzoeneta?$CJ?5?$CK?$CK?5Error?5receiving?5SE@ 100a6e58     KZOENETA.OBJ
 0003:00003e88       ??_C@_0CC@PAOB@Invalid?5Attr?5name?5for?5Entity?5?$DN?5?$CF@ 100a6e88     KZOENETA.OBJ
 0003:00003eb0       ??_C@_0CO@GNNE@Maximum?5number?5of?5entities?5in?5st@ 100a6eb0     KZOENETA.OBJ
 0003:00003ee8       ??_C@_0BK@NKPC@Invalid?5Entity?5level?5?$DN?5?$CFs?$AA@ 100a6ee8     KZOENETA.OBJ
 0003:00003f08       ??_C@_0BJ@COP@Invalid?5Entity?5name?5?$DN?5?$CFs?$AA@ 100a6f08     KZOENETA.OBJ
 0003:00003f28       ??_C@_0CB@NPJ@?$CIkzoeneta?$CJ?5?$CK?$CK?5Read?5Data?5error?5?$DN?5@ 100a6f28     KZOENETA.OBJ
 0003:00003f50       ??_C@_0DJ@MJAH@?$CIkzoeneta?$CJ?5?$CK?$CK?5Error?5receiving?5OI@ 100a6f50     KZOENETA.OBJ
 0003:00003f94       ??_C@_0CL@KNHF@?$CIkzoeneta?$CJ?5?$CK?$CK?5Receive?5OI?5OK?4?5?5Se@ 100a6f94     KZOENETA.OBJ
 0003:00003fc8       ??_C@_0CH@BNNI@?$CIkzoeneta?$CJ?5?$CK?$CK?5Initiating?5receive@ 100a6fc8     KZOENETA.OBJ
 0003:00003ff8       ??_C@_0CG@HNMP@?$CIkzoeneta?$CJ?5?$CK?$CK?5Error?5sending?5data@ 100a6ff8     KZOENETA.OBJ
 0003:00004028       ??_C@_0CM@DIGI@?$CIkzoeneta?$CJ?5?$CK?$CK?5Error?5sending?5zPAC@ 100a7028     KZOENETA.OBJ
 0003:0000405c       ??_C@_0CC@IGND@?$CIkzoeneta?$CJ?5?$CK?$CK?5Sending?5END?5packet@ 100a705c     KZOENETA.OBJ
 0003:00004084       ??_C@_06OFMK@NETACT?$AA@   100a7084     KZOENETA.OBJ
 0003:0000408c       ??_C@_0BC@MJJP@NetSendCompressed?$AA@ 100a708c     KZOENETA.OBJ
 0003:000040a4       ??_C@_0CJ@NKCF@?$CIkzoeneta?$CJ?5?$CK?$CK?5Not?5able?5send?5Retu@ 100a70a4     KZOENETA.OBJ
 0003:000040d8       ??_C@_0CH@BBPE@?$CIkzoeneta?$CJ?5?$CK?$CK?5Sending?5RC?5packet?4@ 100a70d8     KZOENETA.OBJ
 0003:00004108       ??_C@_0CE@NMO@?$CIkzoeneta?$CJ?5?$CK?$CK?5Sending?5Activated?5@ 100a7108     KZOENETA.OBJ
 0003:00004134       ??_C@_0CN@MMFL@?$CIkzoeneta?$CJ?5?$CK?$CK?5Not?5able?5to?5ACK?5re@ 100a7134     KZOENETA.OBJ
 0003:0000416c       ??_C@_0CN@OGJE@?$CIkzoeneta?$CJ?5?$CK?$CK?5Not?5able?5to?5indica@ 100a716c     KZOENETA.OBJ
 0003:000041a4       ??_C@_0CB@OJNA@?$CIkzoeneta?$CJ?5?$CK?$CK?5Receiving?5Qual?5OI?4@ 100a71a4     KZOENETA.OBJ
 0003:000041cc       ??_C@_0CB@CKJN@?$CIkzoeneta?$CJ?5?$CK?$CK?5Invalid?5OD?5name?5?$DN?5@ 100a71cc     KZOENETA.OBJ
 0003:000041f4       ??_C@_0CC@CFA@?$CIkzoeneta?$CJ?5?$CK?$CK?5Invalid?5App?5name?5?$DN@ 100a71f4     KZOENETA.OBJ
 0003:0000421c       ??_C@_0DK@IDJC@?$CIkzoeneta?$CJ?5?$CK?$CK?5User?5Name?3?5?$CFs?5?5App@ 100a721c     KZOENETA.OBJ
 0003:00004264       ??_C@_0CJ@NJAP@?$CIkzoeneta?$CJ?5?$CK?$CK?5Couldn?8t?5retrieve?5@ 100a7264     KZOENETA.OBJ
 0003:00004298       ??_C@_0CI@HEFB@?$CIkzoeneta?$CJ?5?$CK?$CK?5Retrieving?5Activat@ 100a7298     KZOENETA.OBJ
 0003:000042c8       ??_C@_0CM@CNPK@?$CIkzoeneta?$CJ?5?$CK?$CK?5Received?5Activate?5@ 100a72c8     KZOENETA.OBJ
 0003:000042fc       ??_C@_0P@JNC@?$CIkzoeneta?$CJ?5?$CK?$CK?5?$AA@ 100a72fc     KZOENETA.OBJ
 0003:00004310       ??_C@_0CO@OODD@fnProcessActivateOI_FromFile?$CI?5?$CJ?5@ 100a7310     KZOENETA.OBJ
 0003:00004348       ??_C@_0DC@HFCF@Link?5buffer?3?5Link?5EIs?5don?8t?5have@ 100a7348     KZOENETA.OBJ
 0003:00004384       ??_C@_0DA@IOBN@Link?5buffer?3?5Could?5find?5EI?5match@ 100a7384     KZOENETA.OBJ
 0003:000043c0       ??_C@_0CM@EIKB@Link?5buffer?3?5expecting?5?8?$CJ?1?8?5afte@ 100a73c0     KZOENETA.OBJ
 0003:000043f4       ??_C@_0CF@ODDL@Link?5buffer?3?5expecting?5hex?5digit@ 100a73f4     KZOENETA.OBJ
 0003:00004420       ??_C@_0CJ@PJGO@Link?5buffer?3?5Could?5find?5OI?5match@ 100a7420     KZOENETA.OBJ
 0003:00004454       ??_C@_0CJ@COO@Link?5buffer?3?5expecting?5?8?3?8?5after@ 100a7454     KZOENETA.OBJ
 0003:00004488       ??_C@_0CC@EEDE@Link?5buffer?3?5expecting?5hex?5digit@ 100a7488     KZOENETA.OBJ
 0003:000044b0       ??_C@_0CF@LGAL@Link?5buffer?5doesn?8t?5start?5with?5a@ 100a74b0     KZOENETA.OBJ
 0003:000044dc       ??_C@_0CM@HING@?$CIkzoeneta?$CJ?5?$CK?$CK?5Not?5able?5send?5Erro@ 100a74dc     KZOENETA.OBJ
 0003:00004510       ??_C@_0CI@KGJB@?$CIkzoeneta?$CJ?5?$CK?$CK?5Sending?5RC?5packet?4@ 100a7510     KZOENETA.OBJ
 0003:00004540       ??_C@_0CF@KJBC@?$CIkzoeneta?$CJ?5?$CK?$CK?5Sending?5committed?5@ 100a7540     KZOENETA.OBJ
 0003:0000456c       ??_C@_0DD@CJKL@?$CIkzoeneta?$CJ?5?$CK?$CK?5Not?5able?5to?5retrie@ 100a756c     KZOENETA.OBJ
 0003:000045ac       ??_C@_0CH@LPBC@?$CIkzoeneta?$CJ?5?$CK?$CK?5Receiving?5OIs?5to?5c@ 100a75ac     KZOENETA.OBJ
 0003:000045dc       ??_C@_0DK@HDFN@?$CIkzoeneta?$CJ?5?$CK?$CK?5App?5Name?3?5?$CFs?5?5Obje@ 100a75dc     KZOENETA.OBJ
 0003:00004624       ??_C@_0BN@PGA@?$CIkzoeneta?$CJ?5?$CK?$CK?5Link?5Buffer?5?$DN?5?$AA@ 100a7624     KZOENETA.OBJ
 0003:00004648       ??_C@_0DB@EHAP@?$CIkzoeneta?$CJ?5?$CK?$CK?5Couldn?8t?5retrieve?5@ 100a7648     KZOENETA.OBJ
 0003:00004684       ??_C@_0DC@MIAE@?$CIkzoeneta?$CJ?5?$CK?$CK?5Couldn?8t?5retrieve?5@ 100a7684     KZOENETA.OBJ
 0003:000046c0       ??_C@_0CM@NBGD@?$CIkzoeneta?$CJ?5?$CK?$CK?5Couldn?8t?5retrieve?5@ 100a76c0     KZOENETA.OBJ
 0003:000046f4       ??_C@_0CI@IEBE@?$CIkzoeneta?$CJ?5?$CK?$CK?5Retrieving?5Commit?5@ 100a76f4     KZOENETA.OBJ
 0003:00004724       ??_C@_0CK@CFI@?$CIkzoeneta?$CJ?5?$CK?$CK?5Received?5Commit?5OI@ 100a7724     KZOENETA.OBJ
 0003:00004758       ??_C@_0CK@HFCJ@fnProcessCommitOI_ToFile?$CI?5?$CJ?5is?5D@ 100a7758     KZOENETA.OBJ
 0003:0000478c       ??_C@_0CI@FLJJ@?$CIkzoeneta?$CJ?5?$CK?$CK?5Not?5able?5send?5line@ 100a778c     KZOENETA.OBJ
 0003:000047bc       ??_C@_0CM@OHAI@?$CIkzoeneta?$CJ?5?$CK?$CK?5Sending?5?$CD?5of?5lines@ 100a77bc     KZOENETA.OBJ
 0003:000047f0       ??_C@_0CK@FILB@?$CIkzoeneta?$CJ?5?$CK?$CK?5Error?5writing?5line@ 100a77f0     KZOENETA.OBJ
 0003:00004824       ??_C@_0CP@HMBJ@?$CIkzoeneta?$CJ?5?$CK?$CK?5Couldn?8t?5retrieve?5@ 100a7824     KZOENETA.OBJ
 0003:0000485c       ??_C@_0BO@IIAJ@?$CIkzoeneta?$CJ?5?$CK?$CK?5Receiving?5file?4?$AA@ 100a785c     KZOENETA.OBJ
 0003:00004880       ??_C@_0CK@LFPJ@?$CIkzoeneta?$CJ?5?$CK?$CK?5App?5Name?3?5?$CFs?5?5File@ 100a7880     KZOENETA.OBJ
 0003:000048b4       ??_C@_0CL@LCMO@?$CIkzoeneta?$CJ?5?$CK?$CK?5Couldn?8t?5retrieve?5@ 100a78b4     KZOENETA.OBJ
 0003:000048e8       ??_C@_0CP@MGKA@?$CIkzoeneta?$CJ?5?$CK?$CK?5Couldn?8t?5retrieve?5@ 100a78e8     KZOENETA.OBJ
 0003:00004920       ??_C@_0CK@CBKM@?$CIkzoeneta?$CJ?5?$CK?$CK?5Received?5Send?5File@ 100a7920     KZOENETA.OBJ
 0003:00004954       ??_C@_0DK@BJBO@?$CIkzoeneta?$CJ?5?$CK?$CK?5Not?5able?5send?5view@ 100a7954     KZOENETA.OBJ
 0003:0000499c       ??_C@_0DC@FCON@?$CIkzoeneta?$CJ?5?$CK?$CK?5Not?5able?5send?5vArg@ 100a799c     KZOENETA.OBJ
 0003:000049d8       ??_C@_0BL@LONK@Can?8t?5find?5_zCall?4?4?4?5func?4?$AA@ 100a79d8     KZOENETA.OBJ
 0003:000049f8       ??_C@_0CC@KOAJ@?$CIkzoeneta?$CJ?5?$CK?$CK?5Global?5operation?5?$DN@ 100a79f8     KZOENETA.OBJ
 0003:00004a20       ??_C@_09FGAN@_zCall_?$CFs?$AA@ 100a7a20     KZOENETA.OBJ
 0003:00004a2c       ??_C@_0BM@HBIG@Can?8t?5find?5global?5oper?5lib?4?$AA@ 100a7a2c     KZOENETA.OBJ
 0003:00004a50       ??_C@_0CK@CBOP@?$CIkzoeneta?$CJ?5?$CK?$CK?5Global?5operation?5l@ 100a7a50     KZOENETA.OBJ
 0003:00004a84       ??_C@_0CK@IDNN@?$CIkzoeneta?$CJ?5?$CK?$CK?5Error?5sending?5zPAC@ 100a7a84     KZOENETA.OBJ
 0003:00004ab8       ??_C@_08NKKK@Password?$AA@ 100a7ab8     KZOENETA.OBJ
 0003:00004ac4       ??_C@_08BJPE@UserName?$AA@ 100a7ac4     KZOENETA.OBJ
 0003:00004ad0       ??_C@_01JME@l?$AA@         100a7ad0     KZOENETA.OBJ
 0003:00004ad4       ??_C@_0CK@NHGB@?$CIkzoeneta?$CJ?5?$CK?$CK?5Couldn?8t?5retrieve?5@ 100a7ad4     KZOENETA.OBJ
 0003:00004b08       ??_C@_0CK@FNOC@?$CIkzoeneta?$CJ?5?$CK?$CK?5Retrieving?5the?5Arg@ 100a7b08     KZOENETA.OBJ
 0003:00004b3c       ??_C@_0CP@HAIB@?$CIkzoeneta?$CJ?5?$CK?$CK?5Received?5Transform@ 100a7b3c     KZOENETA.OBJ
 0003:00004b74       ??_C@_0CN@EFKG@?$CIkzoeneta?$CJ?5?$CK?$CK?5Received?5Trace?5Swi@ 100a7b74     KZOENETA.OBJ
 0003:00004bac       ??_C@_0DF@EBAP@?$CIkzoeneta?$CJ?5?$CK?$CK?5Couldn?8t?5retrieve?5@ 100a7bac     KZOENETA.OBJ
 0003:00004bec       ??_C@_0CK@DIDM@?$CIkzoeneta?$CJ?5?$CK?$CK?5Received?5Timestamp@ 100a7bec     KZOENETA.OBJ
 0003:00004c20       ??_C@_0DC@OJLL@?$CIkzoeneta?$CJ?5?$CK?$CK?5Couldn?8t?5retrieve?5@ 100a7c20     KZOENETA.OBJ
 0003:00004c5c       ??_C@_0CK@IJNL@?$CIkzoeneta?$CJ?5?$CK?$CK?5Startup?5networks?5s@ 100a7c5c     KZOENETA.OBJ
 0003:00004c90       ??_C@_0CK@JOAC@?$CIkzoeneta?$CJ?5?$CK?$CK?5Error?5calling?5NetS@ 100a7c90     KZOENETA.OBJ
 0003:00004cc4       ??_C@_0CG@LJDE@?$CIkzoeneta?$CJ?5?$CK?$CK?5Error?5calling?5NetL@ 100a7cc4     KZOENETA.OBJ
 0003:00004cf4       ??_C@_0CG@HEFO@?$CIkzoeneta?$CJ?5?$CKMainTask?$CK?5Starting?5L@ 100a7cf4     KZOENETA.OBJ
 0003:00004d24       ??_C@_08DOHO@ExecName?$AA@ 100a7d24     KZOENETA.OBJ
 0003:00004d30       ??_C@_0BJ@JIDC@?$CIkzoeneta?$CJ?5?$CK?$CK?5Startup?5?$DN?5?$AA@ 100a7d30     KZOENETA.OBJ
 0003:00004d50       ??_C@_07KNL@Startup?$AA@   100a7d50     KZOENETA.OBJ
 0003:00004d5c       ??_C@_09IBKJ@?$FLNetwork?$FN?$AA@ 100a7d5c     KZOENETA.OBJ
 0003:00004d68       ??_C@_09MJBF@Network?$CFd?$AA@ 100a7d68     KZOENETA.OBJ
 0003:00004d74       ??_C@_0CJ@DNEK@?$CIkzoeneta?$CJ?5?$CK?$CK?5Trying?5to?5startup?5@ 100a7d74     KZOENETA.OBJ
 0003:00004da8       ??_C@_0N@KIKM@SironDB_Type?$AA@ 100a7da8     KZOEODAA.OBJ
 0003:00004db8       ??_C@_08NKHC@OCEOPERN?$AA@ 100a7db8     KZOEODAA.OBJ
 0003:00004dc4       ??_C@_07BJLK@ORDERBY?$AA@  100a7dc4     KZOEODAA.OBJ
 0003:00004dd0       ??_C@_07GLON@ER_DATE?$AA@  100a7dd0     KZOEODAA.OBJ
 0003:00004ddc       ??_C@_08DKGC@DBH_Data?$AA@ 100a7ddc     KZOEODAA.OBJ
 0003:00004de8       ??_C@_08OGPE@CACHENUM?$AA@ 100a7de8     KZOEODAA.OBJ
 0003:00004df4       ??_C@_08PENI@XML_NAME?$AA@ 100a7df4     KZOEODAA.OBJ
 0003:00004e00       ??_C@_07FFJF@MAX_LTH?$AA@  100a7e00     KZOEODAA.OBJ
 0003:00004e0c       ??_C@_07BDHJ@HANG_FK?$AA@  100a7e0c     KZOEODAA.OBJ
 0003:00004e18       ??_C@_08LFL@ECEOPERN?$AA@  100a7e18     KZOEODAA.OBJ
 0003:00004e24       ??_C@_09HBND@ACT_LIMIT?$AA@ 100a7e24     KZOEODAA.OBJ
 0003:00004e30       ??_C@_0O@PFGN@ABSTRACTCHILD?$AA@ 100a7e30     KZOEODAA.OBJ
 0003:00004e40       ??_C@_08BHLN@ABSTRACT?$AA@ 100a7e40     KZOEODAA.OBJ
 0003:00004e4c       ??_C@_0BC@IJBF@XML_NAME_EXTERNAL?$AA@ 100a7e4c     KZOEODAA.OBJ
 0003:00004e64       ??_C@_0BA@CCNL@XML_SIMPLE_NAME?$AA@ 100a7e64     KZOEODAA.OBJ
 0003:00004e78       ??_C@_06MBFD@FORKEY?$AA@   100a7e78     KZOEODAA.OBJ
 0003:00004e80       ??_C@_08EADC@DEBUGCHG?$AA@ 100a7e80     KZOEODAA.OBJ
 0003:00004e8c       ??_C@_08BHCD@DERIVEDZ?$AA@ 100a7e8c     KZOEODAA.OBJ
 0003:00004e98       ??_C@_0P@KKLI@DERIVEDOPERXPG?$AA@ 100a7e98     KZOEODAA.OBJ
 0003:00004eac       ??_C@_08LPAO@DERIVEDE?$AA@ 100a7eac     KZOEODAA.OBJ
 0003:00004eb8       ??_C@_07KJPG@DB_OPER?$AA@  100a7eb8     KZOEODAA.OBJ
 0003:00004ec4       ??_C@_04JIJO@JOIN?$AA@     100a7ec4     KZOEODAA.OBJ
 0003:00004ecc       ??_C@_0FC@CDEI@?$CFs?5?5?5?5df?$CFs?5?5FldID?3?50x?$CF08x?5?5?$FLAttr@ 100a7ecc     KZOEODAA.OBJ
 0003:00004f30       ??_C@_0NL@IJAJ@?$CFs?5?5?5?5?5?5rf?$CFs?5?5?$FLAttrib?5Name?3?5?$CFs?5?5@ 100a7f30     KZOEODAA.OBJ
 0003:00005038       ??_C@_06BNLD@?$DMnull?$DO?$AA@ 100a8038     KZOEODAA.OBJ
 0003:00005040       ??_C@_0FC@DOFK@?$CFs?5?5?5?5rr?$CFs?5?5RecordID?3?50x?$CF08x?5?5Ow@ 100a8040     KZOEODAA.OBJ
 0003:000050a4       ??_C@_0DK@LEKL@?$CFs?5?5r?$CFs?5?5RecordID?3?50x?$CF08x?5?5Prima@ 100a80a4     KZOEODAA.OBJ
 0003:000050ec       ??_C@_0DI@BAJP@?$CFs?5?5a?$CFs?5?5Key?3?5?$CFs?$CFs?5?5ERAttTok?3?50x@ 100a80ec     KZOEODAA.OBJ
 0003:00005130       ??_C@_02IHLC@?5?5?$AA@     100a8130     KZOEODAA.OBJ
 0003:00005134       ??_C@_0N@LHGC@?5?5ForeignKey?$AA@ 100a8134     KZOEODAA.OBJ
 0003:00005144       ??_C@_0CO@OLND@Attribute?5for?5entity?5NOT?5parente@ 100a8144     KZOEODAA.OBJ
 0003:0000517c       ??_C@_0DH@HKHO@?$CFse?$CFs?5?5PDelete?3?5?$CFs?5?5EREntTok?3?50x@ 100a817c     KZOEODAA.OBJ
 0003:000051c0       ??_C@_0CD@JBIH@Object?5Definition?3?5?$CFs?5?5for?5App?3?5@ 100a81c0     KZOEODAA.OBJ
 0003:000051ec       ??_C@_07IOLO@pZeidon?$AA@  100a81ec     KZOEODAA.OBJ
 0003:000051f8       ??_C@_06BADI@Zeidon?$AA@   100a81f8     KZOEODAA.OBJ
 0003:00005200       ??_C@_0CE@LLEF@?$CIod?$CJ?5opening?5Object?5Def?5file?5Nam@ 100a8200     KZOEODAA.OBJ
 0003:0000522c       ??_C@_0DE@BPPH@Deleting?5Object?5Definition?5?$CI0x?$CF0@ 100a822c     KZOEODAA.OBJ
 0003:0000526c       ??_C@_0BJ@NENA@View?5referencing?5?8?$CFs?8?5?$DN?5?$AA@ 100a826c     KZOEODAA.OBJ
 0003:0000528c       _gszKeyDelimStr            100a828c     KZOEOIAA.OBJ
 0003:000052b0       ??_C@_0O@OFE@lpAppQualView?$AA@ 100a82b0     KZOEOIAA.OBJ
 0003:000052c0       ??_C@_0BB@MNMJ@with?5zLEVEL_SAME?$AA@ 100a82c0     KZOEOIAA.OBJ
 0003:000052d4       ??_C@_0CH@CKH@More?5than?5one?5zLEVEL_?5option?5req@ 100a82d4     KZOEOIAA.OBJ
 0003:00005304       ??_C@_0BE@ICOG@SourceAttributeName?$AA@ 100a8304     KZOEOIAA.OBJ
 0003:0000531c       ??_C@_09NCPC@AllowRead?$AA@ 100a831c     KZOEOIAA.OBJ
 0003:00005328       ??_C@_09KMOL@Timestamp?$AA@ 100a8328     KZOEOIAA.OBJ
 0003:00005334       ??_C@_08GOHN@KeyValue?$AA@ 100a8334     KZOEOIAA.OBJ
 0003:00005340       ??_C@_08GDMG@LOD_Name?$AA@ 100a8340     KZOEOIAA.OBJ
 0003:0000534c       ??_C@_0DE@IKDC@Waited?5too?5long?5to?5write?5pessimi@ 100a834c     KZOEOIAA.OBJ
 0003:0000538c       ??_C@_0BC@JGEA@Locking?5semaphore?$AA@ 100a838c     KZOEOIAA.OBJ
 0003:000053a4       ??_C@_0L@PIFJ@ZeidonLock?$AA@ 100a83a4     KZOEOIAA.OBJ
 0003:000053b4       ??_C@_03IMFF@?$CD?$CFs?$AA@ 100a83b4     KZOEOIAA.OBJ
 0003:000053b8       ??_C@_0BE@IIJI@?$CDGlobal?5Entity?5Lock?$AA@ 100a83b8     KZOEOIAA.OBJ
 0003:000053d0       ??_C@_07KIPN@ZPLOCKO?$AA@  100a83d0     KZOEOIAA.OBJ
 0003:000053dc       ??_C@_0CO@EJKO@?$CIoi?$CJ?5Total?5time?5for?5ActivateObje@ 100a83dc     KZOEOIAA.OBJ
 0003:00005414       ??_C@_0BL@OKGH@?$CFlf?5seconds?5for?5object?5?$CFs?5?$AA@ 100a8414     KZOEOIAA.OBJ
 0003:00005434       ??_C@_02KKOC@xx?$AA@       100a8434     KZOEOIAA.OBJ
 0003:00005438       ??_C@_08IDGA@KZOEOIAA?$AA@ 100a8438     KZOEOIAA.OBJ
 0003:00005444       ??_C@_0BL@GDPI@Network?5cannot?5be?5started?4?$AA@ 100a8444     KZOEOIAA.OBJ
 0003:00005464       ??_C@_0DP@HHNF@?$CIoi?$CJ?5Database?5Memory?5Limit?5Reach@ 100a8464     KZOEOIAA.OBJ
 0003:000054b0       ??_C@_0CL@FIPO@?$CIoi?$CJ?5Deadlock?5Crash?5?9?5Retry?5Coun@ 100a84b0     KZOEOIAA.OBJ
 0003:000054e4       ??_C@_0BH@DAGF@?5Activate?5Retry?5Count?$DN?$AA@ 100a84e4     KZOEOIAA.OBJ
 0003:00005500       ??_C@_0CB@FJHI@?$CIoi?$CJ?5Database?5Deadlock?5?9?5Object?$DN@ 100a8500     KZOEOIAA.OBJ
 0003:00005528       ??_C@_0CF@NCHC@?$CIoi?$CJ?5Database?5unavailable?9?9try?5a@ 100a8528     KZOEOIAA.OBJ
 0003:00005554       ??_C@_0CF@DGPI@?$CIoi?$CJ?5?9?9?9?9?9?9?9?9?9?9?9?9?9?9?9?9?9?9?9?9?9?9?9?9?9?9?9@ 100a8554     KZOEOIAA.OBJ
 0003:00005580       ??_C@_0BD@JJIL@__Load?9in?9progress?$AA@ 100a8580     KZOEOIAA.OBJ
 0003:00005598       ??_C@_01FAFK@?$DO?$AA@     100a8598     KZOEOIAA.OBJ
 0003:0000559c       ??_C@_01FHE@?$DM?$AA@      100a859c     KZOEOIAA.OBJ
 0003:000055a0       ??_C@_02CHDK@OR?$AA@       100a85a0     KZOEOIAA.OBJ
 0003:000055a4       ??_C@_08IDPE@kzdbhqua?$AA@ 100a85a4     KZOEOIAA.OBJ
 0003:000055b0       ??_C@_0DB@KPMG@Root?5entity?5has?5no?5default?5seque@ 100a85b0     KZOEOIAA.OBJ
 0003:000055ec       ??_C@_0CK@FJHF@Expecting?5valid?5OI?5for?5zACTIVATE@ 100a85ec     KZOEOIAA.OBJ
 0003:00005620       ??_C@_0O@PPBE@?$CIoi?$CJ?5opening?5?$AA@ 100a8620     KZOEOIAA.OBJ
 0003:00005630       ??_C@_0BE@CKOO@Out?5of?5buffer?5space?$AA@ 100a8630     KZOEOIAA.OBJ
 0003:00005648       ??_C@_0N@GMLG@_DBH_MsgProc?$AA@ 100a8648     KZOEOIAA.OBJ
 0003:00005658       ??_C@_0M@KGHM@DBH_MsgProc?$AA@ 100a8658     KZOEOIAA.OBJ
 0003:00005668       ??_C@_02CJCI@KZ?$AA@       100a8668     KZOEOIAA.OBJ
 0003:0000566c       ??_C@_0N@KCPG@_GKH_MsgProc?$AA@ 100a866c     KZOEOIAA.OBJ
 0003:0000567c       ??_C@_0M@GIDM@GKH_MsgProc?$AA@ 100a867c     KZOEOIAA.OBJ
 0003:0000568c       ??_C@_0CH@KJEE@?$CIoi?$CJ?5Attempting?5to?5load?5GK?9handl@ 100a868c     KZOEOIAA.OBJ
 0003:000056bc       ??_C@_0BI@HCHL@View?5doesn?8t?5have?5an?5OI?$AA@ 100a86bc     KZOEOIAA.OBJ
 0003:000056d8       ??_C@_0CJ@PHHP@?$CIoi?$CJ?5Total?5time?5for?5CommitMultip@ 100a86d8     KZOEOIAA.OBJ
 0003:0000570c       ??_C@_0M@FIA@?$CFlf?5seconds?$AA@ 100a870c     KZOEOIAA.OBJ
 0003:0000571c       ??_C@_0EC@LDIB@?$CFs?5?5?$CFs?5?5?5Object?5Definition?3?5?$CFs?5?5@ 100a871c     KZOEOIAA.OBJ
 0003:0000576c       ??_C@_0L@OPBG@OE?5Warning?$AA@ 100a876c     KZOEOIAA.OBJ
 0003:0000577c       ??_C@_0FP@BNEA@Return?5code?5indicates?5that?5Commi@ 100a877c     KZOEOIAA.OBJ
 0003:000057f0       ??_C@_0BE@HPNO@?$CIoi?$CJ?5EI?5Flags?5?5?5?5?$DN?5?$AA@ 100a87f0     KZOEOIAA.OBJ
 0003:00005808       ??_C@_0BE@BILP@?$CIoi?$CJ?5Entity?5name?5?$DN?5?$AA@ 100a8808     KZOEOIAA.OBJ
 0003:00005820       ??_C@_0BK@OGGO@?$CIoi?$CJ?5Object?5definition?5?$DN?5?$AA@ 100a8820     KZOEOIAA.OBJ
 0003:00005840       ??_C@_0CK@GCPD@?$CIoi?$CJ?5Warning?5?$DN?$DN?$DN?$DN?$DN?$DN?$DN?$DN?$DN?$DN?$DN?$DN?$DN?$DN?$DN?$DN?$DN?$DN?$DN@ 100a8840     KZOEOIAA.OBJ
 0003:00005874       ??_C@_0BM@FEHG@?$CIoi?$CJ?5Can?8t?5start?5network?5?$DN?5?$AA@ 100a8874     KZOEOIAA.OBJ
 0003:00005898       ??_C@_0P@ECGE@Object?5Name?5?$DN?5?$AA@ 100a8898     KZOEOIAA.OBJ
 0003:000058ac       ??_C@_0BE@DMJL@?9?9?9?9?9?9?9?9?9?9?9?9?9?9?9?9?9?9?9?$AA@ 100a88ac     KZOEOIAA.OBJ
 0003:000058c4       ??_C@_0KE@LDAH@Warning?3?5Trying?5to?5commit?5an?5ent@ 100a88c4     KZOEOIAA.OBJ
 0003:00005988       ??_C@_0CD@MNFM@OD?4Entity?5with?5create?5authority?5@ 100a8988     KZOEOIAA.OBJ
 0003:000059b4       ??_C@_08MGEA@OI?5ID?5?$DN?5?$AA@ 100a89b4     KZOEOIAA.OBJ
 0003:000059c0       ??_C@_0BO@BCNN@OD?4Entity?5with?5Delete?5flag?5?$DN?5?$AA@ 100a89c0     KZOEOIAA.OBJ
 0003:000059e4       ??_C@_0BO@HLDF@OD?4Entity?5with?5Create?5flag?5?$DN?5?$AA@ 100a89e4     KZOEOIAA.OBJ
 0003:00005a08       ??_C@_05OGKG@?$CFs?4?$CFs?$AA@ 100a8a08     KZOEOIAA.OBJ
 0003:00005a10       ??_C@_0CD@MHHP@?5?5?5View?5ID?5?$DN?5?$CFlx?0?5Object?5name?5?$DN?5@ 100a8a10     KZOEOIAA.OBJ
 0003:00005a3c       ??_C@_0O@FMKN@?5?5?5View?5ID?5?$DN?5?$AA@ 100a8a3c     KZOEOIAA.OBJ
 0003:00005a4c       ??_C@_0CD@IIDP@?$CInull?$CJ?5View?5not?5flagged?5as?5chang@ 100a8a4c     KZOEOIAA.OBJ
 0003:00005a78       ??_C@_0CB@PJII@Number?5of?5views?5in?5the?5cluster?3?5@ 100a8a78     KZOEOIAA.OBJ
 0003:00005aa0       ??_C@_0ID@FFNG@Warning?3?5Trying?5to?5commit?5an?5ent@ 100a8aa0     KZOEOIAA.OBJ
 0003:00005b40       ??_C@_07NAPP@deleted?$AA@  100a8b40     KZOEOIAA.OBJ
 0003:00005b4c       ??_C@_07JPDC@created?$AA@  100a8b4c     KZOEOIAA.OBJ
 0003:00005b58       ??_C@_06IDPA@delete?$AA@   100a8b58     KZOEOIAA.OBJ
 0003:00005b60       ??_C@_06EOKH@create?$AA@   100a8b60     KZOEOIAA.OBJ
 0003:00005b68       ??_C@_0CL@DMOI@?9?9?9?9?9?9?9?9?9?9?9?9?9?9?9?9?9?5Warning?5?9?9?9?9?9?9@ 100a8b68     KZOEOIAA.OBJ
 0003:00005b9c       ??_C@_0CB@PLOF@Infinite?5loop?5trying?5to?5set?5FKs?$DP@ 100a8b9c     KZOEOIAA.OBJ
 0003:00005bc4       ??_C@_09JMBN@TableName?$AA@ 100a8bc4     KZOEOIAA.OBJ
 0003:00005bd0       ??_C@_0M@KMCA@EntityCount?$AA@ 100a8bd0     KZOEOIAA.OBJ
 0003:00005be0       ??_C@_06JEOF@Genkey?$AA@   100a8be0     KZOEOIAA.OBJ
 0003:00005be8       ??_C@_08OHJM@EntityID?$AA@ 100a8be8     KZOEOIAA.OBJ
 0003:00005bf4       ??_C@_09JOKA@_KZGKHWOB?$AA@ 100a8bf4     KZOEOIAA.OBJ
 0003:00005c00       ??_C@_08HFJA@KZGKHWOB?$AA@ 100a8c00     KZOEOIAA.OBJ
 0003:00005c0c       ??_C@_0CD@FKJO@OIs?5have?5different?5GenKey?5handle@ 100a8c0c     KZOEOIAA.OBJ
 0003:00005c38       ??_C@_0CC@KCFL@No?5GenKey?5handler?5set?5for?5LOD?3?5?$CF@ 100a8c38     KZOEOIAA.OBJ
 0003:00005c60       ??_C@_03LNBB@?$EA?$CFs?$AA@ 100a8c60     KZOEOIAA.OBJ
 0003:00005c64       ??_C@_0CG@JDBO@?$CIoi?$CJ?5Optimistic?5locking?5compare?5@ 100a8c64     KZOEOIAA.OBJ
 0003:00005c94       ??_C@_0DB@NCB@?$CIoi?$CJ?5Error?5loading?5Optimistic?5ch@ 100a8c94     KZOEOIAA.OBJ
 0003:00005cd0       ??_C@_0CG@PFIF@?$CIoi?$CJ?5Activating?5Optimistic?5Check@ 100a8cd0     KZOEOIAA.OBJ
 0003:00005d00       ??_C@_0BL@CNGJ@Couldn?8t?5find?5original?5OI?$CB?$AA@ 100a8d00     KZOEOIAA.OBJ
 0003:00005d20       ??_C@_07BFPN@c?$CFx?5?$CFlx?$AA@ 100a8d20     KZOEOIAA.OBJ
 0003:00005d2c       ??_C@_05KPKL@c?$CFx?50?$AA@ 100a8d2c     KZOEOIAA.OBJ
 0003:00005d34       ??_C@_08GN@i?$CFlx?5?$CFlx?$AA@ 100a8d34     KZOEOIAA.OBJ
 0003:00005d40       ??_C@_0DN@MLKO@Error?5writing?5OI?3?5ER?5Tokens?5don?8@ 100a8d40     KZOEOIAA.OBJ
 0003:00005d8c       ??_C@_0FA@OBP@?$CIoi?$CJ?5Error?5?$CIOD?3?5?$CFs?$CJ?5?9?5Src?5View?5E@ 100a8d8c     KZOEOIAA.OBJ
 0003:00005dec       ??_C@_04KPK@a?5?$CFx?$AA@  100a8dec     KZOEOIAA.OBJ
 0003:00005df4       ??_C@_06IACC@a?$CF?99s?5?$AA@ 100a8df4     KZOEOIAA.OBJ
 0003:00005dfc       ??_C@_04DCMN@?$CFs?$CFs?$AA@ 100a8dfc     KZOEOIAA.OBJ
 0003:00005e04       ??_C@_07HIC@a?$CFlx?$CFs?5?$AA@ 100a8e04     KZOEOIAA.OBJ
 0003:00005e10       ??_C@_04NHOC@?0?$CFlx?$AA@ 100a8e10     KZOEOIAA.OBJ
 0003:00005e18       ??_C@_0P@IJFA@mEKEY?5?5?5?5?5?5?$CFlx?$AA@ 100a8e18     KZOEOIAA.OBJ
 0003:00005e2c       ??_C@_09KKHA@mEKEY?5?$CFlx?$AA@ 100a8e2c     KZOEOIAA.OBJ
 0003:00005e38       ??_C@_0P@DBLN@mETAG?5?5?5?5?5?5?$CFlx?$AA@ 100a8e38     KZOEOIAA.OBJ
 0003:00005e4c       ??_C@_09GLEP@mETAG?5?$CFlx?$AA@ 100a8e4c     KZOEOIAA.OBJ
 0003:00005e58       ??_C@_05HEAD@?$CFx?5?$CFx?$AA@ 100a8e58     KZOEOIAA.OBJ
 0003:00005e60       ??_C@_0BA@GFPC@mOIFLAGS?5?5?5?5?$CFlx?$AA@ 100a8e60     KZOEOIAA.OBJ
 0003:00005e74       ??_C@_0N@OMJF@mOIFLAGS?5?$CFlx?$AA@ 100a8e74     KZOEOIAA.OBJ
 0003:00005e84       ??_C@_0BA@JENH@mOITAG?5?5?5?5?5?5?$CFlx?$AA@ 100a8e84     KZOEOIAA.OBJ
 0003:00005e98       ??_C@_0L@BBG@mOITAG?5?$CFlx?$AA@ 100a8e98     KZOEOIAA.OBJ
 0003:00005ea8       ??_C@_0CI@BFCD@?$CIoi?$CJ?5Total?5time?5for?5SfWriteOI_To@ 100a8ea8     KZOEOIAA.OBJ
 0003:00005ed8       ??_C@_0BD@BCKI@?$CI?$CFs?$CJ?5?$DN?5?$CFlf?5seconds?$AA@ 100a8ed8     KZOEOIAA.OBJ
 0003:00005ef0       ??_C@_04JJOE@ZEND?$AA@     100a8ef0     KZOEOIAA.OBJ
 0003:00005ef8       ??_C@_0N@LHOF@mCONTROL?5?$CFlx?$AA@ 100a8ef8     KZOEOIAA.OBJ
 0003:00005f08       ??_C@_08ION@?5?5?5?5?5?5?5?5?$AA@ 100a8f08     KZOEOIAA.OBJ
 0003:00005f14       ??_C@_0CP@GGJF@Trying?5to?5drop?5original?5OI?5but?5i@ 100a8f14     KZOEOIAA.OBJ
 0003:00005f4c       ??_C@_0BI@NMHK@?$CIoi?$CJ?5Hangin?5key?5error?$CB?5?$AA@ 100a8f4c     KZOEOIAA.OBJ
 0003:00005f68       ??_C@_0BO@NIPI@?9?5ParentEntity?5?$DN?$DN?5ChildEntity?$AA@ 100a8f68     KZOEOIAA.OBJ
 0003:00005f8c       ??_C@_0BJ@POBP@?$CIoi?$CJ?5Concatenated?5key?5?$DN?5?$AA@ 100a8f8c     KZOEOIAA.OBJ
 0003:00005fac       ??_C@_0BH@FDBN@?$CIoi?$CJ?5Object?5locked?5on?5?$AA@ 100a8fac     KZOEOIAA.OBJ
 0003:00005fc8       ??_C@_0BH@NCBI@?$CIoi?$CJ?5Object?5locked?5by?5?$AA@ 100a8fc8     KZOEOIAA.OBJ
 0003:00005fe4       ??_C@_0BC@NLCC@YYYY?9M?9D?5HH?3MI?3SS?$AA@ 100a8fe4     KZOEOIAA.OBJ
 0003:00005ffc       ??_C@_0BG@JJPK@Entity?5?8?$CFs?8?5is?5locked?$AA@ 100a8ffc     KZOEOIAA.OBJ
 0003:00006018       ??_C@_0BD@BKHK@LOD?5?8?$CFs?8?5is?5locked?$AA@ 100a9018     KZOEOIAA.OBJ
 0003:00006030       ??_C@_0BB@IHNO@Child?5level?5?5?5?$DN?5?$AA@ 100a9030     KZOEOIAA.OBJ
 0003:00006044       ??_C@_0BB@NJHF@Child?5Entity?5?5?$DN?5?$AA@ 100a9044     KZOEOIAA.OBJ
 0003:00006058       ??_C@_0BB@BHHL@Parent?5level?5?5?$DN?5?$AA@ 100a9058     KZOEOIAA.OBJ
 0003:0000606c       ??_C@_0BB@LMMD@Parent?5Entity?5?$DN?5?$AA@ 100a906c     KZOEOIAA.OBJ
 0003:00006080       ??_C@_0BB@JOON@Object?5Name?5?5?5?$DN?5?$AA@ 100a9080     KZOEOIAA.OBJ
 0003:00006094       ??_C@_0DH@OLHA@?$DN?$DN?$DN?$DN?5Activate?5error?3?5Infinite?5re@ 100a9094     KZOEOIAA.OBJ
 0003:000060d8       ??_C@_0EA@MMNH@?$CIoi?$CJ?5Entity?5type?5mismatch?5during@ 100a90d8     KZOEOIAA.OBJ
 0003:00006124       ??_C@_0BG@FHME@?$CIoi?$CJ?5Target?5Entity?5?$DN?5?$AA@ 100a9124     KZOEOIAA.OBJ
 0003:00006140       ??_C@_0BD@GIND@?$CIoi?$CJ?5Link?5Tgt?5?$CD?5?$DN?5?$AA@ 100a9140     KZOEOIAA.OBJ
 0003:00006158       ??_C@_0BG@GFPE@?$CIoi?$CJ?5Source?5Entity?5?$DN?5?$AA@ 100a9158     KZOEOIAA.OBJ
 0003:00006174       ??_C@_0BD@FPOB@?$CIoi?$CJ?5Link?5Src?5?$CD?5?$DN?5?$AA@ 100a9174     KZOEOIAA.OBJ
 0003:0000618c       ??_C@_0BL@IKLP@?$CIoi?$CJ?5Failed?5entity?5linking?$AA@ 100a918c     KZOEOIAA.OBJ
 0003:000061ac       ??_C@_0CL@DJNN@ER?5Tokens?5don?8t?5match?5for?5linked@ 100a91ac     KZOEOIAA.OBJ
 0003:000061e0       ??_C@_0FA@FOLJ@?$CIoi?$CJ?5Error?5?$CIOD?3?5?$CFs?$CJ?5?9?5Tgt?5View?5E@ 100a91e0     KZOEOIAA.OBJ
 0003:00006240       ??_C@_0BK@FNGM@UUDECODE?5length?5invalid?3?5?$AA@ 100a9240     KZOEOIAA.OBJ
 0003:00006260       ??_C@_0CH@HIC@Error?5from?5UUDECODE_NextLineToBu@ 100a9260     KZOEOIAA.OBJ
 0003:00006290       ??_C@_0BC@FECF@?$CIWARNING?$CJ?5in?5LOD?5?$AA@ 100a9290     KZOEOIAA.OBJ
 0003:000062a8       ??_C@_0CA@GEOJ@?$CIWARNING?$CJ?5Couldn?8t?5find?5entity?5?$AA@ 100a92a8     KZOEOIAA.OBJ
 0003:000062d0       ??_C@_07IFBG@OIFLAGS?$AA@  100a92d0     KZOEOIAA.OBJ
 0003:000062dc       ??_C@_05JDHD@OITAG?$AA@    100a92dc     KZOEOIAA.OBJ
 0003:000062e4       ??_C@_04BDIB@EKEY?$AA@     100a92e4     KZOEOIAA.OBJ
 0003:000062ec       ??_C@_04EECP@ETAG?$AA@     100a92ec     KZOEOIAA.OBJ
 0003:000062f4       ??_C@_07ICJO@CONTROL?$AA@  100a92f4     KZOEOIAA.OBJ
 0003:00006300       ??_C@_0CN@HFJB@?$CIoi?$CJ?5Total?5time?5for?5SfActivateOI@ 100a9300     KZOEOIAA.OBJ
 0003:00006338       ??_C@_09BPDN@Zeidon?5OE?$AA@ 100a9338     KZOEOIAA.OBJ
 0003:00006344       ??_C@_0FM@LNBI@SfActivateSysOI_FromFile?5now?5REQ@ 100a9344     KZOEOIAA.OBJ
 0003:000063b4       ??_C@_0FO@KBNJ@SfActivateSysOI_FromFile?5now?5REQ@ 100a93b4     KZOEOIAA.OBJ
 0003:00006424       ??_C@_0FI@FKHH@SfActivateSysEmptyOI?5now?5REQUIRE@ 100a9424     KZOEOIAA.OBJ
 0003:00006490       ??_C@_0FL@BEFB@SfActivateSysEmptyOI?5now?5REQUIRE@ 100a9490     KZOEOIAA.OBJ
 0003:00006500       ??_C@_0N@CEOG@?4bubblesort?5?$AA@ 100a9500     KZOEOIAA.OBJ
 0003:00006510       ??_C@_0BL@NNA@fnOrderOI_ByDefaultAttribs?$AA@ 100a9510     KZOEOIAA.OBJ
 0003:00006530       ??_C@_0CL@FGMF@KZOEE013?5?9?5Internal?5operation?5ca@ 100a9530     KZOEOIAA.OBJ
 0003:00006564       ??_C@_0CD@FCAC@Maximum?5?$CD?5of?5order?5attributes?5us@ 100a9564     KZOEOIAA.OBJ
 0003:00006590       ??_C@_0CB@LCPB@Maximum?5?$CD?5of?5order?5entities?5used@ 100a9590     KZOEOIAA.OBJ
 0003:000065b8       ??_C@_0BK@NHNF@Out?5of?5space?5for?5entities?$AA@ 100a95b8     KZOEOIAA.OBJ
 0003:000065d8       ??_C@_0CA@OIFL@fnOrderEntitiesByDefaultAttribs?$AA@ 100a95d8     KZOEOIAA.OBJ
 0003:00006600       ??_C@_0BG@KEBP@Sequencing?5error?5?$DO?540?$AA@ 100a9600     KZOEOIAA.OBJ
 0003:0000661c       ??_C@_0CO@OBEN@Ordering?5attributes?5?9?9?5Entity?5cu@ 100a961c     KZOEOIAA.OBJ
 0003:00006654       ??_C@_0O@GNIP@OrderEntities?$AA@ 100a9654     KZOEOIAA.OBJ
 0003:00006664       ??_C@_0BF@KJKO@Unset?5or?5Null?5Cursor?$AA@ 100a9664     KZOEOIAA.OBJ
 0003:00006680       ??_C@_0DA@BDHH@Ordering?5attributes?5?9?9?5resetting@ 100a9680     KZOEOIAA.OBJ
 0003:000066bc       ??_C@_0CM@MJO@Error?5parsing?5command?4?5?5See?5trac@ 100a96bc     KZOEOIAA.OBJ
 0003:000066f0       ??_C@_0BF@DGOD@Error?5occurs?5after?3?5?$AA@ 100a96f0     KZOEOIAA.OBJ
 0003:0000670c       ??_C@_06ICCC@WHERE?5?$AA@  100a970c     KZOEOIAA.OBJ
 0003:00006714       ??_C@_09MHIP@ACTIVATE?5?$AA@ 100a9714     KZOEOIAA.OBJ
 0003:00006720       ??_C@_0N@GDFL@IntegerValue?$AA@ 100a9720     KZOEOIAA.OBJ
 0003:00006730       ??_C@_07CHNO@KeyList?$AA@  100a9730     KZOEOIAA.OBJ
 0003:0000673c       ??_C@_06KGGE@?$CKroot?$CK?$AA@ 100a973c     KZOEOIAA.OBJ
 0003:00006744       ??_C@_0DF@FJKI@Marked?5as?5having?5a?5required?5chil@ 100a9744     KZOESOAA.OBJ
 0003:00006784       ??_C@_0DB@KGNF@number?5of?5entities?5less?5than?5min@ 100a9784     KZOESOAA.OBJ
 0003:000067c0       ??_C@_0L@FACN@?6Entity?3?5?7?$AA@ 100a97c0     KZOESOAA.OBJ
 0003:000067d0       ??_C@_0FI@CILH@Browse?5view?5named?5?8KZOEE106?8?5to?5@ 100a97d0     KZOESOAA.OBJ
 0003:0000683c       ??_C@_08JNLF@KZOEE106?$AA@ 100a983c     KZOESOAA.OBJ
 0003:00006848       ??_C@_0BN@JAL@maximum?5cardinality?5exceeded?$AA@ 100a9848     KZOESOAA.OBJ
 0003:0000686c       ??_C@_06OEBA@?5?$DM?9?9?$DO?5?$AA@ 100a986c     KZOESOAA.OBJ
 0003:00006874       ??_C@_0BB@PAEO@?6Relationship?3?5?7?$AA@ 100a9874     KZOESOAA.OBJ
 0003:00006888       ??_C@_0IK@MJCC@Source?5entity?5was?5built?5with?5TE?5@ 100a9888     KZOESOAA.OBJ
 0003:00006930       ??_C@_0BL@KKFN@?$CIso?$CJ?5IncludeSubobject?5Tgt?5?$AA@ 100a9930     KZOESOAA.OBJ
 0003:00006950       ??_C@_0BM@DGIM@?$CIso?$CJ?5No?5matching?5Src?5Attrib?$AA@ 100a9950     KZOESOAA.OBJ
 0003:00006974       ??_C@_0BL@GADJ@?$CIso?$CJ?5IncludeSubobject?5Src?5?$AA@ 100a9974     KZOESOAA.OBJ
 0003:00006994       ??_C@_0BF@DLHG@?$CFs?4?$CFs?4?$CFs?5Offset?5?$DN?5?$CFd?$AA@ 100a9994     KZOESOAA.OBJ
 0003:000069b0       ??_C@_0IF@BGLH@IncludeSubobjectFromSubobject?5In@ 100a99b0     KZOESOAA.OBJ
 0003:00006a50       ??_C@_0KN@DOGI@IncludeSubobjectFromSubobject?5In@ 100a9a50     KZOESOAA.OBJ
 0003:00006b20       ??_C@_0KP@CPHB@IncludeSubobjectFromSubobject?5In@ 100a9b20     KZOESOAA.OBJ
 0003:00006bf4       ??_C@_07JCAB@BombZDr?$AA@  100a9bf4     KZOESOAA.OBJ
 0003:00006c00       ??_C@_0HA@PGKE@Target?5entity?5has?5physical?5mappi@ 100a9c00     KZOESOAA.OBJ
 0003:00006c88       ??_C@_0BE@MDEO@?5?5?5Source?5entity?5?$DN?5?$AA@ 100a9c88     KZOESOAA.OBJ
 0003:00006ca0       ??_C@_0BE@PBHO@?5?5?5Target?5entity?5?$DN?5?$AA@ 100a9ca0     KZOESOAA.OBJ
 0003:00006cb8       ??_C@_0CL@KDAM@Rules?5violation?3?5physical?5mappin@ 100a9cb8     KZOESOAA.OBJ
 0003:00006cec       ??_C@_0BN@PAO@Entity?5inclusion?5not?5allowed?$AA@ 100a9cec     KZOESOAA.OBJ
 0003:00006d10       ??_C@_0BM@IAFO@Entity?5creation?5not?5allowed?$AA@ 100a9d10     KZOESOAA.OBJ
 0003:00006d34       ??_C@_0BN@JLPK@Source?5Entity?5not?5excludable?$AA@ 100a9d34     KZOESOAA.OBJ
 0003:00006d58       ??_C@_0L@DLD@Zeidon?5RLK?$AA@ 100a9d58     KZOESOAA.OBJ
 0003:00006d68       ??_C@_0CK@EOHI@ERROR?3?5The?5following?5LODs?5are?5ou@ 100a9d68     KZOESOAA.OBJ
 0003:00006d9c       ??_C@_0BI@EDF@?5and?5should?5be?5re?9built?$AA@ 100a9d9c     KZOESOAA.OBJ
 0003:00006db8       ??_C@_0O@JKKA@?5?5?5?5?5?5Key?5?5?$DN?5?$AA@ 100a9db8     KZOESOAA.OBJ
 0003:00006dc8       ??_C@_0O@OMPL@?5?5?5?5?5?5EI?5?5?5?$DN?5?$AA@ 100a9dc8     KZOESOAA.OBJ
 0003:00006dd8       ??_C@_0O@JJJJ@Child?5Name?5?$DN?5?$AA@ 100a9dd8     KZOESOAA.OBJ
 0003:00006de8       ??_C@_0P@JAIN@?5?5?5?5?5?5?5Key?5?5?$DN?5?$AA@ 100a9de8     KZOESOAA.OBJ
 0003:00006dfc       ??_C@_0P@OGNG@?5?5?5?5?5?5?5EI?5?5?5?$DN?5?$AA@ 100a9dfc     KZOESOAA.OBJ
 0003:00006e10       ??_C@_0P@KINM@Parent?5Name?5?$DN?5?$AA@ 100a9e10     KZOESOAA.OBJ
 0003:00006e24       ??_C@_0BG@DHJN@Object?5Instance?5ID?5?$DN?5?$AA@ 100a9e24     KZOESOAA.OBJ
 0003:00006e40       ??_C@_0DG@LLMA@The?5relationship?5already?5exists?5@ 100a9e40     KZOESOAA.OBJ
 0003:00006e80       ??_C@_0O@BPEJ@?9?9?9?5Error?5?9?9?9?$AA@ 100a9e80     KZOESOAA.OBJ
 0003:00006e90       ??_C@_0DB@JDAG@Source?5view?5entity?5?$DN?5?$CFs?0?5Target?5@ 100a9e90     KZOESOAA.OBJ
 0003:00006ecc       ??_C@_0O@NIPO@QuinSoft?5Info?$AA@ 100a9ecc     KZOESOAA.OBJ
 0003:00006edc       ??_C@_0P@PINC@Call?5DG?5?$CI?$CD102?$CJ?$AA@ 100a9edc     KZOESOAA.OBJ
 0003:00006ef0       ??_C@_08JKOA@?5created?$AA@ 100a9ef0     KZOETMAA.OBJ
 0003:00006efc       ??_C@_05BJDL@Main?5?$AA@   100a9efc     KZOETMAA.OBJ
 0003:00006f04       ??_C@_05FCOE@?$CItm?$CJ?5?$AA@ 100a9f04     KZOETMAA.OBJ
 0003:00006f0c       ??_C@_0BA@OPAB@App?5Task?50x?$CF08x?$AA@ 100a9f0c     KZOETMAA.OBJ
 0003:00006f20       ??_C@_0CL@HHOL@?$CItm?$CJ?5DeleteTask?5error?5dropping?5t@ 100a9f20     KZOETMAA.OBJ
 0003:00006f54       ??_C@_0CO@HMPF@?$CItm?$CJ?5DeleteTask?5error?5dropping?5t@ 100a9f54     KZOETMAA.OBJ
 0003:00006f8c       ??_C@_0L@PDLM@Zeidon?5DBH?$AA@ 100a9f8c     KZOETMAA.OBJ
 0003:00006f9c       ??_C@_0DJ@BMKD@SfCloseTaskDatabases?5for?5Process@ 100a9f9c     KZOETMAA.OBJ
 0003:00006fe0       ??_C@_0L@KGHJ@Zeidon?5GKH?$AA@ 100a9fe0     KZOETMAA.OBJ
 0003:00006ff0       ??_C@_0CD@NJNE@?$CItm?$CJ?5DeleteTask?5error?5closing?5fi@ 100a9ff0     KZOETMAA.OBJ
 0003:0000701c       ??_C@_0BF@DAAA@Zeidon?5Library?5Error?$AA@ 100aa01c     KZOETMAA.OBJ
 0003:00007038       ??_C@_0BG@JILH@Error?5freeing?5library?$AA@ 100aa038     KZOETMAA.OBJ
 0003:00007054       ??_C@_0CG@IBDO@?$CItm?$CJ?5DeleteTask?5error?5freeing?5li@ 100aa054     KZOETMAA.OBJ
 0003:00007084       ??_C@_03MFGH@?5?5?5?$AA@   100aa084     KZOETMAA.OBJ
 0003:00007088       ??_C@_0DE@GDPP@?5?5?5App?3?50x?$CF08x?5?$CI?$CFs?$CJ?5?5?5Applicatio@ 100aa088     KZOETMAA.OBJ
 0003:000070c8       ??_C@_0L@DKDJ@Keep?5Alive?$AA@ 100aa0c8     KZOETMAA.OBJ
 0003:000070d8       ??_C@_0IB@HMOP@?5?5?5?5?5?5DataHeader?3?50x?$CF08x?5?5?5Nbr?3?5@ 100aa0d8     KZOETMAA.OBJ
 0003:00007174       ??_C@_0EJ@KKLP@?5?5?5?5?5?5?5?5?5View?3?50x?$CF08x?5?5?5Task?3?50x@ 100aa174     KZOETMAA.OBJ
 0003:000071cc       ??_C@_0FA@GHE@?5?5?5?5?5?5ViewOI?3?50x?$CF08x?5?5?5Task?3?50x?$CF@ 100aa1cc     KZOETMAA.OBJ
 0003:0000722c       ??_C@_0DI@HGKM@?5?5?5?5?5?5?5?5?5ViewName?3?50x?$CF08x?5?5?5View@ 100aa22c     KZOETMAA.OBJ
 0003:00007270       ??_C@_0EP@LKMA@?5?5?5?5?5?5Subtask?3?50x?$CF08x?5?5?5Task?3?50x@ 100aa270     KZOETMAA.OBJ
 0003:000072d0       ??_C@_0CK@BGM@?5?5?5Task?3?50x?$CF08x?5?5?5?5?5?5?5?5?5?5?5?5?5?5Tas@ 100aa2d0     KZOETMAA.OBJ
 0003:00007304       ??_C@_0EP@HLNN@After?5Cleanup?5?$DN?$DN?$DN?$DN?$DN?$DN?$DN?$DN?$DN?$DN?$DN?$DN?$DN?$DN?$DN?$DN?$DN?$DN@ 100aa304     KZOETMAA.OBJ
 0003:00007364       ??_C@_0BO@CMOH@CleanupTask?5unexpected?5Domain?$AA@ 100aa364     KZOETMAA.OBJ
 0003:00007388       ??_C@_0CB@LAMA@CleanupTask?5unexpected?5GKHandler@ 100aa388     KZOETMAA.OBJ
 0003:000073b0       ??_C@_0CB@PPEC@CleanupTask?5unexpected?5DBHandler@ 100aa3b0     KZOETMAA.OBJ
 0003:000073d8       ??_C@_0CA@HCKE@CleanupTask?5unexpected?5OpenFile?$AA@ 100aa3d8     KZOETMAA.OBJ
 0003:00007400       ??_C@_0BP@GFNL@CleanupTask?5unexpected?5Library?$AA@ 100aa400     KZOETMAA.OBJ
 0003:00007428       ??_C@_0BD@NDDJ@Post?5DeleteTask?5?9?5?$AA@ 100aa428     KZOETMAA.OBJ
 0003:00007440       ??_C@_0O@LIAE@?5?5?5UserName?3?5?$AA@ 100aa440     KZOETMAA.OBJ
 0003:00007450       ??_C@_0CK@JDOL@?$CItm?$CJ?5Task?5?$CI0x?$CF08x?$CJ?5deleted?5for?5P@ 100aa450     KZOETMAA.OBJ
 0003:00007484       ??_C@_0CI@DCNI@?$CItm?$CJ?5DeleteTask?5error?5dropping?5t@ 100aa484     KZOETMAA.OBJ
 0003:000074b4       ??_C@_0DE@JFH@?$CItm?$CJ?5Freeing?5application?5allocat@ 100aa4b4     KZOETMAA.OBJ
 0003:000074f4       ??_C@_0BH@JCO@First?5View?5not?5NULL?$CB?$CB?$CB?$AA@ 100aa4f4     KZOETMAA.OBJ
 0003:00007510       ??_C@_0BN@EAEA@Zeidon?5DBHandler?5Work?5Object?$AA@ 100aa510     KZOETMAA.OBJ
 0003:00007534       ??_C@_0GE@OHAM@DeleteTask?5?$DN?$DN?$DN?$DN?$DN?$DN?$DN?$DN?$DN?$DN?$DN?$DN?$DN?$DN?$DN?$DN?$DN?$DN?$DO?50@ 100aa534     KZOETMAA.OBJ
 0003:000075ac       ??_C@_0FD@DLHM@SfCreateSubtask?5now?5REQUIRES?5a?5n@ 100aa5ac     KZOETMAA.OBJ
 0003:00007610       ??_C@_0EP@HEE@SfCreateSubtask?5now?5REQUIRES?5a?5n@ 100aa610     KZOETMAA.OBJ
 0003:00007670       ??_C@_0FJ@JIHH@SfCreateSystemSubtask?5now?5REQUIR@ 100aa670     KZOETMAA.OBJ
 0003:000076dc       ??_C@_0FF@BGIB@SfCreateSystemSubtask?5now?5REQUIR@ 100aa6dc     KZOETMAA.OBJ
 0003:00007744       ??_C@_0CJ@GIAB@GarbageCollectViews?5Unregisterin@ 100aa744     KZOETMAA.OBJ
 0003:00007778       ??_C@_0BN@JOJD@?5?5?5?5?5?5View?5OD?5?$CI0x?$CF08x?$CJ?3?5?8?$CFs?8?$AA@ 100aa778     KZOETMAA.OBJ
 0003:0000779c       ??_C@_0BI@DJFI@?5?5?5App?5?$CI0x?$CF08x?$CJ?5?$CFs?5?5?5?$CFs?$AA@ 100aa79c     KZOETMAA.OBJ
 0003:000077b8       ??_C@_0BG@EJBL@?5?5?5?5?5?5Open?5file?3?5?8?$CFs?8?$AA@ 100aa7b8     KZOETMAA.OBJ
 0003:000077d4       ??_C@_0CC@MIEC@?5?5?5Task?5?$CI0x?$CF08x?$CJ?5?$CFs?5?5?5Process?3?5?$CF@ 100aa7d4     KZOETMAA.OBJ
 0003:000077fc       ??_C@_0BE@FEHD@Display?5Tasks?1Apps?5?$AA@ 100aa7fc     KZOETMAA.OBJ
 0003:00007814       _szBlankLine               100aa814     KZOETRAA.OBJ
 0003:00007878       ??_C@_0BN@BMJP@?5?5?5ERROR?5counting?5not?5active?$AA@ 100aa878     KZOETRAA.OBJ
 0003:0000789c       ??_C@_03CLEM@?$CB?$CB?$CB?$AA@ 100aa89c     KZOETRAA.OBJ
 0003:000078a0       ??_C@_0BA@NABD@?5?5?5Stop?5?5time?3?5?$AA@ 100aa8a0     KZOETRAA.OBJ
 0003:000078b4       ??_C@_0BA@KDOK@?5?5?5Start?5time?3?5?$AA@ 100aa8b4     KZOETRAA.OBJ
 0003:000078c8       ??_C@_01PKAG@?3?$AA@       100aa8c8     KZOETRAA.OBJ
 0003:000078cc       ??_C@_0BK@KCP@?5?5?5Total?5internal?5calls?3?5?$AA@ 100aa8cc     KZOETRAA.OBJ
 0003:000078ec       ??_C@_0BK@CGPE@?5?5?5Total?5external?5calls?3?5?$AA@ 100aa8ec     KZOETRAA.OBJ
 0003:0000790c       ??_C@_0BE@NFJL@?$CJ?0?5Internal?5calls?5?$CI?$AA@ 100aa90c     KZOETRAA.OBJ
 0003:00007924       ??_C@_0BD@DFEE@?0?5External?5calls?5?$CI?$AA@ 100aa924     KZOETRAA.OBJ
 0003:0000793c       ??_C@_0BC@BCEK@Operation?5Counts?3?$AA@ 100aa93c     KZOETRAA.OBJ
 0003:00007954       ??_C@_0CG@GPIJ@?$CIoetr?$CJ?5Invalid?5?$CCnull?$CC?5TraceLine?5@ 100aa954     KZOETRAA.OBJ
 0003:00007984       ??_C@_05COOJ@?5?$CL?5?5?5?$AA@ 100aa984     KZOETRAA.OBJ
 0003:0000798c       ??_C@_06ONKE@?$CInull?$CJ?$AA@ 100aa98c     KZOETRAA.OBJ
 0003:00007994       ??_C@_0BL@JLBH@Error?5formatting?5message?3?5?$AA@ 100aa994     KZOETRAA.OBJ
 0003:000079b4       ??_C@_01FCOA@?5?$AA@       100aa9b4     KZOETRAA.OBJ
 0003:000079b8       ??_C@_01PLJA@0?$AA@        100aa9b8     KZOETRAA.OBJ
 0003:000079bc       ??_C@_04GPCF@?5?5?5?5?$AA@ 100aa9bc     KZOETRAA.OBJ
 0003:000079c4       ??_C@_08HMCD@?$CFs?$CI?$CF4d?$CJ?5?$AA@ 100aa9c4     KZOETRAA.OBJ
 0003:000079d0       ??_C@_0CE@NBGF@?$CFs?5?5?$CFd?5Repeat?5Lines?5?$CI?$CF4d?5thru?5?$CF4@ 100aa9d0     KZOETRAA.OBJ
 0003:000079fc       ??_C@_0CF@LJIN@?5?5?5?5Cursor?5is?5NULL?5or?5Undefined?5@ 100aa9fc     KZOETRAA.OBJ
 0003:00007a28       ??_C@_0CO@IMKJ@Entity?5Instance?5Display?3?5?$CFs?5?5for@ 100aaa28     KZOETRAA.OBJ
 0003:00007a60       ??_C@_0CJ@CFEK@?9?9?9?9?5End?5?5?5Entity?5Instance?5Path?5@ 100aaa60     KZOETRAA.OBJ
 0003:00007a94       ??_C@_0CJ@PFBD@?9?9?9?9?5Begin?5Entity?5Instance?5Path?5@ 100aaa94     KZOETRAA.OBJ
 0003:00007ac8       ??_C@_04NCHB@?9?9?9?9?$AA@ 100aaac8     KZOETRAA.OBJ
 0003:00007ad0       ??_C@_0DF@NKOO@Object?5Instance?5Display?5for?5View@ 100aaad0     KZOETRAA.OBJ
 0003:00007b10       ??_C@_0CE@PFDL@Object?5Instance?5is?5NULL?5for?5enti@ 100aab10     KZOETRAA.OBJ
 0003:00007b3c       ??_C@_09GAAO@Blob?5Lth?$DN?$AA@ 100aab3c     KZOETRAA.OBJ
 0003:00007b48       ??_C@_06FGLI@?$CFs?$CFs?$CFd?$AA@ 100aab48     KZOETRAA.OBJ
 0003:00007b50       ??_C@_0N@JCLK@Entity?5Key?3?5?$AA@ 100aab50     KZOETRAA.OBJ
 0003:00007b60       ??_C@_01KMAE@?0?$AA@       100aab60     KZOETRAA.OBJ
 0003:00007b64       ??_C@_09BNLB@Selected?$CI?$AA@ 100aab64     KZOETRAA.OBJ
 0003:00007b70       ??_C@_0BE@NLN@?$DO?$DO?$DOEntityInstance?5?5?$AA@ 100aab70     KZOETRAA.OBJ
 0003:00007b88       ??_C@_0BH@LAEI@?$DO?$DO?$DOEntityInstance?5Tag?3?$AA@ 100aab88     KZOETRAA.OBJ
 0003:00007ba4       ??_C@_01MHL@U?$AA@         100aaba4     KZOETRAA.OBJ
 0003:00007ba8       ??_C@_01FIAI@X?$AA@        100aaba8     KZOETRAA.OBJ
 0003:00007bac       ??_C@_01PJM@D?$AA@         100aabac     KZOETRAA.OBJ
 0003:00007bb0       ??_C@_01FLOP@I?$AA@        100aabb0     KZOETRAA.OBJ
 0003:00007bb4       ??_C@_01FKHJ@C?$AA@        100aabb4     KZOETRAA.OBJ
 0003:00007bb8       ??_C@_04NFIE@?5End?$AA@    100aabb8     KZOETRAA.OBJ
 0003:00007bc0       ??_C@_0CN@LKO@?$DO?$DO?$DOEntityInstance?5is?5a?5previous?5@ 100aabc0     KZOETRAA.OBJ
 0003:00007bf8       ??_C@_0CI@IEBF@?$DO?$DO?$DOEntityInstance?5is?5a?5previous?5@ 100aabf8     KZOETRAA.OBJ
 0003:00007c28       ??_C@_0CJ@BKJC@?$DO?$DO?$DOEntityInstance?5has?5a?5previous@ 100aac28     KZOETRAA.OBJ
 0003:00007c5c       ??_C@_0BO@LNMA@?$DO?$DO?$DOEntityInstance?5is?5temporal?$AA@ 100aac5c     KZOETRAA.OBJ
 0003:00007c80       ??_C@_0BM@JEBJ@?$DO?$DO?$DOEntityInstance?5is?5hidden?$AA@ 100aac80     KZOETRAA.OBJ
 0003:00007ca4       ??_C@_0BJ@FMNO@?$DO?$DO?$DOEntityInstance?5flags?3?$AA@ 100aaca4     KZOETRAA.OBJ
 0003:00007cc4       ??_C@_06DIKK@?5Start?$AA@  100aacc4     KZOETRAA.OBJ
 0003:00007ccc       ??_C@_0BL@HKFH@Incremental?5Update?5Flags?3?5?$AA@ 100aaccc     KZOETRAA.OBJ
 0003:00007cec       ??_C@_04BAK@NULL?$AA@      100aacec     KZOETRAA.OBJ
 0003:00007cf4       ??_C@_0CB@CBND@?5?5?5Cursor?5for?5EntityInstance?5is?5@ 100aacf4     KZOETRAA.OBJ
 0003:00007d1c       ??_C@_05JIPK@UNSET?$AA@    100aad1c     KZOETRAA.OBJ
 0003:00007d24       ??_C@_0L@LCOG@?$CFs?$HM?$DN?$DN?$DO?$CFs?$CFs?$AA@ 100aad24     KZOETRAA.OBJ
 0003:00007d34       ??_C@_02IGCE@?5?$CK?$AA@   100aad34     KZOETRAA.OBJ
 0003:00007d38       ??_C@_0BN@EKCK@?5?5?5?5?5?5?5?5?5?5?5?5?5?5?5?5?5?5?5?5?5?5?5?5?5?5?5?5?$AA@ 100aad38     KZOETRAA.OBJ
 0003:00007d5c       ??_C@_0BD@MPLN@TraceAllAttributes?$AA@ 100aad5c     KZOETRAA.OBJ
 0003:00007d74       ??_C@_0P@HFNI@?5?5?5?5?5?5?5name?5?5?5?$AA@ 100aad74     KZOETRAA.OBJ
 0003:00007d88       ??_C@_0P@MACG@?5?5?5?5?5?5?5level?5?5?$AA@ 100aad88     KZOETRAA.OBJ
 0003:00007d9c       ??_C@_0P@GPAM@?5?5?5?5?5?5?5is?5NULL?$AA@ 100aad9c     KZOETRAA.OBJ
 0003:00007db0       ??_C@_0BA@OIJE@?5?5?5?5?5?5?5is?5UNSET?$AA@ 100aadb0     KZOETRAA.OBJ
 0003:00007dc4       ??_C@_0BB@LHDO@EntityInstance?5?5?$AA@ 100aadc4     KZOETRAA.OBJ
 0003:00007dd8       ??_C@_0P@JBBB@?5?5?5?5?5?5?5hier?5?5?5?$AA@ 100aadd8     KZOETRAA.OBJ
 0003:00007dec       ??_C@_09BLKP@EntityCsr?$AA@ 100aadec     KZOETRAA.OBJ
 0003:00007df8       ??_C@_0CB@GMNE@?4?4End?5Recursive?5subobject?5info?4?4@ 100aadf8     KZOETRAA.OBJ
 0003:00007e20       ??_C@_0BO@BAPJ@?5?5?5?5?5?5?5?5Parent?5EntityInstance?$AA@ 100aae20     KZOETRAA.OBJ
 0003:00007e44       ??_C@_0BM@HBPI@?5?5?5?5?5?5?5?5?5?5?5?5View?5Entity?5Csr?$AA@ 100aae44     KZOETRAA.OBJ
 0003:00007e68       ??_C@_0BK@LAFI@?$CK?$CKRecursive?5View?5Entity?3?5?$AA@ 100aae68     KZOETRAA.OBJ
 0003:00007e88       ??_C@_0BE@PHCG@?5?5Level?5adjustment?5?$AA@ 100aae88     KZOETRAA.OBJ
 0003:00007ea0       ??_C@_0BN@EKEM@?4?4Recursive?5subobject?5info?4?4?$AA@ 100aaea0     KZOETRAA.OBJ
 0003:00007ec4       ??_C@_0BF@BFND@?$CK?$CKRootEntityInstance?$AA@ 100aaec4     KZOETRAA.OBJ
 0003:00007ee0       ??_C@_0BL@BACN@?$CK?$CKViewParentEntityInstance?$AA@ 100aaee0     KZOETRAA.OBJ
 0003:00007f00       ??_C@_0BD@PHOL@?$CK?$CKLastDescHierNbr?5?$AA@ 100aaf00     KZOETRAA.OBJ
 0003:00007f18       ??_C@_0BE@IIKG@?$CK?$CKLastDescendentCsr?$AA@ 100aaf18     KZOETRAA.OBJ
 0003:00007f30       ??_C@_0CD@IFKK@?$CK?$CKHierarchical?5number?5of?5root?5cs@ 100aaf30     KZOETRAA.OBJ
 0003:00007f5c       ??_C@_0BD@JICN@?$CK?$CKSubobjectRootCsr?$AA@ 100aaf5c     KZOETRAA.OBJ
 0003:00007f74       ??_C@_0BE@JJEF@?$CK?$CKViewRootParentCsr?$AA@ 100aaf74     KZOETRAA.OBJ
 0003:00007f8c       ??_C@_0BH@JPIA@Subobject?5Information?5?$AA@ 100aaf8c     KZOETRAA.OBJ
 0003:00007fa8       ??_C@_0P@KCNP@Entity?5number?5?$AA@ 100aafa8     KZOETRAA.OBJ
 0003:00007fbc       ??_C@_0BL@IEPP@The?5number?5of?5entities?5is?5?$AA@ 100aafbc     KZOETRAA.OBJ
 0003:00007fdc       ??_C@_0BL@PMGF@ViewCsr?5ViewParentInstance?$AA@ 100aafdc     KZOETRAA.OBJ
 0003:00007ffc       ??_C@_0BF@GPIA@ViewCsr?5HierInstance?$AA@ 100aaffc     KZOETRAA.OBJ
 0003:00008018       ??_C@_0BJ@MGJI@ViewCsr?5HierRootInstance?$AA@ 100ab018     KZOETRAA.OBJ
 0003:00008038       ??_C@_0BE@NOMK@?5?5RootViewEntityCsr?$AA@ 100ab038     KZOETRAA.OBJ
 0003:00008050       ??_C@_0BN@IGGG@View?5Cursor?5Info?5for?5Object?5?$AA@ 100ab050     KZOETRAA.OBJ
 0003:00008074       ??_C@_0BG@PBIN@?5?5?5?5?5?5?5?5?5?5bHasDB_Oper?$AA@ 100ab074     KZOETRAA.OBJ
 0003:00008090       ??_C@_0BI@MLNL@?5?5?5?5?5?5?5?5?5?5bContainsBlob?$AA@ 100ab090     KZOETRAA.OBJ
 0003:000080ac       ??_C@_0BO@FDLA@?5?5?5?5?5?5?5?5?5?5bAutoLoadFromParent?$AA@ 100ab0ac     KZOETRAA.OBJ
 0003:000080d0       ??_C@_0BJ@EFAF@?5?5?5?5?5?5?5?5?5?5bRequiredChild?$AA@ 100ab0d0     KZOETRAA.OBJ
 0003:000080f0       ??_C@_0BM@KNIB@?5?5?5?5?5?5?5?5?5?5bCancelConstraint?$AA@ 100ab0f0     KZOETRAA.OBJ
 0003:00008114       ??_C@_0BM@FHNN@?5?5?5?5?5?5?5?5?5?5bAcceptConstraint?$AA@ 100ab114     KZOETRAA.OBJ
 0003:00008138       ??_C@_0BN@JMIM@?5?5?5?5?5?5?5?5?5?5bExcludeConstraint?$AA@ 100ab138     KZOETRAA.OBJ
 0003:0000815c       ??_C@_0BN@DFKA@?5?5?5?5?5?5?5?5?5?5bIncludeConstraint?$AA@ 100ab15c     KZOETRAA.OBJ
 0003:00008180       ??_C@_0BM@OIDA@?5?5?5?5?5?5?5?5?5?5bDeleteConstraint?$AA@ 100ab180     KZOETRAA.OBJ
 0003:000081a4       ??_C@_0BM@INHE@?5?5?5?5?5?5?5?5?5?5bCreateConstraint?$AA@ 100ab1a4     KZOETRAA.OBJ
 0003:000081c8       ??_C@_0BE@EHDI@?5?5?5?5?5?5?5?5?5?5bRelLink1?$AA@ 100ab1c8     KZOETRAA.OBJ
 0003:000081e0       ??_C@_0BG@NDAC@?5?5?5?5?5?5?5?5?5?5bDupRelPath?$AA@ 100ab1e0     KZOETRAA.OBJ
 0003:000081fc       ??_C@_0BC@DNJM@?5?5?5?5?5?5?5?5?5?5bDupRel?$AA@ 100ab1fc     KZOETRAA.OBJ
 0003:00008214       ??_C@_0BH@LKMA@?5?5?5?5?5?5?5?5?5?5bDupInstance?$AA@ 100ab214     KZOETRAA.OBJ
 0003:00008230       ??_C@_0BI@FNCH@?5?5?5?5?5?5?5?5?5?5bSharesChdRec?$AA@ 100ab230     KZOETRAA.OBJ
 0003:0000824c       ??_C@_0BI@JCAH@?5?5?5?5?5?5?5?5?5?5bSharesParRec?$AA@ 100ab24c     KZOETRAA.OBJ
 0003:00008268       ??_C@_0BH@LKPD@?5?5?5?5?5?5?5?5?5?5bFullPersist?$AA@ 100ab268     KZOETRAA.OBJ
 0003:00008284       ??_C@_0BE@FJK@?5?5?5?5?5?5?5?5?5?5bIncrLoad?$AA@ 100ab284     KZOETRAA.OBJ
 0003:0000829c       ??_C@_0BD@EIHD@?5?5?5?5?5?5?5?5?5?5bAutoSeq?$AA@ 100ab29c     KZOETRAA.OBJ
 0003:000082b4       ??_C@_0BK@BGPM@?5?5?5?5?5?5?5?5?5?5bAttrOrderChild?$AA@ 100ab2b4     KZOETRAA.OBJ
 0003:000082d4       ??_C@_0BF@HMGK@?5?5?5?5?5?5?5?5?5?5bAttrOrder?$AA@ 100ab2d4     KZOETRAA.OBJ
 0003:000082f0       ??_C@_0BE@MIHI@?5?5?5?5?5?5?5?5?5?5bAttrInit?$AA@ 100ab2f0     KZOETRAA.OBJ
 0003:00008308       ??_C@_0BC@CJND@?5?5?5?5?5?5?5?5?5?5bGenkey?$AA@ 100ab308     KZOETRAA.OBJ
 0003:00008320       ??_C@_0BH@NEKM@?5?5?5?5?5?5?5?5?5?5bDerivedPath?$AA@ 100ab320     KZOETRAA.OBJ
 0003:0000833c       ??_C@_0BD@GIKD@?5?5?5?5?5?5?5?5?5?5bDerived?$AA@ 100ab33c     KZOETRAA.OBJ
 0003:00008354       ??_C@_0BG@IJJN@?5?5?5?5?5?5?5?5?5?5bAutoCreate?$AA@ 100ab354     KZOETRAA.OBJ
 0003:00008370       ??_C@_0BH@GEPE@?5?5?5?5?5?5?5?5?5?5bRecursiveSt?$AA@ 100ab370     KZOETRAA.OBJ
 0003:0000838c       ??_C@_0BJ@HEIJ@?5?5?5?5?5?5?5?5?5?5bCheckRestrict?$AA@ 100ab38c     KZOETRAA.OBJ
 0003:000083ac       ??_C@_0BF@JIDE@?5?5?5?5?5?5?5?5?5?5bPRestrict?$AA@ 100ab3ac     KZOETRAA.OBJ
 0003:000083c8       ??_C@_0BD@MJHL@?5?5?5?5?5?5?5?5?5?5bPDelete?$AA@ 100ab3c8     KZOETRAA.OBJ
 0003:000083e0       ??_C@_0BC@FPHI@?5?5?5?5?5?5?5?5?5?5bHidden?$AA@ 100ab3e0     KZOETRAA.OBJ
 0003:000083f8       ??_C@_0BD@IPMG@?5?5?5?5?5?5?5?5?5?5bInclSrc?$AA@ 100ab3f8     KZOETRAA.OBJ
 0003:00008410       ??_C@_0BD@CKHJ@?5?5?5?5?5?5?5?5?5?5bExclude?$AA@ 100ab410     KZOETRAA.OBJ
 0003:00008428       ??_C@_0BD@MDEA@?5?5?5?5?5?5?5?5?5?5bInclude?$AA@ 100ab428     KZOETRAA.OBJ
 0003:00008440       ??_C@_0BC@FEP@?5?5?5?5?5?5?5?5?5?5bUpdate?$AA@ 100ab440     KZOETRAA.OBJ
 0003:00008458       ??_C@_0BC@IKMC@?5?5?5?5?5?5?5?5?5?5bDelete?$AA@ 100ab458     KZOETRAA.OBJ
 0003:00008470       ??_C@_0BC@EHJF@?5?5?5?5?5?5?5?5?5?5bCreate?$AA@ 100ab470     KZOETRAA.OBJ
 0003:00008488       ??_C@_0N@GFCH@?5?5?5?5?5?5Flags?3?$AA@ 100ab488     KZOETRAA.OBJ
 0003:00008498       ??_C@_0BG@HNBM@?5?5?5?5?5?5ECEOper?5name?5?$DN?5?$AA@ 100ab498     KZOETRAA.OBJ
 0003:000084b4       ??_C@_0BF@MADK@?5?5?5?5?5?5Server?5name?5?$DN?5?$AA@ 100ab4b4     KZOETRAA.OBJ
 0003:000084d0       ??_C@_0BH@EFAL@?5?5?5?5?5?5Database?5name?5?$DN?5?$AA@ 100ab4d0     KZOETRAA.OBJ
 0003:000084ec       ??_C@_0BJ@GEDJ@?5?5?5?5?5?5Lock?5Level?5?5?5?5?5?5?$DN?5?$AA@ 100ab4ec     KZOETRAA.OBJ
 0003:0000850c       ??_C@_0BG@LKPB@?5?5?5?5?5?5Max?5Attr?5lth?5?$DN?5?$AA@ 100ab50c     KZOETRAA.OBJ
 0003:00008528       ??_C@_0BJ@FJIE@?5?5?5?5?5?5NonPersist?5size?5?$DN?5?$AA@ 100ab528     KZOETRAA.OBJ
 0003:00008548       ??_C@_0BF@PJOH@?5?5?5?5?5?5Record?5size?5?$DN?5?$AA@ 100ab548     KZOETRAA.OBJ
 0003:00008564       ??_C@_0BC@CGKA@?5?5?5?5?5?5Card?5max?5?$DN?5?$AA@ 100ab564     KZOETRAA.OBJ
 0003:0000857c       ??_C@_0BC@KNEH@?5?5?5?5?5?5Card?5min?5?$DN?5?$AA@ 100ab57c     KZOETRAA.OBJ
 0003:00008594       ??_C@_0BF@GBAH@?5?5?5?5?5?5Hier?5number?5?$DN?5?$AA@ 100ab594     KZOETRAA.OBJ
 0003:000085b0       ??_C@_0BF@JBPG@?5?5?5?5?5?5Parent?5name?5?$DN?5?$AA@ 100ab5b0     KZOETRAA.OBJ
 0003:000085cc       ??_C@_0BC@GKE@?5?5?5?5?5?5XML?5name?5?$DN?5?$AA@ 100ab5cc     KZOETRAA.OBJ
 0003:000085e4       ??_C@_0P@DCAF@?5?5?5?5?5?5Level?5?$DN?5?$AA@ 100ab5e4     KZOETRAA.OBJ
 0003:000085f8       ??_C@_0BF@PMND@?5?5?5?5?5?5ENTITY?5Name?5?$DN?5?$AA@ 100ab5f8     KZOETRAA.OBJ
 0003:00008614       ??_C@_0BP@CCOP@?5?5?5?5?5?5?5?5?5?5?5?5?5?5?5?5?5bNoPersistUpd?$AA@ 100ab614     KZOETRAA.OBJ
 0003:0000863c       ??_C@_0BL@LHG@?5?5?5?5?5?5?5?5?5?5?5?5?5?5?5?5?5bNoUpdate?$AA@ 100ab63c     KZOETRAA.OBJ
 0003:0000865c       ??_C@_0BO@PBAD@?5?5?5?5?5?5?5?5?5?5?5?5?5?5?5?5?5bSequencingD?$AA@ 100ab65c     KZOETRAA.OBJ
 0003:00008680       ??_C@_0BK@FKAN@?5?5?5?5?5?5?5?5?5?5?5?5?5?5?5?5?5bAutoSeq?$AA@ 100ab680     KZOETRAA.OBJ
 0003:000086a0       ??_C@_0BJ@NHFN@?5?5?5?5?5?5?5?5?5?5?5?5?5?5?5?5?5bUserID?$AA@ 100ab6a0     KZOETRAA.OBJ
 0003:000086c0       ??_C@_0BJ@NBKL@?5?5?5?5?5?5?5?5?5?5?5?5?5?5?5?5?5bUpDate?$AA@ 100ab6c0     KZOETRAA.OBJ
 0003:000086e0       ??_C@_0BJ@LGCD@?5?5?5?5?5?5?5?5?5?5?5?5?5?5?5?5?5bCrDate?$AA@ 100ab6e0     KZOETRAA.OBJ
 0003:00008700       ??_C@_0BL@LDEK@?5?5?5?5?5?5?5?5?5?5?5?5?5?5?5?5?5bCaseSens?$AA@ 100ab700     KZOETRAA.OBJ
 0003:00008720       ??_C@_0BJ@CBNO@?5?5?5?5?5?5?5?5?5?5?5?5?5?5?5?5?5bHidden?$AA@ 100ab720     KZOETRAA.OBJ
 0003:00008740       ??_C@_0BL@JIKM@?5?5?5?5?5?5?5?5?5?5?5?5?5?5?5?5?5bRequired?$AA@ 100ab740     KZOETRAA.OBJ
 0003:00008760       ??_C@_0BJ@FHHF@?5?5?5?5?5?5?5?5?5?5?5?5?5?5?5?5?5bGenkey?$AA@ 100ab760     KZOETRAA.OBJ
 0003:00008780       ??_C@_0BN@NOKP@?5?5?5?5?5?5?5?5?5?5?5?5?5?5?5?5?5bForeignKey?$AA@ 100ab780     KZOETRAA.OBJ
 0003:000087a4       ??_C@_0BG@DKJD@?5?5?5?5?5?5?5?5?5?5?5?5?5?5?5?5?5bKey?$AA@ 100ab7a4     KZOETRAA.OBJ
 0003:000087c0       ??_C@_0BK@KHFM@?5?5?5?5?5?5?5?5?5?5?5?5?5?5?5?5?5bPersist?$AA@ 100ab7c0     KZOETRAA.OBJ
 0003:000087e0       ??_C@_0BF@JAEG@?5?5?5?5?5?5?5?5?5?5?5?5?5?5FLAGS?3?$AA@ 100ab7e0     KZOETRAA.OBJ
 0003:000087fc       ??_C@_0BJ@IFJP@?5?5?5?5?5?5?5?5?5?5?5?5?5?5DB?5Oper?5?$DN?5?$AA@ 100ab7fc     KZOETRAA.OBJ
 0003:0000881c       ??_C@_0BP@DLKP@?5?5?5?5?5?5?5?5?5?5?5?5?5?5DerivedXPG?5?$DN?5YES?$AA@ 100ab81c     KZOETRAA.OBJ
 0003:00008844       ??_C@_0BN@KPKK@?5?5?5?5?5?5?5?5?5?5?5?5?5?5DerivedOper?5?$DN?5?$AA@ 100ab844     KZOETRAA.OBJ
 0003:00008868       ??_C@_0BO@KDCH@?5?5?5?5?5?5?5?5?5?5?5?5?5?5Sequencing?5?$CD?5?$DN?5?$AA@ 100ab868     KZOETRAA.OBJ
 0003:0000888c       ??_C@_0BI@GFNN@?5?5?5?5?5?5?5?5?5?5?5?5?5?5Offset?5?$DN?5?$AA@ 100ab88c     KZOETRAA.OBJ
 0003:000088a8       ??_C@_0BI@MLNA@?5?5?5?5?5?5?5?5?5?5?5?5?5?5Length?5?$DN?5?$AA@ 100ab8a8     KZOETRAA.OBJ
 0003:000088c4       ??_C@_0BI@MGNC@?5?5?5?5?5?5?5?5?5?5?5?5?5?5ERTok?5?5?$DN?5?$AA@ 100ab8c4     KZOETRAA.OBJ
 0003:000088e0       ??_C@_0BG@MDGA@?5?5?5?5?5?5?5?5?5?5?5?5?5?5Type?5?$DN?5?$AA@ 100ab8e0     KZOETRAA.OBJ
 0003:000088fc       ??_C@_0CA@IONI@?5?5?5?5?5?5?5?5?5?5?5?5?5?5ATTRIBUTE?5Name?5?$DN?5?$AA@ 100ab8fc     KZOETRAA.OBJ
 0003:00008924       ??_C@_0CD@CMCO@?5?5?5?5?5?5?5?5?5?5?5?5?5?5?5?5?5?5?5?5?5Field?5name?5@ 100ab924     KZOETRAA.OBJ
 0003:00008950       ??_C@_0CD@JEEK@?5?5?5?5?5?5?5?5?5?5?5?5?5?5?5?5?5?5?5?5?5Rel?5attrib?5@ 100ab950     KZOETRAA.OBJ
 0003:0000897c       ??_C@_0CD@LEMB@?5?5?5?5?5?5?5?5?5?5?5?5?5?5?5?5?5?5?5?5?5Rel?5entity?5@ 100ab97c     KZOETRAA.OBJ
 0003:000089a8       ??_C@_0CG@KJBN@?5?5?5?5?5?5?5?5?5?5?5?5?5?5?5?5?5?5?5?5?5Source?5attr@ 100ab9a8     KZOETRAA.OBJ
 0003:000089d8       ??_C@_0CG@IJJG@?5?5?5?5?5?5?5?5?5?5?5?5?5?5?5?5?5?5?5?5?5Source?5enti@ 100ab9d8     KZOETRAA.OBJ
 0003:00008a08       ??_C@_0BP@JPEG@?5?5?5?5?5?5?5?5?5?5?5?5?5?5?5?5?5?5?5?5?5RELFIELD?3?$AA@ 100aba08     KZOETRAA.OBJ
 0003:00008a30       ??_C@_0BM@LABL@?5?5?5?5?5?5?5?5?5?5?5?5?5?5?5?5Set?52?5ID?5?$DN?5?$AA@ 100aba30     KZOETRAA.OBJ
 0003:00008a54       ??_C@_0BO@KPD@?5?5?5?5?5?5?5?5?5?5?5?5?5?5?5?5Set?5name?52?5?$DN?5?$AA@ 100aba54     KZOETRAA.OBJ
 0003:00008a78       ??_C@_0BM@MDKF@?5?5?5?5?5?5?5?5?5?5?5?5?5?5?5?5Set?51?5ID?5?$DN?5?$AA@ 100aba78     KZOETRAA.OBJ
 0003:00008a9c       ??_C@_0BO@GFAF@?5?5?5?5?5?5?5?5?5?5?5?5?5?5?5?5Set?5name?51?5?$DN?5?$AA@ 100aba9c     KZOETRAA.OBJ
 0003:00008ac0       ??_C@_0BN@JGCP@?5?5?5?5?5?5?5?5?5?5?5?5?5?5?5?5Record?5ID?5?$DN?5?$AA@ 100abac0     KZOETRAA.OBJ
 0003:00008ae4       ??_C@_0BP@EMCP@?5?5?5?5?5?5?5?5?5?5?5?5?5?5?5?5Record?5name?5?$DN?5?$AA@ 100abae4     KZOETRAA.OBJ
 0003:00008b0c       ??_C@_0CA@ODKK@?5?5?5?5?5?5?5?5?5?5?5?5?5?5?5?5cOwnerMember?5?$DN?5?$AA@ 100abb0c     KZOETRAA.OBJ
 0003:00008b34       ??_C@_0BK@PDA@?5?5?5?5?5?5?5?5?5?5?5?5?5?5?5?5RELRECORD?$AA@ 100abb34     KZOETRAA.OBJ
 0003:00008b54       ??_C@_0CA@IOJA@?5?5?5?5?5?5?5?5?5?5?5?5?5?5?5?5Field?5length?5?$DN?5?$AA@ 100abb54     KZOETRAA.OBJ
 0003:00008b7c       ??_C@_0BO@BEFD@?5?5?5?5?5?5?5?5?5?5?5?5?5?5?5?5Field?5type?5?$DN?5?$AA@ 100abb7c     KZOETRAA.OBJ
 0003:00008ba0       ??_C@_0BO@ED@?5?5?5?5?5?5?5?5?5?5?5?5?5?5?5?5Field?5name?5?$DN?5?$AA@ 100abba0     KZOETRAA.OBJ
 0003:00008bc4       ??_C@_0CM@IFNM@?5?5?5?5?5?5?5?5?5?5?5?5?5?5?5?5DATAFIELD?5Attrib@ 100abbc4     KZOETRAA.OBJ
 0003:00008bf8       ??_C@_0BL@EBND@?5?5?5?5?5?5?5?5?5?5?5?5?5?5Record?5ID?5?$DN?5?$AA@ 100abbf8     KZOETRAA.OBJ
 0003:00008c18       ??_C@_0BN@CKPF@?5?5?5?5?5?5?5?5?5?5?5?5?5?5Record?5Type?5?$DN?5?$AA@ 100abc18     KZOETRAA.OBJ
 0003:00008c3c       ??_C@_0CB@LDAB@?5?5?5?5?5?5?5?5?5?5?5?5?5?5DATARECORD?5name?5?$DN?5@ 100abc3c     KZOETRAA.OBJ
 0003:00008c64       ??_C@_0BB@KIKL@?5?5?5?5?5bDeprecated?$AA@ 100abc64     KZOETRAA.OBJ
 0003:00008c78       ??_C@_0BH@HBIE@?5?5?5?5?5bDropOIConstraint?$AA@ 100abc78     KZOETRAA.OBJ
 0003:00008c94       ??_C@_0BH@JGMC@?5?5?5?5?5bCommitConstraint?$AA@ 100abc94     KZOETRAA.OBJ
 0003:00008cb0       ??_C@_0BO@JDBA@?5?5?5?5?5bActivateEmptyConstraint?$AA@ 100abcb0     KZOETRAA.OBJ
 0003:00008cd4       ??_C@_0BJ@KEGP@?5?5?5?5?5bActivateConstraint?$AA@ 100abcd4     KZOETRAA.OBJ
 0003:00008cf4       ??_C@_0BF@GCH@?5?5?5?5?5bHasDerivedPath?$AA@ 100abcf4     KZOETRAA.OBJ
 0003:00008d10       ??_C@_0BA@CDON@?5?5?5?5?5bHasDupRel?$AA@ 100abd10     KZOETRAA.OBJ
 0003:00008d24       ??_C@_0BF@GIEL@?5?5?5?5?5bHasDupInstance?$AA@ 100abd24     KZOETRAA.OBJ
 0003:00008d40       ??_C@_07KJAP@Flags?3?5?$AA@ 100abd40     KZOETRAA.OBJ
 0003:00008d4c       ??_C@_0BC@GOPE@Ent?5Lock?5Level?5?$DN?5?$AA@ 100abd4c     KZOETRAA.OBJ
 0003:00008d64       ??_C@_0BC@JFJK@Lock?5Level?5?5?5?5?5?$DN?5?$AA@ 100abd64     KZOETRAA.OBJ
 0003:00008d7c       ??_C@_0BC@ODNG@Cache?5Number?5?5?5?$DN?5?$AA@ 100abd7c     KZOETRAA.OBJ
 0003:00008d94       ??_C@_0BC@GPKM@Entity?5Count?5?5?5?$DN?5?$AA@ 100abd94     KZOETRAA.OBJ
 0003:00008dac       ??_C@_0BC@OCNH@GKHandler?5name?5?$DN?5?$AA@ 100abdac     KZOETRAA.OBJ
 0003:00008dc4       ??_C@_0BC@NBGC@DBHandler?5name?5?$DN?5?$AA@ 100abdc4     KZOETRAA.OBJ
 0003:00008ddc       ??_C@_0BA@FKLF@OCEOper?5name?5?$DN?5?$AA@ 100abddc     KZOETRAA.OBJ
 0003:00008df0       ??_C@_0BA@CMPB@OperLib?5name?5?$DN?5?$AA@ 100abdf0     KZOETRAA.OBJ
 0003:00008e04       ??_C@_0BB@JILM@Database?5name?5?$DN?5?$AA@ 100abe04     KZOETRAA.OBJ
 0003:00008e18       ??_C@_0BD@KCIO@Object?5def?5name?5?$DN?5?$AA@ 100abe18     KZOETRAA.OBJ
 0003:00008e30       ??_C@_0CB@CFEK@Cancel?5Tracing?0?5lpViewOD?5is?5null@ 100abe30     KZOETRAA.OBJ
 0003:00008e58       ??_C@_0BK@CKGB@Tracing?5object?5definition?$AA@ 100abe58     KZOETRAA.OBJ
 0003:00008e78       ??_C@_06PADD@?5Empty?$AA@  100abe78     KZOETRAA.OBJ
 0003:00008e80       ??_C@_0CP@DLAG@?$CItr?$CJ?5CompareOI_ToOI?5?9?5Entity?5Ins@ 100abe80     KZOETRAA.OBJ
 0003:00008eb8       ??_C@_0DA@FNCN@?$CItr?$CJ?5CompareOI_ToOI?5?9?5Entity?5Str@ 100abeb8     KZOETRAA.OBJ
 0003:00008ef4       ??_C@_0DE@HGD@?$CItr?$CJ?5CompareOI_ToOI?5?9?5Src?5and?5Tg@ 100abef4     KZOETRAA.OBJ
 0003:00008f34       ??_C@_0CG@EHFN@CompareOI_ToOI?5?9?5Object?5type?5mis@ 100abf34     KZOETRAA.OBJ
 0003:00008f70       _usDayTable                100abf70     KZOEUFAA.OBJ
 0003:00008f88       _usLeapDayTable            100abf88     KZOEUFAA.OBJ
 0003:00008fa0       _Encrypt1                  100abfa0     KZOEUFAA.OBJ
 0003:00008fbc       _Encrypt2                  100abfbc     KZOEUFAA.OBJ
 0003:00008fd8       _EncryptNonAlpha           100abfd8     KZOEUFAA.OBJ
 0003:00009088       ??_C@_0BJ@BJED@Missing?5ending?5delimiter?$AA@ 100ac088     KZOEUFAA.OBJ
 0003:000090a8       ??_C@_02KCEC@MM?$AA@       100ac0a8     KZOEUFAA.OBJ
 0003:000090ac       ??_C@_02CFPA@mm?$AA@       100ac0ac     KZOEUFAA.OBJ
 0003:000090b0       ??_C@_03KNBB@MMM?$AA@      100ac0b0     KZOEUFAA.OBJ
 0003:000090b4       ??_C@_03GIHG@mmm?$AA@      100ac0b4     KZOEUFAA.OBJ
 0003:000090b8       ??_C@_02BBEA@jj?$AA@       100ac0b8     KZOEUFAA.OBJ
 0003:000090bc       ??_C@_02PPJD@DD?$AA@       100ac0bc     KZOEUFAA.OBJ
 0003:000090c0       ??_C@_02HICB@dd?$AA@       100ac0c0     KZOEUFAA.OBJ
 0003:000090c4       ??_C@_03DCGD@DDD?$AA@      100ac0c4     KZOEUFAA.OBJ
 0003:000090c8       ??_C@_03PHAE@ddd?$AA@      100ac0c8     KZOEUFAA.OBJ
 0003:000090cc       ??_C@_02DBLP@PM?$AA@       100ac0cc     KZOEUFAA.OBJ
 0003:000090d0       ??_C@_02ENLM@AM?$AA@       100ac0d0     KZOEUFAA.OBJ
 0003:000090d4       ??_C@_0BG@OOBG@Zeidon?5Internal?5Error?$AA@ 100ac0d4     KZOEUFAA.OBJ
 0003:000090f0       ??_C@_0BI@CIAL@Error?5decrypting?5string?$AA@ 100ac0f0     KZOEUFAA.OBJ
 0003:0000910c       ??_C@_0BB@BHDO@Integer?5overflow?$AA@ 100ac10c     KZOEUFAA.OBJ
 0003:00009120       ??_C@_0BC@CCED@Invalid?5parameter?$AA@ 100ac120     KZOEUFAA.OBJ
 0003:00009138       ??_C@_0BH@NPJP@Year?5greater?5than?59999?$AA@ 100ac138     KZOEUFAA.OBJ
 0003:00009154       ??_C@_0BB@FKM@Year?5less?5than?51?$AA@ 100ac154     KZOEUFAA.OBJ
 0003:00009168       ??_C@_08NEDP@00010101?$AA@ 100ac168     KZOEUFAA.OBJ
 0003:00009174       ??_C@_0DE@ILOG@ZeidonStringCopy?3?5Invalid?5parame@ 100ac174     KZOEUFAA.OBJ
 0003:000091b4       ??_C@_0CN@LNIH@ZeidonStringCopy?3?5Target?5string?5@ 100ac1b4     KZOEUFAA.OBJ
 0003:000091ec       ??_C@_0DE@DKDH@ZeidonStringCopy?3?5Target?5string?5@ 100ac1ec     KZOEUFAA.OBJ
 0003:0000922c       ??_C@_0CF@GGNO@ZeidonStringCopy?3?5Invalid?5parame@ 100ac22c     KZOEUFAA.OBJ
 0003:00009258       ??_C@_0DA@DAKA@ZeidonStringConcat?3?5Target?5strin@ 100ac258     KZOEUFAA.OBJ
 0003:00009294       ??_C@_0DH@POEO@ZeidonStringConcat?3?5Source?5strin@ 100ac294     KZOEUFAA.OBJ
 0003:000092d8       ??_C@_0DH@BIJM@ZeidonStringConcat?3?5Target?5strin@ 100ac2d8     KZOEUFAA.OBJ
 0003:0000931c       ??_C@_0CH@DGFG@ZeidonStringConcat?3?5Invalid?5para@ 100ac31c     KZOEUFAA.OBJ
 0003:0000934c       ??_C@_0DB@PLHO@ZeidonStringCompare?3?5Target?5stri@ 100ac34c     KZOEUFAA.OBJ
 0003:00009388       ??_C@_0DI@FDFM@ZeidonStringCompare?3?5Source?5stri@ 100ac388     KZOEUFAA.OBJ
 0003:000093cc       ??_C@_0DI@LFIO@ZeidonStringCompare?3?5Target?5stri@ 100ac3cc     KZOEUFAA.OBJ
 0003:00009410       ??_C@_0CI@GIMP@ZeidonStringCompare?3?5Invalid?5par@ 100ac410     KZOEUFAA.OBJ
 0003:00009440       ??_C@_0DC@HIDH@ZeidonStringConvertFromNumber?3?5I@ 100ac440     KZOEUFAA.OBJ
 0003:0000947c       ??_C@_0EC@BPIP@ZeidonStringConvertFromNumber?3?5T@ 100ac47c     KZOEUFAA.OBJ
 0003:000094cc       ??_C@_0BG@BAHO@bcdfghjklmnpqrstvwxyz?$AA@ 100ac4cc     KZOEUFAA.OBJ
 0003:000094e8       ??_C@_01FDHG@?$CK?$AA@     100ac4e8     KZOEUFAA.OBJ
 0003:000094ec       ??_C@_01NON@_?$AA@         100ac4ec     KZOEUFAA.OBJ
 0003:000094f0       ??_C@_05BDLH@aeiou?$AA@    100ac4f0     KZOEUFAA.OBJ
 0003:000094f8       ??_C@_0DB@DOJP@UfZProbeOn?3?5Invalid?5probe?5descri@ 100ac4f8     KZOEUFAA.OBJ
 0003:00009534       ??_C@_0DB@CDOI@UfZProbeOn?3?5Invalid?5probe?5descri@ 100ac534     KZOEUFAA.OBJ
 0003:00009570       ??_C@_0DB@DJCH@UfZProbeOn?3?5Invalid?5probe?5descri@ 100ac570     KZOEUFAA.OBJ
 0003:000095ac       ??_C@_0CL@DANP@UfZProbeOn?3?5No?5more?5probes?5avail@ 100ac5ac     KZOEUFAA.OBJ
 0003:000095e0       ??_C@_0CH@FHPJ@UfZProbeOff?3?5?5?5?5?5?5?5?5?5?5?5?5?5?5descri@ 100ac5e0     KZOEUFAA.OBJ
 0003:00009610       ??_C@_0CH@MMBH@UfZProbeOff?3?5Probe?5not?5on?5for?5nu@ 100ac610     KZOEUFAA.OBJ
 0003:00009640       ??_C@_0CE@KINL@UfZProbeOff?3?5?5?5?5?5?5?5?5?5?5?5descripto@ 100ac640     KZOEUFAA.OBJ
 0003:0000966c       ??_C@_0CE@FHKC@UfZProbeOff?3?5Invalid?5probe?5numbe@ 100ac66c     KZOEUFAA.OBJ
 0003:00009698       ??_C@_0DB@GLLK@UfZProbeOffByDesc?3?5Probe?5not?5on?5@ 100ac698     KZOEUFAA.OBJ
 0003:000096d4       ??_C@_0CH@MEFI@?$DN?$DN?$DN?$DN?$DN?$DN?$DN?5Probe?5Trace?5?9?5?$CF30s?5?$DN?$DN?$DN?5E@ 100ac6d4     KZOEUFAA.OBJ
 0003:00009704       ??_C@_0EM@KFEP@zp?4?$CF03d?4?5?$CF30s?3?$CF8?43f?5secs?4?5?$CIavg?4?$CF@ 100ac704     KZOEUFAA.OBJ
 0003:00009760       ??_C@_0DE@DFFK@zp?4?$CF03d?4?5?$CF30s?3?$CF8?43f?5secs?4?5?$CIavg?4?$CF@ 100ac760     KZOEUFAA.OBJ
 0003:000097a0       ??_C@_0DF@EJDP@zp?4ALL?4?5?9?9?5elapsed?5for?5Init?5to?5T@ 100ac7a0     KZOEUFAA.OBJ
 0003:000097e0       ??_C@_0CH@OODP@?$DN?$DN?$DN?$DN?$DN?$DN?$DN?5Probe?5Trace?5?9?5?$CF30s?5?$DN?$DN?$DNST@ 100ac7e0     KZOEUFAA.OBJ
 0003:00009810       _g_Operations              100ac810     KZOEVLAA.OBJ
 0003:0000a27c       ??_C@_0BP@MADF@?$CI554?$CJCommitSubobjectToXML_File?$AA@ 100ad27c     KZOEVLAA.OBJ
 0003:0000a2a4       ??_C@_0BJ@PJIC@?$CI553?$CJWriteSubobjectToXML?$AA@ 100ad2a4     KZOEVLAA.OBJ
 0003:0000a2c4       ??_C@_0BJ@IDOO@?$CI552?$CJCommitOI_ToXML_File?$AA@ 100ad2c4     KZOEVLAA.OBJ
 0003:0000a2e4       ??_C@_0BN@DOMH@?$CI551?$CJActivateOI_FromXML_File?$AA@ 100ad2e4     KZOEVLAA.OBJ
 0003:0000a308       ??_C@_0BD@KKFF@?$CI550?$CJWriteOI_ToXML?$AA@ 100ad308     KZOEVLAA.OBJ
 0003:0000a320       ??_C@_0BB@KDJB@?$CI515?$CJNetSendFile?$AA@ 100ad320     KZOEVLAA.OBJ
 0003:0000a334       ??_C@_0BM@HJG@?$CI514?$CJNetGetLocalHostAddress?$AA@ 100ad334     KZOEVLAA.OBJ
 0003:0000a358       ??_C@_0BG@GKMA@?$CI513?$CJNetCallOperation?$AA@ 100ad358     KZOEVLAA.OBJ
 0003:0000a374       ??_C@_0BK@OME@?$CI512?$CJNetSendBootstrapFile?$AA@ 100ad374     KZOEVLAA.OBJ
 0003:0000a394       ??_C@_0BM@CNCE@?$CI511?$CJNetActivateOI_FromFile?$AA@ 100ad394     KZOEVLAA.OBJ
 0003:0000a3b8       ??_C@_0BI@LIDA@?$CI510?$CJNetCommitOI_ToFile?$AA@ 100ad3b8     KZOEVLAA.OBJ
 0003:0000a3d4       ??_C@_0BD@HFKI@?$CI509?$CJNetStopListen?$AA@ 100ad3d4     KZOEVLAA.OBJ
 0003:0000a3ec       ??_C@_0P@CBHE@?$CI508?$CJNetStatus?$AA@ 100ad3ec     KZOEVLAA.OBJ
 0003:0000a400       ??_C@_0BA@MBLF@?$CI507?$CJNetStartup?$AA@ 100ad400     KZOEVLAA.OBJ
 0003:0000a414       ??_C@_0BG@ENNM@?$CI506?$CJNetSetTraceLevel?$AA@ 100ad414     KZOEVLAA.OBJ
 0003:0000a430       ??_C@_0BH@HGJB@?$CI505?$CJNetProcessMessage?$AA@ 100ad430     KZOEVLAA.OBJ
 0003:0000a44c       ??_C@_0P@GLLG@?$CI504?$CJNetListen?$AA@ 100ad44c     KZOEVLAA.OBJ
 0003:0000a460       ??_C@_0BG@FMJB@?$CI503?$CJNetGetTraceLevel?$AA@ 100ad460     KZOEVLAA.OBJ
 0003:0000a47c       ??_C@_0O@DFOJ@?$CI502?$CJNetClose?$AA@ 100ad47c     KZOEVLAA.OBJ
 0003:0000a48c       ??_C@_0BB@GBKB@?$CI501?$CJNetCommitOI?$AA@ 100ad48c     KZOEVLAA.OBJ
 0003:0000a4a0       ??_C@_0BD@CIKF@?$CI500?$CJNetActivateOI?$AA@ 100ad4a0     KZOEVLAA.OBJ
 0003:0000a4b8       ??_C@_0BN@IBHM@?$CI466?$CJMiSetInstanceUpdateFlag?$AA@ 100ad4b8     KZOEVLAA.OBJ
 0003:0000a4dc       ??_C@_0BM@GMAO@?$CI465?$CJMiHasPersistentChanges?$AA@ 100ad4dc     KZOEVLAA.OBJ
 0003:0000a500       ??_C@_0BI@LHPN@?$CI464?$CJMiGetActivateFlags?$AA@ 100ad500     KZOEVLAA.OBJ
 0003:0000a51c       ??_C@_0CC@GLI@?$CI463?$CJMiCompareOI_ReleaseToReleas@ 100ad51c     KZOEVLAA.OBJ
 0003:0000a544       ??_C@_0BM@PBJH@?$CI462?$CJMiSetOI_ReleaseForView?$AA@ 100ad544     KZOEVLAA.OBJ
 0003:0000a568       ??_C@_0BM@HGKK@?$CI461?$CJMiGetOI_ReleaseForView?$AA@ 100ad568     KZOEVLAA.OBJ
 0003:0000a58c       ??_C@_0BM@LPBJ@?$CI460?$CJMiGetObjectNameForView?$AA@ 100ad58c     KZOEVLAA.OBJ
 0003:0000a5b0       ??_C@_0BP@PBPD@?$CI459?$CJMiGetCardinalityForEntity?$AA@ 100ad5b0     KZOEVLAA.OBJ
 0003:0000a5d8       ??_C@_0BM@BMCF@?$CI458?$CJMiGetViewEntityForView?$AA@ 100ad5d8     KZOEVLAA.OBJ
 0003:0000a5fc       ??_C@_0BK@OEJL@?$CI457?$CJMiGetKeyFromInstance?$AA@ 100ad5fc     KZOEVLAA.OBJ
 0003:0000a61c       ??_C@_0BL@KOHD@?$CI456?$CJMiGetERTokenForEntity?$AA@ 100ad61c     KZOEVLAA.OBJ
 0003:0000a63c       ??_C@_0BI@NHPH@?$CI455?$CJMiGetDateTimeForOI?$AA@ 100ad63c     KZOEVLAA.OBJ
 0003:0000a658       ??_C@_0CA@NJGF@?$CI454?$CJMiGetTemporalStateOfEntity?$AA@ 100ad658     KZOEVLAA.OBJ
 0003:0000a680       ??_C@_0CC@KGAP@?$CI453?$CJMiGetUpdateForViewEntityAtt@ 100ad680     KZOEVLAA.OBJ
 0003:0000a6a8       ??_C@_0BI@CIAC@?$CI452?$CJMiGetUpdateForView?$AA@ 100ad6a8     KZOEVLAA.OBJ
 0003:0000a6c4       ??_C@_0BN@NBFA@?$CI451?$CJMiGetInstanceID_ForView?$AA@ 100ad6c4     KZOEVLAA.OBJ
 0003:0000a6e8       ??_C@_0CC@JJHC@?$CI450?$CJMiGetParentEntityNameForVie@ 100ad6e8     KZOEVLAA.OBJ
 0003:0000a710       ??_C@_0BE@HHBF@?$CI407?$CJCompareOI_ToOI?$AA@ 100ad710     KZOEVLAA.OBJ
 0003:0000a728       ??_C@_0BL@FLLB@?$CI406?$CJCompareEntityToEntity?$AA@ 100ad728     KZOEVLAA.OBJ
 0003:0000a748       ??_C@_0BP@IPDK@?$CI405?$CJDisplayEntityInstancePath?$AA@ 100ad748     KZOEVLAA.OBJ
 0003:0000a770       ??_C@_0CA@DJOA@?$CI404?$CJSetTaskDBHandlerTraceLevel?$AA@ 100ad770     KZOEVLAA.OBJ
 0003:0000a798       ??_C@_0CA@NFHO@?$CI403?$CJGetTaskDBHandlerTraceLevel?$AA@ 100ad798     KZOEVLAA.OBJ
 0003:0000a7c0       ??_C@_0BH@POHB@?$CI402?$CJDisplayCursorInfo?$AA@ 100ad7c0     KZOEVLAA.OBJ
 0003:0000a7dc       ??_C@_0BL@CFJI@?$CI401?$CJDisplayObjectInstance?$AA@ 100ad7dc     KZOEVLAA.OBJ
 0003:0000a7fc       ??_C@_0BL@ODDD@?$CI400?$CJDisplayEntityInstance?$AA@ 100ad7fc     KZOEVLAA.OBJ
 0003:0000a81c       ??_C@_0BF@HFHO@?$CI370?$CJUfAddToDateTime?$AA@ 100ad81c     KZOEVLAA.OBJ
 0003:0000a838       ??_C@_0BE@KACO@?$CI363?$CJMessagePresent?$AA@ 100ad838     KZOEVLAA.OBJ
 0003:0000a850       ??_C@_0BL@JKNJ@?$CI362?$CJMessagePromptForInput?$AA@ 100ad850     KZOEVLAA.OBJ
 0003:0000a870       ??_C@_0BD@BEFK@?$CI361?$CJMessagePrompt?$AA@ 100ad870     KZOEVLAA.OBJ
 0003:0000a888       ??_C@_0BB@LEEC@?$CI360?$CJMessageSend?$AA@ 100ad888     KZOEVLAA.OBJ
 0003:0000a89c       ??_C@_0CA@GCNM@?$CI352?$CJTableEntryForInternalValue?$AA@ 100ad89c     KZOEVLAA.OBJ
 0003:0000a8c4       ??_C@_0BI@NODH@?$CI351?$CJTableEntryIntToExt?$AA@ 100ad8c4     KZOEVLAA.OBJ
 0003:0000a8e0       ??_C@_0BI@DHJJ@?$CI350?$CJTableEntryExtToInt?$AA@ 100ad8e0     KZOEVLAA.OBJ
 0003:0000a8fc       ??_C@_0CD@LGA@?$CI299?$CJStoreStringInDerivedAttribu@ 100ad8fc     KZOEVLAA.OBJ
 0003:0000a928       ??_C@_0CC@GGGL@?$CI298?$CJStoreValueInDerivedAttribut@ 100ad928     KZOEVLAA.OBJ
 0003:0000a950       ??_C@_0BF@IOKA@?$CI297?$CJWriteBlobToFile?$AA@ 100ad950     KZOEVLAA.OBJ
 0003:0000a96c       ??_C@_0BF@NNKC@?$CI296?$CJSetBlobFromFile?$AA@ 100ad96c     KZOEVLAA.OBJ
 0003:0000a988       ??_C@_0BE@BKIE@?$CI295?$CJSetOI_FromBlob?$AA@ 100ad988     KZOEVLAA.OBJ
 0003:0000a9a0       ??_C@_0BD@BFLB@?$CI294?$CJSetBlobFromOI?$AA@ 100ad9a0     KZOEVLAA.OBJ
 0003:0000a9b8       ??_C@_0BP@CGCD@?$CI293?$CJGetAttributeDisplayLength?$AA@ 100ad9b8     KZOEVLAA.OBJ
 0003:0000a9e0       ??_C@_0CB@JKKO@?$CI292?$CJSetEntityAttributesFromBlob@ 100ad9e0     KZOEVLAA.OBJ
 0003:0000aa08       ??_C@_0CB@GNEF@?$CI291?$CJSetBlobFromEntityAttributes@ 100ada08     KZOEVLAA.OBJ
 0003:0000aa30       ??_C@_0BH@LNDB@?$CI290?$CJGetAddrFromRecord?$AA@ 100ada30     KZOEVLAA.OBJ
 0003:0000aa4c       ??_C@_0BO@CLNH@?$CI289?$CJGetActualAttributeLength?$AA@ 100ada4c     KZOEVLAA.OBJ
 0003:0000aa70       ??_C@_0BJ@MOM@?$CI288?$CJGetStringFromRecord?$AA@ 100ada70     KZOEVLAA.OBJ
 0003:0000aa90       ??_C@_0BJ@IDOA@?$CI287?$CJStoreStringInRecord?$AA@ 100ada90     KZOEVLAA.OBJ
 0003:0000aab0       ??_C@_0BI@BGPJ@?$CI286?$CJGetValueFromRecord?$AA@ 100adab0     KZOEVLAA.OBJ
 0003:0000aacc       ??_C@_0CA@IFKI@?$CI285?$CJAddToAttributeFromVariable?$AA@ 100adacc     KZOEVLAA.OBJ
 0003:0000aaf4       ??_C@_0BI@HMOC@?$CI284?$CJStoreValueInRecord?$AA@ 100adaf4     KZOEVLAA.OBJ
 0003:0000ab10       ??_C@_0BL@ECJP@?$CI283?$CJSetAttributeValuePrev?$AA@ 100adb10     KZOEVLAA.OBJ
 0003:0000ab30       ??_C@_0BL@FIMA@?$CI282?$CJSetAttributeValueNext?$AA@ 100adb30     KZOEVLAA.OBJ
 0003:0000ab50       ??_C@_0CD@FMEJ@?$CI281?$CJGetNextTableEntryForAttribu@ 100adb50     KZOEVLAA.OBJ
 0003:0000ab7c       ??_C@_0CE@ENNC@?$CI280?$CJGetFirstTableEntryForAttrib@ 100adb7c     KZOEVLAA.OBJ
 0003:0000aba8       ??_C@_0BO@EBIF@?$CI279?$CJGetVariableFromAttribute?$AA@ 100adba8     KZOEVLAA.OBJ
 0003:0000abcc       ??_C@_0CA@KAID@?$CI278?$CJCompareAttributeToVariable?$AA@ 100adbcc     KZOEVLAA.OBJ
 0003:0000abf4       ??_C@_0BO@MIOG@?$CI277?$CJSetAttributeFromVariable?$AA@ 100adbf4     KZOEVLAA.OBJ
 0003:0000ac18       ??_C@_0CD@MKCG@?$CI276?$CJSetBlobAttributeFromAttribu@ 100adc18     KZOEVLAA.OBJ
 0003:0000ac44       ??_C@_0CB@EFKN@?$CI275?$CJSetMatchingAttributesByName@ 100adc44     KZOEVLAA.OBJ
 0003:0000ac6c       ??_C@_0BI@CNMO@?$CI274?$CJGetAttributeLength?$AA@ 100adc6c     KZOEVLAA.OBJ
 0003:0000ac88       ??_C@_0CB@GNIO@?$CI273?$CJCompareAttributeToAttribute@ 100adc88     KZOEVLAA.OBJ
 0003:0000acb0       ??_C@_0BP@NLOH@?$CI272?$CJCompareAttributeToDecimal?$AA@ 100adcb0     KZOEVLAA.OBJ
 0003:0000acd8       ??_C@_0BP@JOFA@?$CI271?$CJCompareAttributeToInteger?$AA@ 100adcd8     KZOEVLAA.OBJ
 0003:0000ad00       ??_C@_0BO@PNIO@?$CI270?$CJCompareAttributeToString?$AA@ 100add00     KZOEVLAA.OBJ
 0003:0000ad24       ??_C@_0CB@PFBM@?$CI268?$CJAddToAttributeFromAttribute@ 100add24     KZOEVLAA.OBJ
 0003:0000ad4c       ??_C@_0BP@HNCM@?$CI267?$CJAddToAttributeFromDecimal?$AA@ 100add4c     KZOEVLAA.OBJ
 0003:0000ad74       ??_C@_0BP@DNOB@?$CI266?$CJAddToAttributeFromInteger?$AA@ 100add74     KZOEVLAA.OBJ
 0003:0000ad9c       ??_C@_0CB@LJML@?$CI265?$CJSetAttributeFromCurrentDate@ 100add9c     KZOEVLAA.OBJ
 0003:0000adc4       ??_C@_0BP@FOJP@?$CI264?$CJSetAttributeFromAttribute?$AA@ 100addc4     KZOEVLAA.OBJ
 0003:0000adec       ??_C@_0BK@GDEF@?$CI263?$CJSetAttributeFromBlob?$AA@ 100addec     KZOEVLAA.OBJ
 0003:0000ae0c       ??_C@_0BN@DHMH@?$CI262?$CJSetAttributeFromDecimal?$AA@ 100ade0c     KZOEVLAA.OBJ
 0003:0000ae30       ??_C@_0BN@JGAA@?$CI261?$CJSetAttributeFromInteger?$AA@ 100ade30     KZOEVLAA.OBJ
 0003:0000ae54       ??_C@_0BM@ICEL@?$CI260?$CJSetAttributeFromString?$AA@ 100ade54     KZOEVLAA.OBJ
 0003:0000ae78       ??_C@_0BJ@MBBP@?$CI259?$CJGetAddrForAttribute?$AA@ 100ade78     KZOEVLAA.OBJ
 0003:0000ae98       ??_C@_0BO@IJJP@?$CI258?$CJGetStructFromEntityAttrs?$AA@ 100ade98     KZOEVLAA.OBJ
 0003:0000aebc       ??_C@_0BG@DBBK@?$CI255?$CJAttributeUpdated?$AA@ 100adebc     KZOEVLAA.OBJ
 0003:0000aed8       ??_C@_0BH@OEFP@?$CI254?$CJGetAttributeFlags?$AA@ 100aded8     KZOEVLAA.OBJ
 0003:0000aef4       ??_C@_0BK@BCGJ@?$CI253?$CJGetBlobFromAttribute?$AA@ 100adef4     KZOEVLAA.OBJ
 0003:0000af14       ??_C@_0BN@ICBC@?$CI252?$CJGetDecimalFromAttribute?$AA@ 100adf14     KZOEVLAA.OBJ
 0003:0000af38       ??_C@_0BN@GKO@?$CI251?$CJGetIntegerFromAttribute?$AA@ 100adf38     KZOEVLAA.OBJ
 0003:0000af5c       ??_C@_0BM@CCEI@?$CI250?$CJGetStringFromAttribute?$AA@ 100adf5c     KZOEVLAA.OBJ
 0003:0000af80       ??_C@_0BK@OFAG@?$CI225?$CJSfSetApplicationTask?$AA@ 100adf80     KZOEVLAA.OBJ
 0003:0000afa0       ??_C@_0BC@NBOJ@?$CI224?$CJGetViewFlags?$AA@ 100adfa0     KZOEVLAA.OBJ
 0003:0000afb8       ??_C@_0BE@DCHL@?$CI223?$CJDropViewObject?$AA@ 100adfb8     KZOEVLAA.OBJ
 0003:0000afd0       ??_C@_0BC@HJAM@?$CI222?$CJSetViewFlags?$AA@ 100adfd0     KZOEVLAA.OBJ
 0003:0000afe8       ??_C@_0BI@PEAN@?$CI221?$CJResetViewPositions?$AA@ 100adfe8     KZOEVLAA.OBJ
 0003:0000b004       ??_C@_0BN@ELGM@?$CI220?$CJSfCreateSysViewFromView?$AA@ 100ae004     KZOEVLAA.OBJ
 0003:0000b028       ??_C@_0BI@LGJD@?$CI219?$CJSfGetNextNamedView?$AA@ 100ae028     KZOEVLAA.OBJ
 0003:0000b044       ??_C@_0BJ@FBFC@?$CI218?$CJSfGetFirstNamedView?$AA@ 100ae044     KZOEVLAA.OBJ
 0003:0000b064       ??_C@_0BF@DEPE@?$CI217?$CJSetViewReadOnly?$AA@ 100ae064     KZOEVLAA.OBJ
 0003:0000b080       ??_C@_0BK@BIMI@?$CI216?$CJSfActivateSysEmptyOI?$AA@ 100ae080     KZOEVLAA.OBJ
 0003:0000b0a0       ??_C@_0BO@KFKG@?$CI215?$CJSfActivateSysOI_FromFile?$AA@ 100ae0a0     KZOEVLAA.OBJ
 0003:0000b0c4       ??_C@_0BA@FIPJ@?$CI214?$CJSfLockView?$AA@ 100ae0c4     KZOEVLAA.OBJ
 0003:0000b0d8       ??_C@_0BE@EHEE@?$CI213?$CJSfTransferView?$AA@ 100ae0d8     KZOEVLAA.OBJ
 0003:0000b0f0       ??_C@_0O@BCDD@?$CI212?$CJDropView?$AA@ 100ae0f0     KZOEVLAA.OBJ
 0003:0000b100       ??_C@_0P@EPBI@?$CI211?$CJResetView?$AA@ 100ae100     KZOEVLAA.OBJ
 0003:0000b114       ??_C@_0BK@LIIB@?$CI210?$CJSfGetNextSubtaskView?$AA@ 100ae114     KZOEVLAA.OBJ
 0003:0000b134       ??_C@_0BL@KCP@?$CI209?$CJSfGetFirstSubtaskView?$AA@ 100ae134     KZOEVLAA.OBJ
 0003:0000b154       ??_C@_0BE@DCOF@?$CI208?$CJGetNameForView?$AA@ 100ae154     KZOEVLAA.OBJ
 0003:0000b16c       ??_C@_0BE@KMAK@?$CI207?$CJSetSubtaskView?$AA@ 100ae16c     KZOEVLAA.OBJ
 0003:0000b184       ??_C@_0BD@PMID@?$CI206?$CJGetViewByName?$AA@ 100ae184     KZOEVLAA.OBJ
 0003:0000b19c       ??_C@_0BF@BMKG@?$CI205?$CJDropNameForView?$AA@ 100ae19c     KZOEVLAA.OBJ
 0003:0000b1b8       ??_C@_0BE@DPKJ@?$CI204?$CJSetNameForView?$AA@ 100ae1b8     KZOEVLAA.OBJ
 0003:0000b1d0       ??_C@_0BM@HHNA@?$CI203?$CJResetViewFromSubobject?$AA@ 100ae1d0     KZOEVLAA.OBJ
 0003:0000b1f4       ??_C@_0BI@OBPO@?$CI202?$CJSetViewToSubobject?$AA@ 100ae1f4     KZOEVLAA.OBJ
 0003:0000b210       ??_C@_0BF@GFN@?$CI201?$CJSetViewFromView?$AA@ 100ae210     KZOEVLAA.OBJ
 0003:0000b22c       ??_C@_0BP@BIHF@?$CI200?$CJCreateViewFromViewForTask?$AA@ 100ae22c     KZOEVLAA.OBJ
 0003:0000b254       ??_C@_0CF@FCNG@?$CI193?$CJGetEntityNameForHierarchica@ 100ae254     KZOEVLAA.OBJ
 0003:0000b280       ??_C@_0CE@FOCB@?$CI192?$CJSetCursorNextEntityHierarch@ 100ae280     KZOEVLAA.OBJ
 0003:0000b2ac       ??_C@_0BM@FIFI@?$CI191?$CJDropHierarchicalCursor?$AA@ 100ae2ac     KZOEVLAA.OBJ
 0003:0000b2d0       ??_C@_0BO@FBPH@?$CI190?$CJDefineHierarchicalCursor?$AA@ 100ae2d0     KZOEVLAA.OBJ
 0003:0000b2f4       ??_C@_0BP@FKPD@?$CI187?$CJSetCursorAbsolutePosition?$AA@ 100ae2f4     KZOEVLAA.OBJ
 0003:0000b31c       ??_C@_0CC@EFHJ@?$CI186?$CJGetAbsolutePositionForEntit@ 100ae31c     KZOEVLAA.OBJ
 0003:0000b344       ??_C@_0BF@FEHE@?$CI184?$CJSetEntityCursor?$AA@ 100ae344     KZOEVLAA.OBJ
 0003:0000b360       ??_C@_0BN@HBDJ@?$CI183?$CJGetRelativeEntityNumber?$AA@ 100ae360     KZOEVLAA.OBJ
 0003:0000b384       ??_C@_0BN@HHAH@?$CI182?$CJSetCursorRelativeEntity?$AA@ 100ae384     KZOEVLAA.OBJ
 0003:0000b3a8       ??_C@_0CB@EDMF@?$CI181?$CJSetCursorNextSelectedEntity@ 100ae3a8     KZOEVLAA.OBJ
 0003:0000b3d0       ??_C@_0CC@BBCM@?$CI180?$CJSetCursorFirstSelectedEntit@ 100ae3d0     KZOEVLAA.OBJ
 0003:0000b3f8       ??_C@_0CE@PFLD@?$CI179?$CJSetCursorNextEntityByEntity@ 100ae3f8     KZOEVLAA.OBJ
 0003:0000b424       ??_C@_0CE@EGME@?$CI178?$CJSetCursorFirstEntityByEntit@ 100ae424     KZOEVLAA.OBJ
 0003:0000b450       ??_C@_0BP@HOPB@?$CI177?$CJSetCursorNextEntityByAttr?$AA@ 100ae450     KZOEVLAA.OBJ
 0003:0000b478       ??_C@_0CA@LOLB@?$CI176?$CJSetCursorFirstEntityByAttr?$AA@ 100ae478     KZOEVLAA.OBJ
 0003:0000b4a0       ??_C@_0CC@NGAJ@?$CI175?$CJSetCursorNextEntityByDecima@ 100ae4a0     KZOEVLAA.OBJ
 0003:0000b4c8       ??_C@_0CD@GNLA@?$CI174?$CJSetCursorFirstEntityByDecim@ 100ae4c8     KZOEVLAA.OBJ
 0003:0000b4f4       ??_C@_0CC@IKEJ@?$CI173?$CJSetCursorNextEntityByIntege@ 100ae4f4     KZOEVLAA.OBJ
 0003:0000b51c       ??_C@_0CD@BHNO@?$CI172?$CJSetCursorFirstEntityByInteg@ 100ae51c     KZOEVLAA.OBJ
 0003:0000b548       ??_C@_0CB@LGEM@?$CI171?$CJSetCursorNextEntityByString@ 100ae548     KZOEVLAA.OBJ
 0003:0000b570       ??_C@_0CC@DLOO@?$CI170?$CJSetCursorFirstEntityByStrin@ 100ae570     KZOEVLAA.OBJ
 0003:0000b598       ??_C@_0BJ@MKPP@?$CI153?$CJSetCursorLastEntity?$AA@ 100ae598     KZOEVLAA.OBJ
 0003:0000b5b8       ??_C@_0BK@GMBA@?$CI152?$CJSetCursorFirstEntity?$AA@ 100ae5b8     KZOEVLAA.OBJ
 0003:0000b5d8       ??_C@_0BJ@FKDI@?$CI151?$CJSetCursorPrevEntity?$AA@ 100ae5d8     KZOEVLAA.OBJ
 0003:0000b5f8       ??_C@_0BJ@PFJI@?$CI150?$CJSetCursorNextEntity?$AA@ 100ae5f8     KZOEVLAA.OBJ
 0003:0000b618       ??_C@_0BN@GMCB@?$CI134?$CJSubobjectVersionUpdated?$AA@ 100ae618     KZOEVLAA.OBJ
 0003:0000b63c       ??_C@_0CF@HEBN@?$CI133?$CJIncludeSubobjectFromSubobje@ 100ae63c     KZOEVLAA.OBJ
 0003:0000b668       ??_C@_0BH@HNEH@?$CI132?$CJCheckEntityInView?$AA@ 100ae668     KZOEVLAA.OBJ
 0003:0000b684       ??_C@_0CF@IEJF@?$CI131?$CJCountEntitiesForViewUnderPa@ 100ae684     KZOEVLAA.OBJ
 0003:0000b6b0       ??_C@_0CD@PMIJ@?$CI130?$CJObjectInstanceUpdatedFromFi@ 100ae6b0     KZOEVLAA.OBJ
 0003:0000b6dc       ??_C@_0BJ@PHHK@?$CI129?$CJSetSelectSetForView?$AA@ 100ae6dc     KZOEVLAA.OBJ
 0003:0000b6fc       ??_C@_0CB@IFFK@?$CI128?$CJCancelAllTemporalSubobjects@ 100ae6fc     KZOEVLAA.OBJ
 0003:0000b724       ??_C@_0CB@BAGI@?$CI127?$CJAcceptAllTemporalSubobjects@ 100ae724     KZOEVLAA.OBJ
 0003:0000b74c       ??_C@_0BA@LJEF@?$CI126?$CJDropEntity?$AA@ 100ae74c     KZOEVLAA.OBJ
 0003:0000b760       ??_C@_0BO@HJGA@?$CI125?$CJOrderOI_ByDefaultAttribs?$AA@ 100ae760     KZOEVLAA.OBJ
 0003:0000b784       ??_C@_0CD@FJNE@?$CI124?$CJOrderEntitiesByDefaultAttri@ 100ae784     KZOEVLAA.OBJ
 0003:0000b7b0       ??_C@_0BK@MAEB@?$CI123?$CJCountEntitiesForView?$AA@ 100ae7b0     KZOEVLAA.OBJ
 0003:0000b7d0       ??_C@_0BI@NIOA@?$CI122?$CJOrderEntityForView?$AA@ 100ae7d0     KZOEVLAA.OBJ
 0003:0000b7ec       ??_C@_0BO@MHKI@?$CI121?$CJRelinkAllSubobjectsForOI?$AA@ 100ae7ec     KZOEVLAA.OBJ
 0003:0000b810       ??_C@_0BP@DHCA@?$CI120?$CJGetIncrementalUpdateFlags?$AA@ 100ae810     KZOEVLAA.OBJ
 0003:0000b838       ??_C@_0BP@KPBF@?$CI119?$CJSetIncrementalUpdateFlags?$AA@ 100ae838     KZOEVLAA.OBJ
 0003:0000b860       ??_C@_0BL@MPBO@?$CI118?$CJObjectInstanceUpdated?$AA@ 100ae860     KZOEVLAA.OBJ
 0003:0000b880       ??_C@_0BA@GDP@?$CI117?$CJLoadEntity?$AA@ 100ae880     KZOEVLAA.OBJ
 0003:0000b894       ??_C@_0BO@FIDH@?$CI116?$CJRelinkInstanceToInstance?$AA@ 100ae894     KZOEVLAA.OBJ
 0003:0000b8b8       ??_C@_0BK@HJJL@?$CI115?$CJCreateTemporalEntity?$AA@ 100ae8b8     KZOEVLAA.OBJ
 0003:0000b8d8       ??_C@_0BM@NHGK@?$CI114?$CJSetSelectStateOfEntity?$AA@ 100ae8d8     KZOEVLAA.OBJ
 0003:0000b8fc       ??_C@_0CB@JBHJ@?$CI113?$CJSetAllSelectStatesForEntity@ 100ae8fc     KZOEVLAA.OBJ
 0003:0000b924       ??_C@_0BM@HKGH@?$CI112?$CJGetSelectStateOfEntity?$AA@ 100ae924     KZOEVLAA.OBJ
 0003:0000b948       ??_C@_0BD@BJOM@?$CI110?$CJMoveSubobject?$AA@ 100ae948     KZOEVLAA.OBJ
 0003:0000b960       ??_C@_0BC@JLLP@?$CI108?$CJGetEntityKey?$AA@ 100ae960     KZOEVLAA.OBJ
 0003:0000b978       ??_C@_0BD@GLNM@?$CI107?$CJExcludeEntity?$AA@ 100ae978     KZOEVLAA.OBJ
 0003:0000b990       ??_C@_0BC@LNBB@?$CI106?$CJDeleteEntity?$AA@ 100ae990     KZOEVLAA.OBJ
 0003:0000b9a8       ??_C@_0CD@EHKE@?$CI105?$CJIncludeSubobjectFromSubobje@ 100ae9a8     KZOEVLAA.OBJ
 0003:0000b9d4       ??_C@_0BF@IFDC@?$CI104?$CJCancelSubobject?$AA@ 100ae9d4     KZOEVLAA.OBJ
 0003:0000b9f0       ??_C@_0BF@BFIF@?$CI103?$CJAcceptSubobject?$AA@ 100ae9f0     KZOEVLAA.OBJ
 0003:0000ba0c       ??_C@_0CE@NPEJ@?$CI102?$CJCreateTemporalSubobjectVers@ 100aea0c     KZOEVLAA.OBJ
 0003:0000ba38       ??_C@_0BC@BIJB@?$CI101?$CJCreateEntity?$AA@ 100aea38     KZOEVLAA.OBJ
 0003:0000ba50       ??_C@_0BM@JKBH@?$CI100?$CJCheckExistenceOfEntity?$AA@ 100aea50     KZOEVLAA.OBJ
 0003:0000ba74       ??_C@_0BH@DP@?$CI70?$CJDropObjectInstance?$AA@ 100aea74     KZOEVLAA.OBJ
 0003:0000ba90       ??_C@_0BP@EIJ@?$CI65?$CJGenerateQualFromEntityList?$AA@ 100aea90     KZOEVLAA.OBJ
 0003:0000bab8       ??_C@_0BF@NMMJ@?$CI64?$CJAddToViewCluster?$AA@ 100aeab8     KZOEVLAA.OBJ
 0003:0000bad4       ??_C@_0BE@KMAP@?$CI63?$CJDropViewCluster?$AA@ 100aead4     KZOEVLAA.OBJ
 0003:0000baec       ??_C@_0BG@MFPB@?$CI62?$CJCommitMultipleOIs?$AA@ 100aeaec     KZOEVLAA.OBJ
 0003:0000bb08       ??_C@_0BE@NJIF@?$CI61?$CJCommitOI_ToFile?$AA@ 100aeb08     KZOEVLAA.OBJ
 0003:0000bb20       ??_C@_0BJ@EANN@?$CI60?$CJCommitObjectInstance?$AA@ 100aeb20     KZOEVLAA.OBJ
 0003:0000bb40       ??_C@_0BO@COPH@?$CI55?$CJActivateOI_FromOI_ForTask?$AA@ 100aeb40     KZOEVLAA.OBJ
 0003:0000bb64       ??_C@_0BI@MMNK@?$CI54?$CJActivateOI_FromFile?$AA@ 100aeb64     KZOEVLAA.OBJ
 0003:0000bb80       ??_C@_0BL@FBKG@?$CI52?$CJActivateObjectInstance?$AA@ 100aeb80     KZOEVLAA.OBJ
 0003:0000bba0       ??_C@_0CA@HNLJ@?$CI50?$CJActivateEmptyObjectInstance?$AA@ 100aeba0     KZOEVLAA.OBJ
 0003:0000bbc8       ??_C@_0BE@OPGP@?$CI29?$CJSetDatabaseUser?$AA@ 100aebc8     KZOEVLAA.OBJ
 0003:0000bbe0       ??_C@_0BI@PNEM@?$CI28?$CJSfCheckOI_Integrity?$AA@ 100aebe0     KZOEVLAA.OBJ
 0003:0000bbfc       ??_C@_0BI@HLMJ@?$CI27?$CJSfReAllocTaskMemory?$AA@ 100aebfc     KZOEVLAA.OBJ
 0003:0000bc18       ??_C@_0BF@GFA@?$CI26?$CJSfFreeTaskMemory?$AA@ 100aec18     KZOEVLAA.OBJ
 0003:0000bc34       ??_C@_0BG@KNCH@?$CI25?$CJSfAllocTaskMemory?$AA@ 100aec34     KZOEVLAA.OBJ
 0003:0000bc50       ??_C@_0BC@MJKM@?$CI24?$CJSfGetTaskInfo?$AA@ 100aec50     KZOEVLAA.OBJ
 0003:0000bc68       ??_C@_0CB@FBLE@?$CI23?$CJSfGetDefaultContextForDomain@ 100aec68     KZOEVLAA.OBJ
 0003:0000bc90       ??_C@_0BP@DJL@?$CI22?$CJSfSetApplicationForSubtask?$AA@ 100aec90     KZOEVLAA.OBJ
 0003:0000bcb8       ??_C@_0BP@HKCO@?$CI21?$CJSfGetApplicationForSubtask?$AA@ 100aecb8     KZOEVLAA.OBJ
 0003:0000bce0       ??_C@_0BN@EMGL@?$CI20?$CJGetApplDirectoryFromView?$AA@ 100aece0     KZOEVLAA.OBJ
 0003:0000bd04       ??_C@_0P@EJKI@?$CI13?$CJEnableTask?$AA@ 100aed04     KZOEVLAA.OBJ
 0003:0000bd18       ??_C@_0BA@JEMM@?$CI12?$CJDisableTask?$AA@ 100aed18     KZOEVLAA.OBJ
 0003:0000bd2c       ??_C@_0BC@CHIA@?$CI11?$CJSfDropSubtask?$AA@ 100aed2c     KZOEVLAA.OBJ
 0003:0000bd44       ??_C@_0BE@CMBJ@?$CI10?$CJSfCreateSubtask?$AA@ 100aed44     KZOEVLAA.OBJ
 0003:0000bd5c       ??_C@_01PKMN@?$DP?$AA@     100aed5c     KZOEVLAA.OBJ
 0003:0000bd60       ??_C@_0CB@OMFM@Created?5DebugChange?5element?5for?5@ 100aed60     KZOEVLAA.OBJ
 0003:0000bd88       ??_C@_08CBN@?$CFs?4?$CFs?4?$CFs?$AA@ 100aed88     KZOEVLAA.OBJ
 0003:0000bd94       ??_C@_0N@KJLH@New?5Value?5?$DN?5?$AA@ 100aed94     KZOEVLAA.OBJ
 0003:0000bda4       ??_C@_0N@BDBM@Old?5value?5?$DN?5?$AA@ 100aeda4     KZOEVLAA.OBJ
 0003:0000bdb4       ??_C@_0N@KIOE@Attribute?5?$DN?5?$AA@ 100aedb4     KZOEVLAA.OBJ
 0003:0000bdc4       ??_C@_0CK@CDJA@?9?9?9?9?9?9?9?5Attribute?5from?5same?5EI?5?9@ 100aedc4     KZOEVLAA.OBJ
 0003:0000bdf8       ??_C@_0N@CLFM@Debug?5Change?$AA@ 100aedf8     KZOEVLAA.OBJ
 0003:0000be08       ??_C@_0GC@MNDA@Operation?$CFs?3?5Core?5detected?5a?5cha@ 100aee08     KZOEVLAA.OBJ
 0003:0000be80       ??_C@_04LKDK@Exit?$AA@     100aee80     KZOEVLAA.OBJ
 0003:0000be88       ??_C@_05IMKO@Start?$AA@    100aee88     KZOEVLAA.OBJ
 0003:0000be90       ??_C@_08NAPD@New?5?$DN?$DN?$DO?5?$AA@ 100aee90     KZOEVLAA.OBJ
 0003:0000be9c       ??_C@_08CGAH@Old?5?$DN?$DN?$DO?5?$AA@ 100aee9c     KZOEVLAA.OBJ
 0003:0000bea8       ??_C@_0BO@GLGD@Same?5lth?5but?5different?5values?$AA@ 100aeea8     KZOEVLAA.OBJ
 0003:0000becc       ??_C@_0L@DCPH@New?5lth?5?$DN?5?$AA@ 100aeecc     KZOEVLAA.OBJ
 0003:0000bedc       ??_C@_0L@DHKG@Old?5lth?5?$DN?5?$AA@ 100aeedc     KZOEVLAA.OBJ
 0003:0000beec       ??_C@_0BC@FGMD@?$CIDbgChg?$CJ?5Storing?5?$AA@ 100aeeec     KZOEVLAA.OBJ
 0003:0000bf04       ??_C@_0BM@NCPK@?5Too?5many?5nested?5Core?5calls?$AA@ 100aef04     KZOEVLAA.OBJ
 0003:0000bf28       ??_C@_0BM@JMDL@Too?5many?5nested?5Core?5calls2?$AA@ 100aef28     KZOEVLAA.OBJ
 0003:0000bf4c       ??_C@_0BL@GAAF@Zeidon?5Core?5Internal?5Error?$AA@ 100aef4c     KZOEVLAA.OBJ
 0003:0000bf6c       ??_C@_0GA@CMML@?5Too?5many?5nested?5Core?5calls?4?5?$CITh@ 100aef6c     KZOEVLAA.OBJ
 0003:0000bfe0       ??_C@_0BC@KGHI@fnOperationCall?3?5?$AA@ 100aefe0     KZOEVLAA.OBJ
 0003:0000bff8       ??_C@_0BN@KAOG@Zeidon?5Core?5Internal?5Error?3?5?$AA@ 100aeff8     KZOEVLAA.OBJ
 0003:0000c01c       ??_C@_0BL@IFFB@Too?5many?5nested?5Core?5calls?$AA@ 100af01c     KZOEVLAA.OBJ
 0003:0000c03c       ??_C@_0P@OHPB@Auditing?5error?$AA@ 100af03c     KZOEVLAA.OBJ
 0003:0000c050       ??_C@_0DA@EANH@KZOEE101?5?9?5Invalid?5view?50x?$CF08x?5f@ 100af050     KZOEVLAA.OBJ
 0003:0000c08c       ??_C@_0BC@LP@Zeidon?5Core?5Error?$AA@ 100af08c     KZOEVLAA.OBJ
 0003:0000c0a4       ??_C@_0CK@CGOJ@KZOEE013?5?9?5Internal?5operation?5ca@ 100af0a4     KZOEVLAA.OBJ
 0003:0000c0d8       ??_C@_0FN@KOCI@KZOEE013?5?9?5Internal?5operation?5?$CI?$CF@ 100af0d8     KZOEVLAA.OBJ
 0003:0000c148       ??_C@_0CK@OOLP@CheckValidView?5found?5Invalid?5vie@ 100af148     KZOEVLAA.OBJ
 0003:0000c17c       ??_C@_0EJ@FMLA@fnValidViewEntity?5?9?5Invalid?5Enti@ 100af17c     KZOEVLAA.OBJ
 0003:0000c1d4       ??_C@_0DJ@FPGP@fnValidViewEntity?5?9?5Invalid?5View@ 100af1d4     KZOEVLAA.OBJ
 0003:0000c218       ??_C@_0BK@ECJP@fnValidViewAttrib?5error?3?5?$AA@ 100af218     KZOEVLAA.OBJ
 0003:0000c238       ??_C@_0BI@CEHB@?$FLView?3?50x?$CF08x?$FN?5?$CFs?4?$CFs?4?$CFs?$AA@ 100af238     KZOEVLAA.OBJ
 0003:0000c254       ??_C@_02NDAK@?5?$CI?$AA@   100af254     KZOEVLAA.OBJ
 0003:0000c258       ??_C@_0BC@LABF@Invalid?5linked?5EI?$AA@ 100af258     KZOEVLAA.OBJ
 0003:0000c270       ??_C@_0BE@ENBN@Too?5many?5linked?5EIs?$AA@ 100af270     KZOEVLAA.OBJ
 0003:0000c288       ??_C@_0BL@DKHG@View?5has?5an?5invalid?5entity?$AA@ 100af288     KZOEVLAA.OBJ
 0003:0000c2a8       ??_C@_0BN@EGDK@OI?5Integrity?9?9EI?8s?5hier?5?$CD?5?$DN?5?$AA@ 100af2a8     KZOEVLAA.OBJ
 0003:0000c2cc       ??_C@_0BC@BGPE@Too?5many?5entities?$AA@ 100af2cc     KZOEVLAA.OBJ
 0003:0000c2e4       ??_C@_0CD@GPEF@View?5does?5not?5have?5a?5valid?5View?5@ 100af2e4     KZOEVLAA.OBJ
 0003:0000c310       ??_C@_0CD@FOJF@View?5does?5not?5have?5a?5valid?5ViewC@ 100af310     KZOEVLAA.OBJ
 0003:0000c33c       ??_C@_0N@BBCA@OI?5Integrity?$AA@ 100af33c     KZOEVLAA.OBJ
 0003:0000c34c       ??_C@_0BO@CJGN@View?5does?5not?5have?5a?5valid?5OD?$AA@ 100af34c     KZOEVLAA.OBJ
 0003:0000c370       ??_C@_0CA@CMPL@CreateView?5?$CFs?3?50x?$CF08x?5?5?5LOD?3?5?$CFs?$AA@ 100af370     KZOEVMAA.OBJ
 0003:0000c398       ??_C@_0CA@PGCC@SfCreateSysViewFromView?3?50x?$CF08x?$AA@ 100af398     KZOEVMAA.OBJ
 0003:0000c3c0       ??_C@_0DA@BIJC@DropNameForView?5Invalid?5Subtask?5@ 100af3c0     KZOEVMAA.OBJ
 0003:0000c3fc       ??_C@_0BP@EMEP@DropNameForView?5Length?5Error?3?5?$AA@ 100af3fc     KZOEVMAA.OBJ
 0003:0000c424       ??_C@_0CO@GIKG@DropNameForView?5Invalid?5scope?5fo@ 100af424     KZOEVMAA.OBJ
 0003:0000c45c       ??_C@_0GP@OHOK@DropNameForView?5sending?5in?5view?5@ 100af45c     KZOEVMAA.OBJ
 0003:0000c4e4       ??_C@_0HO@KFBJ@DropNameForView?5sending?5in?5view?5@ 100af4e4     KZOEVMAA.OBJ
 0003:0000c57c       ??_C@_0CG@GNGP@?$CIvm?$CJ?5Invalid?5scoping?5level?5?9?9?5na@ 100af57c     KZOEVMAA.OBJ
 0003:0000c5ac       ??_C@_0BN@GIHG@?$CIvm?$CJ?5Invalid?5view?5?9?9?5name?5?$DN?5?$AA@ 100af5ac     KZOEVMAA.OBJ
 0003:0000c5d0       ??_C@_0EC@PBDN@?$CIvm?$CJ?5Naming?5non?9application?5leve@ 100af5d0     KZOEVMAA.OBJ
 0003:0000c620       ??_C@_0CA@CCCN@?$CIvm?$CJ?5Invalid?5subtask?5?9?9?5name?5?$DN?5?$AA@ 100af620     KZOEVMAA.OBJ
 0003:0000c648       ??_C@_0GO@LMDH@SetNameForView?5sending?5in?5view?5f@ 100af648     KZOEVMAA.OBJ
 0003:0000c6cc       ??_C@_0HN@NDNE@SetNameForView?5sending?5in?5view?5f@ 100af6cc     KZOEVMAA.OBJ
 0003:0000c764       ??_C@_0GG@DEDH@GetViewByName?5TRANSIENT?5ERROR?5?$CI0@ 100af764     KZOEVMAA.OBJ
 0003:0000c7e0       ??_C@_03ENCN@ANY?$AA@      100af7e0     KZOEVMAA.OBJ
 0003:0000c7e4       ??_C@_07CNPM@UNKNOWN?$AA@  100af7e4     KZOEVMAA.OBJ
 0003:0000c7f0       ??_C@_06LDDL@SYSTEM?$AA@   100af7f0     KZOEVMAA.OBJ
 0003:0000c7f8       ??_C@_0M@LKKI@APPLICATION?$AA@ 100af7f8     KZOEVMAA.OBJ
 0003:0000c808       ??_C@_04LGGC@TASK?$AA@     100af808     KZOEVMAA.OBJ
 0003:0000c810       ??_C@_07DBNL@SUBTASK?$AA@  100af810     KZOEVMAA.OBJ
 0003:0000c81c       ??_C@_09GJLM@NOT?5FOUND?$AA@ 100af81c     KZOEVMAA.OBJ
 0003:0000c828       ??_C@_0DA@NIDI@GetViewByName?5Invalid?5Subtask?5?$CIn@ 100af828     KZOEVMAA.OBJ
 0003:0000c864       ??_C@_0CG@OLKB@GetViewByName?5Invalid?5view?5for?5N@ 100af864     KZOEVMAA.OBJ
 0003:0000c894       ??_C@_0CO@BOP@GetViewByName?5Invalid?5Subtask?5vi@ 100af894     KZOEVMAA.OBJ
 0003:0000c8cc       ??_C@_0BL@CMP@GetViewByName?5?9?5Empty?5name?$AA@ 100af8cc     KZOEVMAA.OBJ
 0003:0000c8ec       ??_C@_0BN@GMFL@GetViewByName?5Length?5Error?3?5?$AA@ 100af8ec     KZOEVMAA.OBJ
 0003:0000c910       ??_C@_0CM@BCGA@GetViewByName?5Invalid?5scope?5for?5@ 100af910     KZOEVMAA.OBJ
 0003:0000c944       ??_C@_0GN@MDJH@GetViewByName?5sending?5in?5view?5fo@ 100af944     KZOEVMAA.OBJ
 0003:0000c9c8       ??_C@_0HM@CFEK@GetViewByName?5sending?5in?5view?5fo@ 100af9c8     KZOEVMAA.OBJ
 0003:0000ca5c       ??_C@_08BNKB@OE?5Error?$AA@ 100afa5c     KZOEVMAA.OBJ
 0003:0000ca68       ??_C@_0CI@FIDN@GetViewByName?5now?5requires?5a?5val@ 100afa68     KZOEVMAA.OBJ
 0003:0000ca98       ??_C@_0BO@GLH@DropView?5?$CFs?3?50x?$CF08x?5?5?5LOD?3?5?$CFs?$AA@ 100afa98     KZOEVMAA.OBJ
 0003:0000cabc       ??_C@_0DA@FJAL@SfSetApplicationTask?5for?5App?3?5?$CFs@ 100afabc     KZOEVMAA.OBJ
 0003:0000caf8       ??_C@_0BO@DHAO@Houston?5?4?4?4?5we?5have?5a?5problem?$AA@ 100afaf8     KZOEVMAA.OBJ
 0003:0000cb1c       ??_C@_0P@CGJB@Recursive?5view?$AA@ 100afb1c     KZOEVMAA.OBJ
 0003:0000cb30       ??_C@_0GC@BDPF@SfTransferView?5trying?5to?5transfe@ 100afb30     KZOEVMAA.OBJ
 0003:0000cba8       ??_C@_0O@GNFE@SCOPE?5UNKNOWN?$AA@ 100afba8     KZOEVMAA.OBJ
 0003:0000cbb8       ??_C@_05CKBG@Error?$AA@    100afbb8     KZOEVMAA.OBJ
 0003:0000cbc0       ??_C@_0BI@EMIG@?$CIvm?$CJ?5Name?5cleanup?5error?$AA@ 100afbc0     KZOEVMAA.OBJ
 0003:0000cbdc       ??_C@_0BK@MIBK@Unexpected?5Invalid?5MainOI?$AA@ 100afbdc     KZOEVMAA.OBJ
 0003:0000cbfc       ??_C@_0BB@MGBG@fnDropView?5Error?$AA@ 100afbfc     KZOEVMAA.OBJ
 0003:0000cc10       ??_C@_0P@BDPD@MainOI?5Invalid?$AA@ 100afc10     KZOEVMAA.OBJ
 0003:0000cc24       ??_C@_0N@JDOC@Core?5Warning?$AA@ 100afc24     KZOEVMAA.OBJ
 0003:0000cc34       ??_C@_05BIEA@?$CIvm?$CJ?5?$AA@ 100afc34     KZOEVMAA.OBJ
 0003:0000cc3c       ??_C@_0DF@PNDH@View?5about?5to?5be?5dropped?5?$CI0x?$CF08x@ 100afc3c     KZOEVMAA.OBJ
 0003:0000cc7c       ??_C@_09DGDA@?4Subtask?4?$AA@ 100afc7c     KZOEVMAA.OBJ
 0003:0000cc88       ??_C@_0BK@OEDD@QuinSoft?5Internal?5Message?$AA@ 100afc88     KZOEVMAA.OBJ
 0003:0000cca8       ??_C@_0CM@KCDH@Root?5cursors?5don?8t?5match?4?5?5Conta@ 100afca8     KZOEVMAA.OBJ
 0003:0000ccdc       ??_C@_08MNDP@?5?$CFs?$DN?$CC?$CFs?$CC?$AA@ 100afcdc     KZOEXMLA.OBJ
 0003:0000cce8       ??_C@_0BN@CPNA@KEY?5WAS?5BLOB?5?9?5NOT?5SUPPORTED?$AA@ 100afce8     KZOEXMLA.OBJ
 0003:0000cd0c       ??_C@_05NLEO@?$DM?1?$CFs?$DO?$AA@ 100afd0c     KZOEXMLA.OBJ
 0003:0000cd14       ??_C@_08OJHJ@?$FN?$FN?$DO?$DM?1?$CFs?$DO?$AA@ 100afd14     KZOEXMLA.OBJ
 0003:0000cd20       ??_C@_04HDJJ@?5?$CFs?$DN?$AA@ 100afd20     KZOEXMLA.OBJ
 0003:0000cd28       ??_C@_09KJOA@?$DM?$CB?$FLCDATA?$FL?$AA@ 100afd28     KZOEXMLA.OBJ
 0003:0000cd34       ??_C@_0BC@KMBD@?5zIncreFlags?$DN?$CC?$CFs?$CC?$AA@ 100afd34     KZOEXMLA.OBJ
 0003:0000cd4c       ??_C@_02OOND@?4?4?$AA@     100afd4c     KZOEXMLA.OBJ
 0003:0000cd50       ??_C@_03IDOL@?$DM?$CFs?$AA@ 100afd50     KZOEXMLA.OBJ
 0003:0000cd54       ??_C@_0P@FFBM@?5zSelect?$CFd?$DN?$CCY?$CC?$AA@ 100afd54     KZOEXMLA.OBJ
 0003:0000cd68       ??_C@_0N@PCKP@?5zCursor?$DN?$CCY?$CC?$AA@ 100afd68     KZOEXMLA.OBJ
 0003:0000cd78       ??_C@_0N@CEJJ@?5zEKey?$DN?$CC?$CFlx?$CC?$AA@ 100afd78     KZOEXMLA.OBJ
 0003:0000cd88       ??_C@_08JLEF@?4?4?4?4?4?4?4?4?$AA@ 100afd88     KZOEXMLA.OBJ
 0003:0000cd94       ??_C@_0N@FDNE@?5zEName?$DN?$CC?$CFs?$CC?$AA@ 100afd94     KZOEXMLA.OBJ
 0003:0000cda4       ??_C@_0O@CLKD@?5zLevel?$DN?$CC?$CFld?$CC?$AA@ 100afda4     KZOEXMLA.OBJ
 0003:0000cdb4       ??_C@_04GGNJ@?$DM?$CFs?$DO?$AA@ 100afdb4     KZOEXMLA.OBJ
 0003:0000cdbc       ??_C@_0BC@PFOL@?$DM?1ListEntryValue?$DO?$AA@ 100afdbc     KZOEXMLA.OBJ
 0003:0000cdd4       ??_C@_0N@LFLB@CurrentValue?$AA@ 100afdd4     KZOEXMLA.OBJ
 0003:0000cde4       ??_C@_0BL@IJPH@?$DMListEntryValue?5Name?$DN?$CC?$CFs?$CC?$DO?$AA@ 100afde4     KZOEXMLA.OBJ
 0003:0000ce04       ??_C@_0L@DMN@?$DM?1Control?$DO?$AA@ 100afe04     KZOEXMLA.OBJ
 0003:0000ce14       ??_C@_0O@JKC@?$DM?1ComboValue?$DO?$AA@ 100afe14     KZOEXMLA.OBJ
 0003:0000ce24       ??_C@_0BK@MLPJ@?$DMComboValue?5zSelect1?$DN?$CCY?$CC?$DO?$AA@ 100afe24     KZOEXMLA.OBJ
 0003:0000ce44       ??_C@_0N@JEIO@?$DMComboValue?$DO?$AA@ 100afe44     KZOEXMLA.OBJ
 0003:0000ce54       ??_C@_0L@NDAB@ComboValue?$AA@ 100afe54     KZOEXMLA.OBJ
 0003:0000ce64       ??_C@_0N@BMND@?$DM?1ListEntry?$DO?$AA@ 100afe64     KZOEXMLA.OBJ
 0003:0000ce74       ??_C@_0BJ@IMJE@?$DMListEntry?5zSelect1?$DN?$CCY?$CC?$DO?$AA@ 100afe74     KZOEXMLA.OBJ
 0003:0000ce94       ??_C@_0M@DALI@?$DMListEntry?$DO?$AA@ 100afe94     KZOEXMLA.OBJ
 0003:0000cea4       ??_C@_09KHJE@ListEntry?$AA@ 100afea4     KZOEXMLA.OBJ
 0003:0000ceb0       ??_C@_0BO@GGBI@?$DMControl?5Name?$DN?$CC?$CFs?$CC?5Type?$DN?$CC?$CFs?$CC?$DO?$AA@ 100afeb0     KZOEXMLA.OBJ
 0003:0000ced4       ??_C@_0P@BABB@ListEntryValue?$AA@ 100afed4     KZOEXMLA.OBJ
 0003:0000cee8       ??_C@_07FNBF@Control?$AA@  100afee8     KZOEXMLA.OBJ
 0003:0000cef4       ??_C@_06EJFA@?$DM?1zOI?$DO?$AA@ 100afef4     KZOEXMLA.OBJ
 0003:0000cefc       ??_C@_05LOON@?$DMzOI?$DO?$AA@ 100afefc     KZOEXMLA.OBJ
 0003:0000cf04       ??_C@_0CF@FHBM@?$DMzOI?5zObjectName?$DN?$CC?$CFs?$CC?5zAppName?$DN?$CC@ 100aff04     KZOEXMLA.OBJ
 0003:0000cf30       ??_C@_0DF@PFPK@?$DMzOI?5zObjectName?$DN?$CC?$CFs?$CC?5zAppName?$DN?$CC@ 100aff30     KZOEXMLA.OBJ
 0003:0000cf70       ??_C@_0CM@DIIJ@?$DM?$DPxml?5version?$DN?$CC1?40?$CC?5encoding?$DN?$CCis@ 100aff70     KZOEXMLA.OBJ
 0003:0000cfa4       ??_C@_0BF@NAAN@?$CIxml?$CJ?5Attrib?5?$CFs?5?$DN?5?$CFs?$AA@ 100affa4     KZOEXMLA.OBJ
 0003:0000cfc0       ??_C@_0BB@FEMM@?$CIxml?$CJ?5Element?5?$DN?5?$AA@ 100affc0     KZOEXMLA.OBJ
 0003:0000cfd4       ??_C@_0M@DGBK@zIncreFlags?$AA@ 100affd4     KZOEXMLA.OBJ
 0003:0000cfe4       ??_C@_0M@DBIO@zObjectName?$AA@ 100affe4     KZOEXMLA.OBJ
 0003:0000cff4       ??_C@_08BKDG@zAppName?$AA@ 100afff4     KZOEXMLA.OBJ
 0003:0000d000       ??_C@_05NKPI@zEKey?$AA@    100b0000     KZOEXMLA.OBJ
 0003:0000d008       ??_C@_0L@NHGM@XML?5Parser?$AA@ 100b0008     KZOEXMLA.OBJ
 0003:0000d018       ??_C@_0DA@NBNK@?$CIxml?$CJ?5Parent?5mismatch?5?$CI?$CFs?5?$CB?$DN?5?$CFs?$CJ@ 100b0018     KZOEXMLA.OBJ
 0003:0000d054       ??_C@_0CN@IKCJ@?$CIxml?$CJ?5Could?5not?5find?5Entity?4Attr@ 100b0054     KZOEXMLA.OBJ
 0003:0000d08c       ??_C@_0DD@JDBG@?$CIxml?$CJ?5ERROR?5?9?5Attribute?5without?5@ 100b008c     KZOEXMLA.OBJ
 0003:0000d0cc       ??_C@_0DD@LKE@?$CIxml?$CJ?5Could?5not?5find?5Entity?4Simp@ 100b00cc     KZOEXMLA.OBJ
 0003:0000d10c       ??_C@_06GMHC@zEName?$AA@   100b010c     KZOEXMLA.OBJ
 0003:0000d114       ??_C@_0BL@BLNO@Located?5zLevel?5parsing?5XML?$AA@ 100b0114     KZOEXMLA.OBJ
 0003:0000d134       ??_C@_06PGCJ@zLevel?$AA@   100b0134     KZOEXMLA.OBJ
 0003:0000d13c       ??_C@_03PHMG@zOI?$AA@      100b013c     KZOEXMLA.OBJ
 0003:0000d140       ??_C@_0BI@NINK@Depth?5Error?5parsing?5XML?$AA@ 100b0140     KZOEXMLA.OBJ
 0003:0000d15c       ??_C@_0BC@ECNE@Error?5parsing?5XML?$AA@ 100b015c     KZOEXMLA.OBJ
 0003:0000d174       ??_C@_0BC@OPMH@?$CIxml?$CJ?5Error?5txt?3?5?$AA@ 100b0174     KZOEXMLA.OBJ
 0003:0000d18c       ??_C@_0O@OKDL@?$CFs?5at?5line?5?$CFd?$AA@ 100b018c     KZOEXMLA.OBJ
 0003:0000d19c       ??_C@_04BAFE@?$CF?$CKs?5?$AA@ 100b019c     KZOEXMLA.OBJ
 0003:0000d1a4       ??_C@_0CH@JMAI@Invalid?5view?5for?5CommitOI_ToXML_@ 100b01a4     KZOEXMLA.OBJ
 0003:0000d1d4       ??_C@_08GKEG@NLS_Text?$AA@ 100b01d4     KZWDLGXO.OBJ
 0003:0000d1e0       ??_C@_02BOLE@LI?$AA@       100b01e0     KZWDLGXO.OBJ
 0003:0000d1e4       ??_C@_04KEPD@Ctrl?$AA@     100b01e4     KZWDLGXO.OBJ
 0003:0000d1ec       ??_C@_03EPDK@NLS?$AA@      100b01ec     KZWDLGXO.OBJ
 0003:0000d1f0       ??_C@_03EKCM@Opt?$AA@      100b01f0     KZWDLGXO.OBJ
 0003:0000d1f4       ??_C@_07FMLO@Caption?$AA@  100b01f4     KZWDLGXO.OBJ
 0003:0000d200       ??_C@_03PKIB@Wnd?$AA@      100b0200     KZWDLGXO.OBJ
 0003:0000d204       ??_C@_03JPIP@DIL?$AA@      100b0204     KZWDLGXO.OBJ
 0003:0000d208       ??_C@_03IDDH@Msg?$AA@      100b0208     KZWDLGXO.OBJ
 0003:0000d20c       ??_C@_0N@GDDG@NLS_DIL_Text?$AA@ 100b020c     KZWDLGXO.OBJ
 0003:0000d21c       ?EncryptA@@3PAEA           100b021c     KZOEDECA.OBJ
 0003:0000d23c       ?EncryptB@@3PAEA           100b023c     KZOEDECA.OBJ
 0003:0000d25c       ?EncryptNonAlpha@@3PAEA    100b025c     KZOEDECA.OBJ
 0003:0000d304       ??_C@_0CJ@PAGH@Don2Cam9Pas1Gig3Dks5Dgc8Kat2Mik3@ 100b0304     KZOEDECA.OBJ
 0003:0000d338       ??_C@_0N@GGH@C?H?$CB?S?t?$LD?$BA?8?7?$KK?$BIV?$AA@ 100b0338     KZOEDECA.OBJ
 0003:0000d348       ??_C@_0BN@IECL@Null?5Error?5Encrypting?5String?$AA@ 100b0348     KZOEDECA.OBJ
 0003:0000d36c       ??_C@_0BP@MFLM@Length?5Error?5Encrypting?5String?$AA@ 100b036c     KZOEDECA.OBJ
 0003:0000d394       ??_C@_0CO@CCLB@Length?5Error?5Decrypting?5String?3?5@ 100b0394     KZOEDECA.OBJ
 0003:0000d3cc       ??_C@_0CL@KBOB@?$CIZDecimal?$CJ?5Error?5calling?5INIT?5fu@ 100b03cc     KZOEDECA.OBJ
 0003:0000d400       ??_C@_0BC@FJKM@zDecimalOperation?$AA@ 100b0400     KZOEDECA.OBJ
 0003:0000d418       _g_ZeidonMutexName         100b0418     KZOESYAA.OBJ
 0003:0000d458       _szlReleaseCompatible      100b0458     KZOESYAA.OBJ
 0003:0000d45c       _szlReleaseCurrent         100b045c     KZOESYAA.OBJ
 0003:0000d460       _szlShareSeg               100b0460     KZOESYAA.OBJ
 0003:0000d464       _g_ulMaxRecordStringLth    100b0464     KZOESYAA.OBJ
 0003:0000d468       _cDirSep                   100b0468     KZOESYAA.OBJ
 0003:0000d46c       _szObjectEngineName        100b046c     KZOESYAA.OBJ
 0003:0000d470       _szObjectEngineDll         100b0470     KZOESYAA.OBJ
 0003:0000d474       _szObjectSuffix            100b0474     KZOESYAA.OBJ
 0003:0000d478       _szDllSuffix               100b0478     KZOESYAA.OBJ
 0003:0000d47c       _szNullS                   100b047c     KZOESYAA.OBJ
 0003:0000d480       _lNullInteger              100b0480     KZOESYAA.OBJ
 0003:0000d484       _stNullDateTime            100b0484     KZOESYAA.OBJ
 0003:0000d48c       _szlZEIDON                 100b048c     KZOESYAA.OBJ
 0003:0000d490       _szlAppFile                100b0490     KZOESYAA.OBJ
 0003:0000d494       _szlDomainFile             100b0494     KZOESYAA.OBJ
 0003:0000d498       _szlSystemDomainFile       100b0498     KZOESYAA.OBJ
 0003:0000d49c       _szlMessageObject          100b049c     KZOESYAA.OBJ
 0003:0000d4a0       _szlNewPortableHeader      100b04a0     KZOESYAA.OBJ
 0003:0000d4a4       _szlmZeidon                100b04a4     KZOESYAA.OBJ
 0003:0000d4a8       _szlAPPLICATION            100b04a8     KZOESYAA.OBJ
 0003:0000d4ac       _szlOBJECT                 100b04ac     KZOESYAA.OBJ
 0003:0000d4b0       _szlENTITY                 100b04b0     KZOESYAA.OBJ
 0003:0000d4b4       _szlCHILDENTITY            100b04b4     KZOESYAA.OBJ
 0003:0000d4b8       _szlATTRIB                 100b04b8     KZOESYAA.OBJ
 0003:0000d4bc       _szlDOMAIN                 100b04bc     KZOESYAA.OBJ
 0003:0000d4c0       _szlMODEL                  100b04c0     KZOESYAA.OBJ
 0003:0000d4c4       _szlCONTEXT                100b04c4     KZOESYAA.OBJ
 0003:0000d4c8       _szlNLS_TABLEENTRY         100b04c8     KZOESYAA.OBJ
 0003:0000d4cc       _szlTABLEENTRY             100b04cc     KZOESYAA.OBJ
 0003:0000d4d0       _szlREGULAREXPRESSION      100b04d0     KZOESYAA.OBJ
 0003:0000d4d4       _szlZEIDON_BIN             100b04d4     KZOESYAA.OBJ
 0003:0000d4d8       _szlZEIDON_SYS             100b04d8     KZOESYAA.OBJ
 0003:0000d4dc       _szlZEIDON_LOC             100b04dc     KZOESYAA.OBJ
 0003:0000d4e0       _szlZEIDON_SHR             100b04e0     KZOESYAA.OBJ
 0003:0000d4e4       _szlAPP_NAME               100b04e4     KZOESYAA.OBJ
 0003:0000d4e8       _szlAPP_DFLT_Dialog        100b04e8     KZOESYAA.OBJ
 0003:0000d4ec       _szlAPP_DLL                100b04ec     KZOESYAA.OBJ
 0003:0000d4f0       _szlAPP_ADOBIN             100b04f0     KZOESYAA.OBJ
 0003:0000d4f4       _szlAPP_LOCAL              100b04f4     KZOESYAA.OBJ
 0003:0000d4f8       _szlAPP_SHARED             100b04f8     KZOESYAA.OBJ
 0003:0000d4fc       _szlAPP_QLPLR              100b04fc     KZOESYAA.OBJ
 0003:0000d500       _szlAPP_QXODS              100b0500     KZOESYAA.OBJ
 0003:0000d504       _szlAPP_SOURCE             100b0504     KZOESYAA.OBJ
 0003:0000d508       _szlAPDM_TOK               100b0508     KZOESYAA.OBJ
 0003:0000d50c       _szlATTRIBUTETYPE          100b050c     KZOESYAA.OBJ
 0003:0000d510       _szlATTRIBUTEDECIMAL       100b0510     KZOESYAA.OBJ
 0003:0000d514       _szlAUTOCREATE             100b0514     KZOESYAA.OBJ
 0003:0000d518       _szlAUTOLOADFROMPARENT     100b0518     KZOESYAA.OBJ
 0003:0000d51c       _szlAUTO_SEQ               100b051c     KZOESYAA.OBJ
 0003:0000d520       _szlXVAATT_TOK             100b0520     KZOESYAA.OBJ
 0003:0000d524       _szlCARDMAX                100b0524     KZOESYAA.OBJ
 0003:0000d528       _szlCARDMIN                100b0528     KZOESYAA.OBJ
 0003:0000d52c       _szlCASESENS               100b052c     KZOESYAA.OBJ
 0003:0000d530       _szlCONTEXTRESTRICTION     100b0530     KZOESYAA.OBJ
 0003:0000d534       _szlCREATE                 100b0534     KZOESYAA.OBJ
 0003:0000d538       _szlCR_DATE                100b0538     KZOESYAA.OBJ
 0003:0000d53c       _szlDATAFIELD              100b053c     KZOESYAA.OBJ
 0003:0000d540       _szlDATARECORD             100b0540     KZOESYAA.OBJ
 0003:0000d544       _szlDATATYPE               100b0544     KZOESYAA.OBJ
 0003:0000d548       _szlDBNAME                 100b0548     KZOESYAA.OBJ
 0003:0000d54c       _szlDECIMAL                100b054c     KZOESYAA.OBJ
 0003:0000d550       _szlDECIMALFORMAT          100b0550     KZOESYAA.OBJ
 0003:0000d554       _szlDELETE                 100b0554     KZOESYAA.OBJ
 0003:0000d558       _szlDERIVED                100b0558     KZOESYAA.OBJ
 0003:0000d55c       _szlDERIVEDF               100b055c     KZOESYAA.OBJ
 0003:0000d560       _szlDFT_DBNAME             100b0560     KZOESYAA.OBJ
 0003:0000d564       _szlDFT_SERVER             100b0564     KZOESYAA.OBJ
 0003:0000d568       _szlDLL_NAME               100b0568     KZOESYAA.OBJ
 0003:0000d56c       _szlDOMAINTYPE             100b056c     KZOESYAA.OBJ
 0003:0000d570       _szlDUPENTIN               100b0570     KZOESYAA.OBJ
 0003:0000d574       _szlDUPRELIN               100b0574     KZOESYAA.OBJ
 0003:0000d578       _szlECACC                  100b0578     KZOESYAA.OBJ
 0003:0000d57c       _szlECCAN                  100b057c     KZOESYAA.OBJ
 0003:0000d580       _szlECCR                   100b0580     KZOESYAA.OBJ
 0003:0000d584       _szlECDEL                  100b0584     KZOESYAA.OBJ
 0003:0000d588       _szlECEOPER                100b0588     KZOESYAA.OBJ
 0003:0000d58c       _szlECEXC                  100b058c     KZOESYAA.OBJ
 0003:0000d590       _szlECINC                  100b0590     KZOESYAA.OBJ
 0003:0000d594       _szlEDITSTRING             100b0594     KZOESYAA.OBJ
 0003:0000d598       _szlERATT_TOK              100b0598     KZOESYAA.OBJ
 0003:0000d59c       _szlEntityName             100b059c     KZOESYAA.OBJ
 0003:0000d5a0       _szlEntitySpec             100b05a0     KZOESYAA.OBJ
 0003:0000d5a4       _szlERENT_TOK              100b05a4     KZOESYAA.OBJ
 0003:0000d5a8       _szlERREL_LINK             100b05a8     KZOESYAA.OBJ
 0003:0000d5ac       _szlERREL_TOK              100b05ac     KZOESYAA.OBJ
 0003:0000d5b0       _szlEXCLUDE                100b05b0     KZOESYAA.OBJ
 0003:0000d5b4       _szlEXTERNALVALUE          100b05b4     KZOESYAA.OBJ
 0003:0000d5b8       _szlFLDID                  100b05b8     KZOESYAA.OBJ
 0003:0000d5bc       _szlFLDLTH                 100b05bc     KZOESYAA.OBJ
 0003:0000d5c0       _szlFLDNAME                100b05c0     KZOESYAA.OBJ
 0003:0000d5c4       _szlFLDOFFSET              100b05c4     KZOESYAA.OBJ
 0003:0000d5c8       _szlFLDTYPE                100b05c8     KZOESYAA.OBJ
 0003:0000d5cc       _szlFULLPERSIST            100b05cc     KZOESYAA.OBJ
 0003:0000d5d0       _szlGENKEY                 100b05d0     KZOESYAA.OBJ
 0003:0000d5d4       _szlGKHANDLER              100b05d4     KZOESYAA.OBJ
 0003:0000d5d8       _szlHANDLER                100b05d8     KZOESYAA.OBJ
 0003:0000d5dc       _szlHIDDEN                 100b05dc     KZOESYAA.OBJ
 0003:0000d5e0       _szlId                     100b05e0     KZOESYAA.OBJ
 0003:0000d5e4       _szlINCLSRC                100b05e4     KZOESYAA.OBJ
 0003:0000d5e8       _szlINCLUDE                100b05e8     KZOESYAA.OBJ
 0003:0000d5ec       _szlINCRLOAD               100b05ec     KZOESYAA.OBJ
 0003:0000d5f0       _szlINIT                   100b05f0     KZOESYAA.OBJ
 0003:0000d5f4       _szlINTERNALVALUE          100b05f4     KZOESYAA.OBJ
 0003:0000d5f8       _szlISDEFAULT              100b05f8     KZOESYAA.OBJ
 0003:0000d5fc       _szlKEY                    100b05fc     KZOESYAA.OBJ
 0003:0000d600       _szlLanguageIndex          100b0600     KZOESYAA.OBJ
 0003:0000d604       _szlLNAME                  100b0604     KZOESYAA.OBJ
 0003:0000d608       _szlLOCK                   100b0608     KZOESYAA.OBJ
 0003:0000d60c       _szlLTH                    100b060c     KZOESYAA.OBJ
 0003:0000d610       _szlMAXSTRINGLTH           100b0610     KZOESYAA.OBJ
 0003:0000d614       _szlMR_LIMIT               100b0614     KZOESYAA.OBJ
 0003:0000d618       _szl__MSGQ                 100b0618     KZOESYAA.OBJ
 0003:0000d61c       _szlNAME                   100b061c     KZOESYAA.OBJ
 0003:0000d620       _szlNETCOMPRESS            100b0620     KZOESYAA.OBJ
 0003:0000d624       _szlNETWORK                100b0624     KZOESYAA.OBJ
 0003:0000d628       _szlNumAtts                100b0628     KZOESYAA.OBJ
 0003:0000d62c       _szlNumEnts                100b062c     KZOESYAA.OBJ
 0003:0000d630       _szlNumRels                100b0630     KZOESYAA.OBJ
 0003:0000d634       _szlOCACT                  100b0634     KZOESYAA.OBJ
 0003:0000d638       _szlOCACTE                 100b0638     KZOESYAA.OBJ
 0003:0000d63c       _szlOCCOM                  100b063c     KZOESYAA.OBJ
 0003:0000d640       _szlOCDROP                 100b0640     KZOESYAA.OBJ
 0003:0000d644       _szlOCEOPER                100b0644     KZOESYAA.OBJ
 0003:0000d648       _szlOFRECID                100b0648     KZOESYAA.OBJ
 0003:0000d64c       _szlOFBUFSZ                100b064c     KZOESYAA.OBJ
 0003:0000d650       _szlOPER_LIBNM             100b0650     KZOESYAA.OBJ
 0003:0000d654       _szlOper                   100b0654     KZOESYAA.OBJ
 0003:0000d658       _szlOWNER_MEMB             100b0658     KZOESYAA.OBJ
 0003:0000d65c       _szlPDELETE                100b065c     KZOESYAA.OBJ
 0003:0000d660       _szlPERSIST                100b0660     KZOESYAA.OBJ
 0003:0000d664       _szlPNAME                  100b0664     KZOESYAA.OBJ
 0003:0000d668       _szlQualAttrib             100b0668     KZOESYAA.OBJ
 0003:0000d66c       _szlRECID                  100b066c     KZOESYAA.OBJ
 0003:0000d670       _szlRECNAME                100b0670     KZOESYAA.OBJ
 0003:0000d674       _szlRECURSIVE              100b0674     KZOESYAA.OBJ
 0003:0000d678       _szlREL                    100b0678     KZOESYAA.OBJ
 0003:0000d67c       _szlRELFIELD               100b067c     KZOESYAA.OBJ
 0003:0000d680       _szlRELRECORD              100b0680     KZOESYAA.OBJ
 0003:0000d684       _szlRELXVAATT_TOK          100b0684     KZOESYAA.OBJ
 0003:0000d688       _szlREQUIRED               100b0688     KZOESYAA.OBJ
 0003:0000d68c       _szlRESTRICTED             100b068c     KZOESYAA.OBJ
 0003:0000d690       _szlSERVER                 100b0690     KZOESYAA.OBJ
 0003:0000d694       _szlSEQUENCING             100b0694     KZOESYAA.OBJ
 0003:0000d698       _szlSEQ_AD                 100b0698     KZOESYAA.OBJ
 0003:0000d69c       _szlSETID1                 100b069c     KZOESYAA.OBJ
 0003:0000d6a0       _szlSETID2                 100b06a0     KZOESYAA.OBJ
 0003:0000d6a4       _szlSETNAME1               100b06a4     KZOESYAA.OBJ
 0003:0000d6a8       _szlSETNAME2               100b06a8     KZOESYAA.OBJ
 0003:0000d6ac       _szlSRCXVAATT_TOK          100b06ac     KZOESYAA.OBJ
 0003:0000d6b0       _szlTask                   100b06b0     KZOESYAA.OBJ
 0003:0000d6b4       _szlText                   100b06b4     KZOESYAA.OBJ
 0003:0000d6b8       _szlTYPE                   100b06b8     KZOESYAA.OBJ
 0003:0000d6bc       _szlUP_DATE                100b06bc     KZOESYAA.OBJ
 0003:0000d6c0       _szlUSERID                 100b06c0     KZOESYAA.OBJ
 0003:0000d6c4       _szlUPDATE                 100b06c4     KZOESYAA.OBJ
 0003:0000d6c8       _szlZKEY                   100b06c8     KZOESYAA.OBJ
 0003:0000d6cc       _szlApplicationLogicError  100b06cc     KZOESYAA.OBJ
 0003:0000d6d0       _szlDataValidationError    100b06d0     KZOESYAA.OBJ
 0003:0000d6d4       _szlOE_SystemError         100b06d4     KZOESYAA.OBJ
 0003:0000d6d8       _szlAFTER                  100b06d8     KZOESYAA.OBJ
 0003:0000d6dc       _szlBEFORE                 100b06dc     KZOESYAA.OBJ
 0003:0000d6e0       _g_pchMQI                  100b06e0     KZOESYAA.OBJ
 0003:0000d6f0       _szGAFANullS               100b06f0     KZOESYAA.OBJ
 0003:0000d6f4       _g_pchMon                  100b06f4     KZOESYAA.OBJ
 0003:0000d724       _g_pchDOW                  100b0724     KZOESYAA.OBJ
 0003:0000d740       _szlINTL                   100b0740     KZOESYAA.OBJ
 0003:0000d744       _szlICOUNTRY               100b0744     KZOESYAA.OBJ
 0003:0000d748       _szlSCOUNTRY               100b0748     KZOESYAA.OBJ
 0003:0000d74c       _szlSLANGUAGE              100b074c     KZOESYAA.OBJ
 0003:0000d750       _szlSLIST                  100b0750     KZOESYAA.OBJ
 0003:0000d754       _szlIMEASURE               100b0754     KZOESYAA.OBJ
 0003:0000d758       _szlITIME                  100b0758     KZOESYAA.OBJ
 0003:0000d75c       _szlSTIME                  100b075c     KZOESYAA.OBJ
 0003:0000d760       _szlS1159                  100b0760     KZOESYAA.OBJ
 0003:0000d764       _szlS2359                  100b0764     KZOESYAA.OBJ
 0003:0000d768       _szlITLZERO                100b0768     KZOESYAA.OBJ
 0003:0000d76c       _szlSSHORTDATE             100b076c     KZOESYAA.OBJ
 0003:0000d770       _szlSLONGDATE              100b0770     KZOESYAA.OBJ
 0003:0000d774       _szlSCURRENCY              100b0774     KZOESYAA.OBJ
 0003:0000d778       _szlICURRENCY              100b0778     KZOESYAA.OBJ
 0003:0000d77c       _szlICURRDIGITS            100b077c     KZOESYAA.OBJ
 0003:0000d780       _szlINEGCURR               100b0780     KZOESYAA.OBJ
 0003:0000d784       _szlSTHOUSAND              100b0784     KZOESYAA.OBJ
 0003:0000d788       _szlSDECIMAL               100b0788     KZOESYAA.OBJ
 0003:0000d78c       _szlIDIGITS                100b078c     KZOESYAA.OBJ
 0003:0000d790       _szlILZERO                 100b0790     KZOESYAA.OBJ
 0003:0000d794       _g_bWin95                  100b0794     KZOESYAA.OBJ
 0003:0000d798       _szlNT_ThreadClassName     100b0798     KZOESYAA.OBJ
 0003:0000d7b0       _g_lProcessIdx             100b07b0     KZOESYAA.OBJ
 0003:0000d87c       ??_C@_0BK@IOBH@CommitSubobjectToXML_File?$AA@ 100b087c     KZOESYAA.OBJ
 0003:0000d89c       ??_C@_0BE@MMDJ@WriteSubobjectToXML?$AA@ 100b089c     KZOESYAA.OBJ
 0003:0000d8b4       ??_C@_0O@NLM@WriteOI_ToXML?$AA@ 100b08b4     KZOESYAA.OBJ
 0003:0000d8c4       ??_C@_0BL@JILI@GenerateQualFromEntityList?$AA@ 100b08c4     KZOESYAA.OBJ
 0003:0000d8e4       ??_C@_0BE@HLHF@SfCheckOI_Integrity?$AA@ 100b08e4     KZOESYAA.OBJ
 0003:0000d8fc       ??_C@_0BA@HHIJ@WriteBlobToFile?$AA@ 100b08fc     KZOESYAA.OBJ
 0003:0000d910       ??_C@_0BA@NAKK@SetBlobFromFile?$AA@ 100b0910     KZOESYAA.OBJ
 0003:0000d924       ??_C@_0BK@GACK@GetIncrementalUpdateFlags?$AA@ 100b0924     KZOESYAA.OBJ
 0003:0000d944       ??_C@_0BK@PDEP@SetIncrementalUpdateFlags?$AA@ 100b0944     KZOESYAA.OBJ
 0003:0000d964       ??_C@_0M@BMMC@NetSendFile?$AA@ 100b0964     KZOESYAA.OBJ
 0003:0000d974       ??_C@_0BH@KJLN@NetGetLocalHostAddress?$AA@ 100b0974     KZOESYAA.OBJ
 0003:0000d990       ??_C@_0BB@DPLM@NetCallOperation?$AA@ 100b0990     KZOESYAA.OBJ
 0003:0000d9a4       ??_C@_0BF@HCAL@NetSendBootstrapFile?$AA@ 100b09a4     KZOESYAA.OBJ
 0003:0000d9c0       ??_C@_0BH@FKGD@NetActivateOI_FromFile?$AA@ 100b09c0     KZOESYAA.OBJ
 0003:0000d9dc       ??_C@_0BD@IGEP@NetCommitOI_ToFile?$AA@ 100b09dc     KZOESYAA.OBJ
 0003:0000d9f4       ??_C@_0BC@EMEG@NetProcessMessage?$AA@ 100b09f4     KZOESYAA.OBJ
 0003:0000da0c       ??_C@_09MBHB@NetStatus?$AA@ 100b0a0c     KZOESYAA.OBJ
 0003:0000da18       ??_C@_0L@BIJE@NetStartup?$AA@ 100b0a18     KZOESYAA.OBJ
 0003:0000da28       ??_C@_0BB@KEJB@NetSetTraceLevel?$AA@ 100b0a28     KZOESYAA.OBJ
 0003:0000da3c       ??_C@_0O@KDCL@NetStopListen?$AA@ 100b0a3c     KZOESYAA.OBJ
 0003:0000da4c       ??_C@_09HFPC@NetListen?$AA@ 100b0a4c     KZOESYAA.OBJ
 0003:0000da58       ??_C@_0BB@PHPI@NetGetTraceLevel?$AA@ 100b0a58     KZOESYAA.OBJ
 0003:0000da6c       ??_C@_0M@DLBE@NetCommitOI?$AA@ 100b0a6c     KZOESYAA.OBJ
 0003:0000da7c       ??_C@_08FBGD@NetClose?$AA@ 100b0a7c     KZOESYAA.OBJ
 0003:0000da88       ??_C@_0O@CJIE@NetActivateOI?$AA@ 100b0a88     KZOESYAA.OBJ
 0003:0000da98       ??_C@_0BK@FFIH@MiGetCardinalityForEntity?$AA@ 100b0a98     KZOESYAA.OBJ
 0003:0000dab8       ??_C@_0BK@NCOA@GetAttributeDisplayLength?$AA@ 100b0ab8     KZOESYAA.OBJ
 0003:0000dad8       ??_C@_0BA@GNDO@UfAddToDateTime?$AA@ 100b0ad8     KZOESYAA.OBJ
 0003:0000daec       ??_C@_0BH@KJIK@MiGetViewEntityForView?$AA@ 100b0aec     KZOESYAA.OBJ
 0003:0000db08       ??_C@_0BG@FHHI@MiGetERTokenForEntity?$AA@ 100b0b08     KZOESYAA.OBJ
 0003:0000db24       ??_C@_0BD@DOBB@MiGetDateTimeForOI?$AA@ 100b0b24     KZOESYAA.OBJ
 0003:0000db3c       ??_C@_0BI@INOA@MiGetInstanceID_ForView?$AA@ 100b0b3c     KZOESYAA.OBJ
 0003:0000db58       ??_C@_0BD@KBO@MiGetUpdateForView?$AA@ 100b0b58     KZOESYAA.OBJ
 0003:0000db70       ??_C@_0BL@BKNM@MiGetTemporalStateOfEntity?$AA@ 100b0b70     KZOESYAA.OBJ
 0003:0000db90       ??_C@_0P@HGJE@MessagePresent?$AA@ 100b0b90     KZOESYAA.OBJ
 0003:0000dba4       ??_C@_0BG@MCGA@MessagePromptForInput?$AA@ 100b0ba4     KZOESYAA.OBJ
 0003:0000dbc0       ??_C@_0O@CLJA@MessagePrompt?$AA@ 100b0bc0     KZOESYAA.OBJ
 0003:0000dbd0       ??_C@_0M@PBLM@MessageSend?$AA@ 100b0bd0     KZOESYAA.OBJ
 0003:0000dbe0       ??_C@_0BN@GOEA@MiGetUpdateForViewEntityAttr?$AA@ 100b0be0     KZOESYAA.OBJ
 0003:0000dc04       ??_C@_0BO@HLCK@OrderEntitiesByDefaultAttribs?$AA@ 100b0c04     KZOESYAA.OBJ
 0003:0000dc28       ??_C@_0BJ@DLHM@OrderOI_ByDefaultAttribs?$AA@ 100b0c28     KZOESYAA.OBJ
 0003:0000dc48       ??_C@_0BF@JPO@CountEntitiesForView?$AA@ 100b0c48     KZOESYAA.OBJ
 0003:0000dc64       ??_C@_0BD@LLOG@OrderEntityForView?$AA@ 100b0c64     KZOESYAA.OBJ
 0003:0000dc7c       ??_C@_0BK@EINL@SetCursorAbsolutePosition?$AA@ 100b0c7c     KZOESYAA.OBJ
 0003:0000dc9c       ??_C@_0CA@CBHE@GetEntityNameForHierarchicalCsr?$AA@ 100b0c9c     KZOESYAA.OBJ
 0003:0000dcc4       ??_C@_0BN@GHM@GetAbsolutePositionForEntity?$AA@ 100b0cc4     KZOESYAA.OBJ
 0003:0000dce8       ??_C@_0BL@NCHN@SetTaskDBHandlerTraceLevel?$AA@ 100b0ce8     KZOESYAA.OBJ
 0003:0000dd08       ??_C@_0BL@PCOO@GetTaskDBHandlerTraceLevel?$AA@ 100b0d08     KZOESYAA.OBJ
 0003:0000dd28       ??_C@_0BN@FOCF@MiGetParentEntityNameForView?$AA@ 100b0d28     KZOESYAA.OBJ
 0003:0000dd4c       ??_C@_0BC@CMGB@GetAddrFromRecord?$AA@ 100b0d4c     KZOESYAA.OBJ
 0003:0000dd64       ??_C@_0BA@KGPF@SetEntityCursor?$AA@ 100b0d64     KZOESYAA.OBJ
 0003:0000dd78       ??_C@_0BE@MENK@GetStringFromRecord?$AA@ 100b0d78     KZOESYAA.OBJ
 0003:0000dd90       ??_C@_0BE@DIAC@StoreStringInRecord?$AA@ 100b0d90     KZOESYAA.OBJ
 0003:0000dda8       ??_C@_0BD@LHCP@GetValueFromRecord?$AA@ 100b0da8     KZOESYAA.OBJ
 0003:0000ddc0       ??_C@_0BO@OOBH@ObjectInstanceUpdatedFromFile?$AA@ 100b0dc0     KZOESYAA.OBJ
 0003:0000dde4       ??_C@_0BG@PEI@ObjectInstanceUpdated?$AA@ 100b0de4     KZOESYAA.OBJ
 0003:0000de00       ??_C@_0L@PDG@LoadEntity?$AA@ 100b0e00     KZOESYAA.OBJ
 0003:0000de10       ??_C@_0BJ@HAMO@RelinkAllSubobjectsForOI?$AA@ 100b0e10     KZOESYAA.OBJ
 0003:0000de30       ??_C@_0BJ@NKAP@RelinkInstanceToInstance?$AA@ 100b0e30     KZOESYAA.OBJ
 0003:0000de50       ??_C@_0BH@IMDL@SetSelectStateOfEntity?$AA@ 100b0e50     KZOESYAA.OBJ
 0003:0000de6c       ??_C@_0BM@JBLI@SetAllSelectStatesForEntity?$AA@ 100b0e6c     KZOESYAA.OBJ
 0003:0000de90       ??_C@_0BH@EPHO@GetSelectStateOfEntity?$AA@ 100b0e90     KZOESYAA.OBJ
 0003:0000deac       ??_C@_0BE@OKMC@SetSelectSetForView?$AA@ 100b0eac     KZOESYAA.OBJ
 0003:0000dec4       ??_C@_0BL@HNKN@TableEntryForInternalValue?$AA@ 100b0ec4     KZOESYAA.OBJ
 0003:0000dee4       ??_C@_0BD@DNNI@TableEntryIntToExt?$AA@ 100b0ee4     KZOESYAA.OBJ
 0003:0000defc       ??_C@_0BD@JHII@TableEntryExtToInt?$AA@ 100b0efc     KZOESYAA.OBJ
 0003:0000df14       ??_C@_0BN@EHIH@StoreValueInDerivedAttribute?$AA@ 100b0f14     KZOESYAA.OBJ
 0003:0000df38       ??_C@_0BD@FKMI@StoreValueInRecord?$AA@ 100b0f38     KZOESYAA.OBJ
 0003:0000df50       ??_C@_0BC@KOIM@DisplayCursorInfo?$AA@ 100b0f50     KZOESYAA.OBJ
 0003:0000df68       ??_C@_0BG@KOPK@DisplayObjectInstance?$AA@ 100b0f68     KZOESYAA.OBJ
 0003:0000df84       ??_C@_0BG@ILIL@DisplayEntityInstance?$AA@ 100b0f84     KZOESYAA.OBJ
 0003:0000dfa0       ??_C@_0BO@BHMO@GetNextTableEntryForAttribute?$AA@ 100b0fa0     KZOESYAA.OBJ
 0003:0000dfc4       ??_C@_0BP@FLBC@GetFirstTableEntryForAttribute?$AA@ 100b0fc4     KZOESYAA.OBJ
 0003:0000dfec       ??_C@_0BM@PHGL@SetMatchingAttributesByName?$AA@ 100b0fec     KZOESYAA.OBJ
 0003:0000e010       ??_C@_0BD@HIDA@GetAttributeLength?$AA@ 100b1010     KZOESYAA.OBJ
 0003:0000e028       ??_C@_0BL@OCPN@CompareAttributeToVariable?$AA@ 100b1028     KZOESYAA.OBJ
 0003:0000e048       ??_C@_0BM@OPHA@CompareAttributeToAttribute?$AA@ 100b1048     KZOESYAA.OBJ
 0003:0000e06c       ??_C@_0BK@LFID@CompareAttributeToDecimal?$AA@ 100b106c     KZOESYAA.OBJ
 0003:0000e08c       ??_C@_0BK@PHPD@CompareAttributeToInteger?$AA@ 100b108c     KZOESYAA.OBJ
 0003:0000e0ac       ??_C@_0BJ@ODPJ@CompareAttributeToString?$AA@ 100b10ac     KZOESYAA.OBJ
 0003:0000e0cc       ??_C@_0BL@DLKH@AddToAttributeFromVariable?$AA@ 100b10cc     KZOESYAA.OBJ
 0003:0000e0ec       ??_C@_0BM@CKKJ@AddToAttributeFromAttribute?$AA@ 100b10ec     KZOESYAA.OBJ
 0003:0000e110       ??_C@_0BK@OPAC@AddToAttributeFromDecimal?$AA@ 100b1110     KZOESYAA.OBJ
 0003:0000e130       ??_C@_0BK@KNHC@AddToAttributeFromInteger?$AA@ 100b1130     KZOESYAA.OBJ
 0003:0000e150       ??_C@_0BM@MJNM@SetBlobFromEntityAttributes?$AA@ 100b1150     KZOESYAA.OBJ
 0003:0000e174       ??_C@_0BM@CGCL@SetEntityAttributesFromBlob?$AA@ 100b1174     KZOESYAA.OBJ
 0003:0000e198       ??_C@_0BO@JAKJ@SetBlobAttributeFromAttribute?$AA@ 100b1198     KZOESYAA.OBJ
 0003:0000e1bc       ??_C@_0BG@FODI@SetAttributeValuePrev?$AA@ 100b11bc     KZOESYAA.OBJ
 0003:0000e1d8       ??_C@_0BG@KHLN@SetAttributeValueNext?$AA@ 100b11d8     KZOESYAA.OBJ
 0003:0000e1f4       ??_C@_0BJ@OEAI@SetAttributeFromVariable?$AA@ 100b11f4     KZOESYAA.OBJ
 0003:0000e214       ??_C@_0BM@PBPK@SetAttributeFromCurrentDate?$AA@ 100b1214     KZOESYAA.OBJ
 0003:0000e238       ??_C@_0BK@MLHG@SetAttributeFromAttribute?$AA@ 100b1238     KZOESYAA.OBJ
 0003:0000e258       ??_C@_0BF@JCLE@SetAttributeFromBlob?$AA@ 100b1258     KZOESYAA.OBJ
 0003:0000e274       ??_C@_0BI@EAKM@SetAttributeFromDecimal?$AA@ 100b1274     KZOESYAA.OBJ
 0003:0000e290       ??_C@_0BI@CNM@SetAttributeFromInteger?$AA@ 100b1290     KZOESYAA.OBJ
 0003:0000e2ac       ??_C@_0BH@MMIK@SetAttributeFromString?$AA@ 100b12ac     KZOESYAA.OBJ
 0003:0000e2c8       ??_C@_0BJ@IFI@GetVariableFromAttribute?$AA@ 100b12c8     KZOESYAA.OBJ
 0003:0000e2e8       ??_C@_0BE@PNDJ@GetAddrForAttribute?$AA@ 100b12e8     KZOESYAA.OBJ
 0003:0000e300       ??_C@_0BJ@HIGG@GetStructFromEntityAttrs?$AA@ 100b1300     KZOESYAA.OBJ
 0003:0000e320       ??_C@_0BF@MHPH@GetBlobFromAttribute?$AA@ 100b1320     KZOESYAA.OBJ
 0003:0000e33c       ??_C@_0BI@DCJK@GetDecimalFromAttribute?$AA@ 100b133c     KZOESYAA.OBJ
 0003:0000e358       ??_C@_0BI@FFJB@GetIntegerFromAttribute?$AA@ 100b1358     KZOESYAA.OBJ
 0003:0000e374       ??_C@_0BH@IPDO@GetStringFromAttribute?$AA@ 100b1374     KZOESYAA.OBJ
 0003:0000e390       ??_C@_0BB@CLPD@AttributeUpdated?$AA@ 100b1390     KZOESYAA.OBJ
 0003:0000e3a4       ??_C@_0BC@JNFA@GetAttributeFlags?$AA@ 100b13a4     KZOESYAA.OBJ
 0003:0000e3bc       ??_C@_0P@CBLC@DropViewObject?$AA@ 100b13bc     KZOESYAA.OBJ
 0003:0000e3d0       ??_C@_0N@BBKK@GetViewFlags?$AA@ 100b13d0     KZOESYAA.OBJ
 0003:0000e3e0       ??_C@_0N@HIKI@SetViewFlags?$AA@ 100b13e0     KZOESYAA.OBJ
 0003:0000e3f0       ??_C@_0BA@GCHM@SetViewReadOnly?$AA@ 100b13f0     KZOESYAA.OBJ
 0003:0000e404       ??_C@_08JNKD@DropView?$AA@ 100b1404     KZOESYAA.OBJ
 0003:0000e410       ??_C@_09MKAH@ResetView?$AA@ 100b1410     KZOESYAA.OBJ
 0003:0000e41c       ??_C@_0L@HDM@SfLockView?$AA@ 100b141c     KZOESYAA.OBJ
 0003:0000e42c       ??_C@_0P@EIOP@SfTransferView?$AA@ 100b142c     KZOESYAA.OBJ
 0003:0000e440       ??_C@_0BF@INMF@SfGetNextSubtaskView?$AA@ 100b1440     KZOESYAA.OBJ
 0003:0000e45c       ??_C@_0BG@FIPH@SfGetFirstSubtaskView?$AA@ 100b145c     KZOESYAA.OBJ
 0003:0000e478       ??_C@_0P@KFDN@GetNameForView?$AA@ 100b1478     KZOESYAA.OBJ
 0003:0000e48c       ??_C@_0P@NAIK@SetSubtaskView?$AA@ 100b148c     KZOESYAA.OBJ
 0003:0000e4a0       ??_C@_0O@LOIG@GetViewByName?$AA@ 100b14a0     KZOESYAA.OBJ
 0003:0000e4b0       ??_C@_0BA@LHJJ@DropNameForView?$AA@ 100b14b0     KZOESYAA.OBJ
 0003:0000e4c4       ??_C@_0P@CBGO@SetNameForView?$AA@ 100b14c4     KZOESYAA.OBJ
 0003:0000e4d8       ??_C@_0BH@EJFL@ResetViewFromSubobject?$AA@ 100b14d8     KZOESYAA.OBJ
 0003:0000e4f4       ??_C@_0BD@MNMP@SetViewToSubobject?$AA@ 100b14f4     KZOESYAA.OBJ
 0003:0000e50c       ??_C@_0BA@HNOF@SetViewFromView?$AA@ 100b150c     KZOESYAA.OBJ
 0003:0000e520       ??_C@_0BD@OPGJ@CreateViewFromView?$AA@ 100b1520     KZOESYAA.OBJ
 0003:0000e538       ??_C@_0CA@CHCH@SetCursorNextEntityHierarchical?$AA@ 100b1538     KZOESYAA.OBJ
 0003:0000e560       ??_C@_0BH@COPC@DropHierarchicalCursor?$AA@ 100b1560     KZOESYAA.OBJ
 0003:0000e57c       ??_C@_0BJ@EJOC@DefineHierarchicalCursor?$AA@ 100b157c     KZOESYAA.OBJ
 0003:0000e59c       ??_C@_0BI@DKDE@GetRelativeEntityNumber?$AA@ 100b159c     KZOESYAA.OBJ
 0003:0000e5b8       ??_C@_0BI@GCJI@SetCursorRelativeEntity?$AA@ 100b15b8     KZOESYAA.OBJ
 0003:0000e5d4       ??_C@_0BM@IBKE@SetCursorNextSelectedEntity?$AA@ 100b15d4     KZOESYAA.OBJ
 0003:0000e5f8       ??_C@_0BN@EMBJ@SetCursorFirstSelectedEntity?$AA@ 100b15f8     KZOESYAA.OBJ
 0003:0000e61c       ??_C@_0BP@FIAL@SetCursorNextEntityByEntityCsr?$AA@ 100b161c     KZOESYAA.OBJ
 0003:0000e644       ??_C@_0CA@CCIK@SetCursorFirstEntityByEntityCsr?$AA@ 100b1644     KZOESYAA.OBJ
 0003:0000e66c       ??_C@_0BK@MB@SetCursorNextEntityByAttr?$AA@ 100b166c     KZOESYAA.OBJ
 0003:0000e68c       ??_C@_0BL@GLMN@SetCursorFirstEntityByAttr?$AA@ 100b168c     KZOESYAA.OBJ
 0003:0000e6ac       ??_C@_0BN@HGCH@SetCursorNextEntityByDecimal?$AA@ 100b16ac     KZOESYAA.OBJ
 0003:0000e6d0       ??_C@_0BO@COOK@SetCursorFirstEntityByDecimal?$AA@ 100b16d0     KZOESYAA.OBJ
 0003:0000e6f4       ??_C@_0BN@DEFH@SetCursorNextEntityByInteger?$AA@ 100b16f4     KZOESYAA.OBJ
 0003:0000e718       ??_C@_0BO@GMJK@SetCursorFirstEntityByInteger?$AA@ 100b1718     KZOESYAA.OBJ
 0003:0000e73c       ??_C@_0BE@HACO@SetCursorLastEntity?$AA@ 100b173c     KZOESYAA.OBJ
 0003:0000e754       ??_C@_0BF@NEDK@SetCursorFirstEntity?$AA@ 100b1754     KZOESYAA.OBJ
 0003:0000e770       ??_C@_0BE@MAGO@SetCursorPrevEntity?$AA@ 100b1770     KZOESYAA.OBJ
 0003:0000e788       ??_C@_0BE@PPIN@SetCursorNextEntity?$AA@ 100b1788     KZOESYAA.OBJ
 0003:0000e7a0       ??_C@_0O@OJII@MoveSubobject?$AA@ 100b17a0     KZOESYAA.OBJ
 0003:0000e7b0       ??_C@_0L@COBA@DropEntity?$AA@ 100b17b0     KZOESYAA.OBJ
 0003:0000e7c0       ??_C@_0O@PHBL@ExcludeEntity?$AA@ 100b17c0     KZOESYAA.OBJ
 0003:0000e7d0       ??_C@_0N@NKPH@DeleteEntity?$AA@ 100b17d0     KZOESYAA.OBJ
 0003:0000e7e0       ??_C@_0BI@JDMH@SubobjectVersionUpdated?$AA@ 100b17e0     KZOESYAA.OBJ
 0003:0000e7fc       ??_C@_0CA@GDJL@IncludeSubobjectFromSubobjectEx?$AA@ 100b17fc     KZOESYAA.OBJ
 0003:0000e824       ??_C@_0BO@NBLH@IncludeSubobjectFromSubobject?$AA@ 100b1824     KZOESYAA.OBJ
 0003:0000e848       ??_C@_0BM@CNDP@CancelAllTemporalSubobjects?$AA@ 100b1848     KZOESYAA.OBJ
 0003:0000e86c       ??_C@_0BA@NIBC@CancelSubobject?$AA@ 100b186c     KZOESYAA.OBJ
 0003:0000e880       ??_C@_0BM@MAGB@AcceptAllTemporalSubobjects?$AA@ 100b1880     KZOESYAA.OBJ
 0003:0000e8a4       ??_C@_0BA@IEEA@AcceptSubobject?$AA@ 100b18a4     KZOESYAA.OBJ
 0003:0000e8b8       ??_C@_0BP@EIGM@CreateTemporalSubobjectVersion?$AA@ 100b18b8     KZOESYAA.OBJ
 0003:0000e8e0       ??_C@_0BF@ELCK@CreateTemporalEntity?$AA@ 100b18e0     KZOESYAA.OBJ
 0003:0000e8fc       ??_C@_0N@DPDF@GetEntityKey?$AA@ 100b18fc     KZOESYAA.OBJ
 0003:0000e90c       ??_C@_0N@BOMB@CreateEntity?$AA@ 100b190c     KZOESYAA.OBJ
 0003:0000e91c       ??_C@_0BG@HLNG@CompareEntityToEntity?$AA@ 100b191c     KZOESYAA.OBJ
 0003:0000e938       ??_C@_0BH@NEFL@CheckExistenceOfEntity?$AA@ 100b1938     KZOESYAA.OBJ
 0003:0000e954       ??_C@_0BD@PHBJ@DropObjectInstance?$AA@ 100b1954     KZOESYAA.OBJ
 0003:0000e96c       ??_C@_0BA@FDOM@CommitOI_ToFile?$AA@ 100b196c     KZOESYAA.OBJ
 0003:0000e980       ??_C@_0BB@PMGH@AddToViewCluster?$AA@ 100b1980     KZOESYAA.OBJ
 0003:0000e994       ??_C@_0BA@MOCF@DropViewCluster?$AA@ 100b1994     KZOESYAA.OBJ
 0003:0000e9a8       ??_C@_0BC@FMKN@CommitMultipleOIs?$AA@ 100b19a8     KZOESYAA.OBJ
 0003:0000e9c0       ??_C@_0BF@GELD@CommitObjectInstance?$AA@ 100b19c0     KZOESYAA.OBJ
 0003:0000e9dc       ??_C@_0BC@PDFM@ActivateOI_FromOI?$AA@ 100b19dc     KZOESYAA.OBJ
 0003:0000e9f4       ??_C@_0BE@CGBG@CommitOI_ToXML_File?$AA@ 100b19f4     KZOESYAA.OBJ
 0003:0000ea0c       ??_C@_0BI@GAMK@ActivateOI_FromXML_File?$AA@ 100b1a0c     KZOESYAA.OBJ
 0003:0000ea28       ??_C@_0BE@IMAC@ActivateOI_FromFile?$AA@ 100b1a28     KZOESYAA.OBJ
 0003:0000ea40       ??_C@_0BH@NOPG@ActivateObjectInstance?$AA@ 100b1a40     KZOESYAA.OBJ
 0003:0000ea5c       ??_C@_0BM@OIBJ@ActivateEmptyObjectInstance?$AA@ 100b1a5c     KZOESYAA.OBJ
 0003:0000ea80       ??_C@_0BF@PCON@SfActivateSysEmptyOI?$AA@ 100b1a80     KZOESYAA.OBJ
 0003:0000ea9c       ??_C@_0BJ@PMHK@SfActivateSysOI_FromFile?$AA@ 100b1a9c     KZOESYAA.OBJ
 0003:0000eabc       ??_C@_0O@FHBI@SfGetTaskInfo?$AA@ 100b1abc     KZOESYAA.OBJ
 0003:0000eacc       ??_C@_0BL@OJMF@SfGetApplicationForSubtask?$AA@ 100b1acc     KZOESYAA.OBJ
 0003:0000eaec       ??_C@_0BJ@BDEP@GetApplDirectoryFromView?$AA@ 100b1aec     KZOESYAA.OBJ
 0003:0000eb0c       ??_C@_0L@BBMP@EnableTask?$AA@ 100b1b0c     KZOESYAA.OBJ
 0003:0000eb1c       ??_C@_0M@FMPJ@DisableTask?$AA@ 100b1b1c     KZOESYAA.OBJ
 0003:0000eb2c       ??_C@_0O@BDFC@SfDropSubtask?$AA@ 100b1b2c     KZOESYAA.OBJ
 0003:0000eb3c       ??_C@_0BA@DLJN@SfCreateSubtask?$AA@ 100b1b3c     KZOESYAA.OBJ
 0003:0000eb50       ??_C@_0DK@KFBA@KZOEE451?5?9?5Include?5source?5task?5d@ 100b1b50     KZOESYAA.OBJ
 0003:0000eb98       ??_C@_0CF@PDBP@KZOEE450?5?9?5Name?5for?5view?5is?5too?5@ 100b1b98     KZOESYAA.OBJ
 0003:0000ebc4       ??_C@_0DL@EBIE@KZOEE405?5?9?5UserGroup?5doesn?8t?5hav@ 100b1bc4     KZOESYAA.OBJ
 0003:0000ec0c       ??_C@_0CB@ICKG@KZOEE404?5?9?5Can?8t?5find?5UserGroup?4@ 100b1c0c     KZOESYAA.OBJ
 0003:0000ec34       ??_C@_0DJ@MFOH@KZOEE403?5?9?5Application?5not?5suppo@ 100b1c34     KZOESYAA.OBJ
 0003:0000ec78       ??_C@_0BN@LCML@KZOEE402?5?9?5Invalid?5Password?4?$AA@ 100b1c78     KZOESYAA.OBJ
 0003:0000ec9c       ??_C@_0BO@COPE@KZOEE401?5?9?5Invalid?5User?5Name?4?$AA@ 100b1c9c     KZOESYAA.OBJ
 0003:0000ecc0       ??_C@_0DF@EIIB@KZOEE400?5?9?5Error?5transmitting?5OI@ 100b1cc0     KZOESYAA.OBJ
 0003:0000ed00       ??_C@_0DA@MAJI@KZOEE364?5?9?5Picture?5length?5exceed@ 100b1d00     KZOESYAA.OBJ
 0003:0000ed3c       ??_C@_0CL@NCJC@KZOEE363?5?9?5Context?5Edit?5string?5i@ 100b1d3c     KZOESYAA.OBJ
 0003:0000ed70       ??_C@_0DL@IDHP@KZOEE362?5?9?5Variable?5Type?5not?5all@ 100b1d70     KZOESYAA.OBJ
 0003:0000edb8       ??_C@_0CA@PMLE@KZOEE361?5?9?5Invalid?5data?5Format?5?$AA@ 100b1db8     KZOESYAA.OBJ
 0003:0000ede0       ??_C@_0CF@JLJE@KZOEE360?5?9?5Missing?5ending?5delimi@ 100b1de0     KZOESYAA.OBJ
 0003:0000ee0c       ??_C@_0DJ@BGND@KZOEE359?5?9?5Invalid?5Input?5Data?5Ty@ 100b1e0c     KZOESYAA.OBJ
 0003:0000ee50       ??_C@_0CM@DEPD@KZOEE358?5?9?5Value?5not?5in?5Context?5@ 100b1e50     KZOESYAA.OBJ
 0003:0000ee84       ??_C@_0BO@LACG@KZOEE357?5?9?5Invalid?5Input?5Data?$AA@ 100b1e84     KZOESYAA.OBJ
 0003:0000eea8       ??_C@_0CK@FNMN@KZOEE356?5?9?5Domain?5has?5an?5unnamed@ 100b1ea8     KZOESYAA.OBJ
 0003:0000eedc       ??_C@_0DH@JDFE@KZOEE355?5?9?5Table_Handler?5invalid@ 100b1edc     KZOESYAA.OBJ
 0003:0000ef20       ??_C@_0CG@DCAE@KZOEE354?5?9?5Invalid?5Domain?5Entry?5@ 100b1f20     KZOESYAA.OBJ
 0003:0000ef50       ??_C@_0DC@CBDF@KZOEE353?5?9?5Attribute?5Type?5invali@ 100b1f50     KZOESYAA.OBJ
 0003:0000ef8c       ??_C@_0DB@GJCM@KZOEE352?5?9?5Text?5String?5exceeds?5a@ 100b1f8c     KZOESYAA.OBJ
 0003:0000efc8       ??_C@_0CD@IIPK@KZOEE351?5?9?5Invalid?5Input?5Data?5Ty@ 100b1fc8     KZOESYAA.OBJ
 0003:0000eff4       ??_C@_0CI@HNHP@KZOEE350?5?9?5Context?5Not?5Valid?5for@ 100b1ff4     KZOESYAA.OBJ
 0003:0000f024       ??_C@_0EA@KHBJ@KZOEE330?5?9?5Message?5Object?5Defini@ 100b2024     KZOESYAA.OBJ
 0003:0000f070       ??_C@_0BK@JCI@KZOEE302?5?9?5Invalid?5option?$AA@ 100b2070     KZOESYAA.OBJ
 0003:0000f090       ??_C@_0EH@GAK@KZOEE301?5?9?5Return?5buffer?5not?5lar@ 100b2090     KZOESYAA.OBJ
 0003:0000f0e8       ??_C@_0CG@OIHN@KZOEE300?5?9?5Problems?5finding?5a?5pa@ 100b20e8     KZOESYAA.OBJ
 0003:0000f118       ??_C@_0ED@GMM@KZOEE274?5?9?5Target?5and?5Source?5vie@ 100b2118     KZOESYAA.OBJ
 0003:0000f168       ??_C@_0DD@DLH@KZOEE273?5?9?5Parent?5Entity?5instanc@ 100b2168     KZOESYAA.OBJ
 0003:0000f1a8       ??_C@_0CL@LFIF@KZOEE272?5?9?5Subobject?5Parent?5Curs@ 100b21a8     KZOESYAA.OBJ
 0003:0000f1dc       ??_C@_0DO@BMHF@KZOEE271?5?9?5Subobject?5Entity?5is?5r@ 100b21dc     KZOESYAA.OBJ
 0003:0000f228       ??_C@_0CH@HOLD@KZOEE270?5?9?5View?5name?5is?5already?5@ 100b2228     KZOESYAA.OBJ
 0003:0000f258       ??_C@_0CG@FACO@KZOEE269?5?9?5Invalid?5Select?5Set?5ID@ 100b2258     KZOESYAA.OBJ
 0003:0000f288       ??_C@_0DH@KDFJ@KZOEE268?5?9?5Source?5and?5target?5ent@ 100b2288     KZOESYAA.OBJ
 0003:0000f2cc       ??_C@_0CM@LKBG@KZOEE267?5?9?5Hierarchical?5cursor?5i@ 100b22cc     KZOESYAA.OBJ
 0003:0000f300       ??_C@_0DO@NFPG@KZOEE266?5?9?5Invalid?5Operation?5for@ 100b2300     KZOESYAA.OBJ
 0003:0000f34c       ??_C@_0DN@JHKM@KZOEE265?5?9?5Invalid?5Operation?5for@ 100b234c     KZOESYAA.OBJ
 0003:0000f398       ??_C@_0DJ@DMDO@KZOEE264?5?9?5Invalid?5Operation?5for@ 100b2398     KZOESYAA.OBJ
 0003:0000f3dc       ??_C@_0EP@DIEE@KZOEE263?5?9?5Input?5Qualifier?5canno@ 100b23dc     KZOESYAA.OBJ
 0003:0000f43c       ??_C@_0CJ@MMGH@KZOEE259?5?9?5Scoping?5Entity?5cursor@ 100b243c     KZOESYAA.OBJ
 0003:0000f470       ??_C@_0CO@IOAK@KZOEE258?5?9?5Scoping?5Entity?5cursor@ 100b2470     KZOESYAA.OBJ
 0003:0000f4a8       ??_C@_0EA@FEIJ@KZOEE257?5?9?5Version?5mismatch?5betw@ 100b24a8     KZOESYAA.OBJ
 0003:0000f4f4       ??_C@_0CC@IDGK@KZOEE256?5?9?5Entity?5is?5root?5of?5vie@ 100b24f4     KZOESYAA.OBJ
 0003:0000f51c       ??_C@_0DH@MKIF@KZOEE255?5?9?5Attempt?5to?5update?5a?5p@ 100b251c     KZOESYAA.OBJ
 0003:0000f560       ??_C@_0CG@DKJB@KZOEE254?5?9?5Entity?5cursor?5is?5unde@ 100b2560     KZOESYAA.OBJ
 0003:0000f590       ??_C@_0CB@ICBE@KZOEE253?5?9?5Entity?5cursor?5is?5NULL@ 100b2590     KZOESYAA.OBJ
 0003:0000f5b8       ??_C@_0CJ@PNML@KZOEE252?5?9?5Root?5of?5view?5has?5been@ 100b25b8     KZOESYAA.OBJ
 0003:0000f5ec       ??_C@_0CE@HNFJ@KZOEE250?5?9?5Object?5instance?5is?5em@ 100b25ec     KZOESYAA.OBJ
 0003:0000f618       ??_C@_0CG@JDPP@KZOEE248?5?9?5Required?5attribute?5is@ 100b2618     KZOESYAA.OBJ
 0003:0000f648       ??_C@_0DM@LIOD@KZOEE247?5?9?5Blob?5Attribute?5does?5n@ 100b2648     KZOESYAA.OBJ
 0003:0000f690       ??_C@_0CD@EGIM@KZOEE246?5?9?5Invalid?5Attribute?5typ@ 100b2690     KZOESYAA.OBJ
 0003:0000f6bc       ??_C@_0DM@CLHG@KZOEE245?5?9?5Null?5string?5not?5allow@ 100b26bc     KZOESYAA.OBJ
 0003:0000f704       ??_C@_0CD@FNBB@KZOEE244?5?9?5Attribute?5has?5no?5Doma@ 100b2704     KZOESYAA.OBJ
 0003:0000f730       ??_C@_0CG@NJPF@KZOEE243?5?9?5Context?5invalid?5for?5D@ 100b2730     KZOESYAA.OBJ
 0003:0000f760       ??_C@_0CF@KFFO@KZOEE242?5?9?5Invalid?5Domain?5Entry?5@ 100b2760     KZOESYAA.OBJ
 0003:0000f78c       ??_C@_0CC@FKDO@KZOEE241?5?9?5Invalid?5Variable?5Type@ 100b278c     KZOESYAA.OBJ
 0003:0000f7b4       ??_C@_0DM@EDAM@KZOEE240?5?9?5Binary?5large?5object?5?$CI@ 100b27b4     KZOESYAA.OBJ
 0003:0000f7fc       ??_C@_0DA@EHLD@KZOEE239?5?9?5Invalid?5Operation?5for@ 100b27fc     KZOESYAA.OBJ
 0003:0000f838       ??_C@_0ED@IIED@KZOEE238?5?9?5Attempt?5to?5update?5a?5n@ 100b2838     KZOESYAA.OBJ
 0003:0000f888       ??_C@_0DI@NJGM@KZOEE237?5?9?5Attempt?5to?5update?5a?5n@ 100b2888     KZOESYAA.OBJ
 0003:0000f8cc       ??_C@_0BN@JFBL@KZOEE236?5?9?5Integer?5underflow?$AA@ 100b28cc     KZOESYAA.OBJ
 0003:0000f8f0       ??_C@_0BM@GBBH@KZOEE235?5?9?5Integer?5overflow?$AA@ 100b28f0     KZOESYAA.OBJ
 0003:0000f914       ??_C@_0EH@EJPO@KZOEE234?5?9?5Attempt?5to?5add?5intege@ 100b2914     KZOESYAA.OBJ
 0003:0000f96c       ??_C@_0DG@KPMG@KZOEE233?5?9?5Could?5not?5locate?5deri@ 100b296c     KZOESYAA.OBJ
 0003:0000f9ac       ??_C@_0DP@LJHO@KZOEE232?5?9?5Operation?5indicates?5u@ 100b29ac     KZOESYAA.OBJ
 0003:0000f9f8       ??_C@_0DA@CNJA@KZOEE231?5?9?5Decimal?5attribute?5ove@ 100b29f8     KZOESYAA.OBJ
 0003:0000fa34       ??_C@_0EC@BIGN@KZOEE191?5?9?5Attribute?5must?5be?5a?5B@ 100b2a34     KZOESYAA.OBJ
 0003:0000fa84       ??_C@_0CI@HOIP@KZOEE190?5?9?5Error?5opening?5tempora@ 100b2a84     KZOESYAA.OBJ
 0003:0000fab4       ??_C@_0EK@MPKH@KZOEE141?5?9?5Attempt?5to?5include?5a?5@ 100b2ab4     KZOESYAA.OBJ
 0003:0000fb0c       ??_C@_0ED@EHNP@KZOEE140?5?9?5Target?5and?5source?5Obj@ 100b2b0c     KZOESYAA.OBJ
 0003:0000fb5c       ??_C@_0DM@EDLN@KZOEE139?5?9?5Error?5establishing?5cu@ 100b2b5c     KZOESYAA.OBJ
 0003:0000fba4       ??_C@_0EE@IOCN@KZOEE138?5?9?5Attempt?5to?5include?5ta@ 100b2ba4     KZOESYAA.OBJ
 0003:0000fbf8       ??_C@_0DA@LGF@KZOEE137?5?9?5Entity?5Instance?5desce@ 100b2bf8     KZOESYAA.OBJ
 0003:0000fc34       ??_C@_0CN@MAJK@KZOEE136?5?9?5Entity?5Instance?5alrea@ 100b2c34     KZOESYAA.OBJ
 0003:0000fc6c       ??_C@_0CJ@EFHN@KZOEE135?5?9?5Entity?5Instance?5not?5v@ 100b2c6c     KZOESYAA.OBJ
 0003:0000fca0       ??_C@_0FA@LJEB@KZOEE134?5?9?5Attempt?5to?5version?5an@ 100b2ca0     KZOESYAA.OBJ
 0003:0000fd00       ??_C@_0DL@FCGD@KZOEE132?5?9?5Error?5establishing?5cu@ 100b2d00     KZOESYAA.OBJ
 0003:0000fd48       ??_C@_0EG@DDAB@KZOEE131?5?9?5Attempt?5to?5include?5Su@ 100b2d48     KZOESYAA.OBJ
 0003:0000fd9c       ??_C@_0IA@GFGF@KZOEE129?5?9?5Trying?5to?5create?5a?5re@ 100b2d9c     KZOESYAA.OBJ
 0003:0000fe38       ??_C@_0EG@KLAD@KZOEE128?5?9?5Target?5Entity?5cardina@ 100b2e38     KZOESYAA.OBJ
 0003:0000fe8c       ??_C@_0EH@IKFL@KZOEE127?5?9?5Source?5?$CG?5target?5do?5no@ 100b2e8c     KZOESYAA.OBJ
 0003:0000fee4       ??_C@_0DG@JPKB@KZOEE126?5?9?5Target?5or?5Source?5Enti@ 100b2ee4     KZOESYAA.OBJ
 0003:0000ff24       ??_C@_0EC@FECD@KZOEE125?5?9?5Target?5and?5Source?5Ent@ 100b2f24     KZOESYAA.OBJ
 0003:0000ff74       ??_C@_0FB@NPFI@KZOEE124?5?9?5Entity?5parent?5is?5incl@ 100b2f74     KZOESYAA.OBJ
 0003:0000ffd8       ??_C@_0DI@HBNG@KZOEE122?5?9?5Attempt?5to?5create?5an?5@ 100b2fd8     KZOESYAA.OBJ
 0003:0001001c       ??_C@_0DG@NDMM@KZOEE121?5?9?5Attempt?5to?5insert?5twi@ 100b301c     KZOESYAA.OBJ
 0003:0001005c       ??_C@_0CG@MFLA@KZOEE120?5?9?5Invalid?5position?5para@ 100b305c     KZOESYAA.OBJ
 0003:0001008c       ??_C@_0CL@GLPJ@KZOEE119?5?9?5Invalid?5View?0?5View?5is@ 100b308c     KZOESYAA.OBJ
 0003:000100c0       ??_C@_0DM@BDCF@KZOEE118?5?9?5Internal?5Key?5error?5re@ 100b30c0     KZOESYAA.OBJ
 0003:00010108       ??_C@_0CN@EDAL@KZOEE117?5?9?5Entity?5Instance?5Keys?5@ 100b3108     KZOESYAA.OBJ
 0003:00010140       ??_C@_0EL@JFCI@KZOEE116?5?9?5Attempt?5to?5include?5an@ 100b3140     KZOESYAA.OBJ
 0003:0001019c       ??_C@_0EB@HFOP@KZOEE115?5?9?5Attempt?5to?5move?5an?5in@ 100b319c     KZOESYAA.OBJ
 0003:000101ec       ??_C@_0DD@NFKB@KZOEE114?5?9?5Source?5and?5Target?5ent@ 100b31ec     KZOESYAA.OBJ
 0003:0001022c       ??_C@_0DD@OJHP@KZOEE113?5?9?5Invalid?5View?0?5view?5co@ 100b322c     KZOESYAA.OBJ
 0003:0001026c       ??_C@_0EC@BHLF@KZOEE112?5?9?5Attempt?5to?5set?5subtas@ 100b326c     KZOESYAA.OBJ
 0003:000102bc       ??_C@_0EF@IJII@KZOEE111?5?9?5Attempt?5to?5set?5subtas@ 100b32bc     KZOESYAA.OBJ
 0003:00010310       ??_C@_0CH@NIKJ@KZOEE110?5?9?5Invalid?5level?5for?5Vie@ 100b3310     KZOESYAA.OBJ
 0003:00010340       ??_C@_0DD@IEKN@KZOEE109?5?9?5Invalid?5View?0?5view?5co@ 100b3340     KZOESYAA.OBJ
 0003:00010380       ??_C@_0CI@CNMF@KZOEE108?5?9?5Attempt?5to?5drop?5Subta@ 100b3380     KZOESYAA.OBJ
 0003:000103b0       ??_C@_0CA@ICEI@KZOEE107?5?9?5Invalid?5Subtask?5View?$AA@ 100b33b0     KZOESYAA.OBJ
 0003:000103d8       ??_C@_0BM@LNED@KZOEE106?5?9?5Rules?5violation?5?$AA@ 100b33d8     KZOESYAA.OBJ
 0003:000103fc       ??_C@_0DA@OHNK@KZOEE105?5?9?5Invalid?5scoping?5Entit@ 100b33fc     KZOESYAA.OBJ
 0003:00010438       ??_C@_0DL@IOKD@KZOEE104?5?9?5Invalid?5Attribute?5nam@ 100b3438     KZOESYAA.OBJ
 0003:00010480       ??_C@_0CI@DCOG@KZOEE103?5?9?5Invalid?5Entity?5name?5f@ 100b3480     KZOESYAA.OBJ
 0003:000104b0       ??_C@_0CI@JOEN@KZOEE102?5?9?5Invalid?5View?0?5view?5is@ 100b34b0     KZOESYAA.OBJ
 0003:000104e0       ??_C@_0BI@NHEC@KZOEE101?5?9?5Invalid?5View?$AA@ 100b34e0     KZOESYAA.OBJ
 0003:000104fc       ??_C@_0DA@GDIC@KZOEE100?5?9?5Invalid?5View?0?5view?5is@ 100b34fc     KZOESYAA.OBJ
 0003:00010538       ??_C@_0CK@LDGH@KZOEE096?5?9?5Error?5retrieving?5OI?5f@ 100b3538     KZOESYAA.OBJ
 0003:0001056c       ??_C@_0JB@CGJ@KZOEE095?5?9?5A?5recursive?5child?5was@ 100b356c     KZOESYAA.OBJ
 0003:0001061c       ??_C@_0BN@NOMM@KZOEE094?5?9?5Locking?5violation?$AA@ 100b361c     KZOESYAA.OBJ
 0003:00010640       ??_C@_0EN@GBNJ@KZOEE093?5?9?5Optimistic?5locking?5er@ 100b3640     KZOESYAA.OBJ
 0003:0001069c       ??_C@_0DN@DGMC@KZOEE092?5?9?5Couldn?8t?5re?9activate?5@ 100b369c     KZOESYAA.OBJ
 0003:000106e8       ??_C@_0DO@CEAH@KZOEE091?5?9?5Maximum?5number?5of?5ent@ 100b36e8     KZOESYAA.OBJ
 0003:00010734       ??_C@_0EC@IMDC@KZOEE090?5?9?5Maximum?5number?5of?5ent@ 100b3734     KZOESYAA.OBJ
 0003:00010784       ??_C@_0DF@CEHL@KZOEE088?5?9?5Compressed?5OI?5is?5out?5@ 100b3784     KZOESYAA.OBJ
 0003:000107c4       ??_C@_0CI@MFDJ@KZOEE087?5?9?5Too?5many?5views?5in?5Vie@ 100b37c4     KZOESYAA.OBJ
 0003:000107f4       ??_C@_0CE@ELED@KZOEE086?5?9?5Trying?5to?5commit?50?5vi@ 100b37f4     KZOESYAA.OBJ
 0003:00010820       ??_C@_0EK@GEM@KZOEE085?5?9?5Entity?5in?5Object?5Defi@ 100b3820     KZOESYAA.OBJ
 0003:00010878       ??_C@_0EB@HECI@KZOEE084?5?9?5Entity?5in?5Object?5Defi@ 100b3878     KZOESYAA.OBJ
 0003:000108c8       ??_C@_0IJ@LNPL@KZOEE083?5?9?5LOD?5does?5not?5have?5phy@ 100b38c8     KZOESYAA.OBJ
 0003:0001096c       ??_C@_0CJ@BEFH@KZOEE082?5?9?5Error?5starting?5Genkey@ 100b396c     KZOESYAA.OBJ
 0003:000109a0       ??_C@_0EG@IICI@KZOEE081?5?9?5Object?5Definition?5doe@ 100b39a0     KZOESYAA.OBJ
 0003:000109f4       ??_C@_0EI@ENAN@KZOEE080?5?9?5Object?5Definition?5doe@ 100b39f4     KZOESYAA.OBJ
 0003:00010a4c       ??_C@_0CN@GDKG@KZOEE079?5?9?5Trying?5to?5commit?5a?5re@ 100b3a4c     KZOESYAA.OBJ
 0003:00010a84       ??_C@_0EA@PIKP@KZOEE078?5?9?5Internal?5error?0?5linke@ 100b3a84     KZOESYAA.OBJ
 0003:00010ad0       ??_C@_0DJ@EOHG@KZOEE077?5?9?5Invalid?5record?5size?5i@ 100b3ad0     KZOESYAA.OBJ
 0003:00010b14       ??_C@_0DP@HHHP@KZOEE076?5?9?5Object?5instance?5conta@ 100b3b14     KZOESYAA.OBJ
 0003:00010b60       ??_C@_0CJ@FMPI@KZOEE075?5?9?5Invalid?5Entity?5level?5@ 100b3b60     KZOESYAA.OBJ
 0003:00010b94       ??_C@_0CI@NBOH@KZOEE074?5?9?5Invalid?5Entity?5name?5o@ 100b3b94     KZOESYAA.OBJ
 0003:00010bc4       ??_C@_0CI@GPMH@KZOEE073?5?9?5Invalid?5instance?5file@ 100b3bc4     KZOESYAA.OBJ
 0003:00010bf4       ??_C@_0CI@EEEO@KZOEE072?5?9?5Error?5reading?5instanc@ 100b3bf4     KZOESYAA.OBJ
 0003:00010c24       ??_C@_0CI@HPIK@KZOEE071?5?9?5Error?5opening?5instanc@ 100b3c24     KZOESYAA.OBJ
 0003:00010c54       ??_C@_0CE@GHFO@KZOEE070?5?9?5Object?5instance?5is?5em@ 100b3c54     KZOESYAA.OBJ
 0003:00010c80       ??_C@_0DH@DFDK@KZOEE067?5?9?5Could?5not?5initialize?5@ 100b3c80     KZOESYAA.OBJ
 0003:00010cc4       ??_C@_0CC@DFAB@KZOEE066?5?9?5Attribute?5length?5zero@ 100b3cc4     KZOESYAA.OBJ
 0003:00010cec       ??_C@_0DM@HNKG@KZOEE065?5?9?5LTH?5only?5valid?5for?5At@ 100b3cec     KZOESYAA.OBJ
 0003:00010d34       ??_C@_0CI@DBKC@KZOEE064?5?9?5TYPE?5obsolete?0?5use?5AP@ 100b3d34     KZOESYAA.OBJ
 0003:00010d64       ??_C@_0EG@PGNO@KZOEE063?5?9?5Entity?5attrib?5RECURSI@ 100b3d64     KZOESYAA.OBJ
 0003:00010db8       ??_C@_0EH@FCEJ@KZOEE062?5?9?5Conflict?5between?5E?1R?5@ 100b3db8     KZOESYAA.OBJ
 0003:00010e10       ??_C@_0DD@IPCF@KZOEE061?5?9?5Persistent?5Attribute?5@ 100b3e10     KZOESYAA.OBJ
 0003:00010e50       ??_C@_0CL@PNHL@KZOEE060?5?9?5Invalid?5maximum?5root?5@ 100b3e50     KZOESYAA.OBJ
 0003:00010e84       ??_C@_0EC@PMPM@KZOEE059?5?9?5Invalid?5file?0?5Invalid@ 100b3e84     KZOESYAA.OBJ
 0003:00010ed4       ??_C@_0EE@OCOD@KZOEE058?5?9?5Invalid?5file?0?5PERSIST@ 100b3ed4     KZOESYAA.OBJ
 0003:00010f28       ??_C@_0DN@EDAD@KZOEE057?5?9?5Invalid?5file?0?5LTH?5bef@ 100b3f28     KZOESYAA.OBJ
 0003:00010f74       ??_C@_0CF@JDKN@KZOEE056?5?9?5Domain?5not?5found?5on?5l@ 100b3f74     KZOESYAA.OBJ
 0003:00010fa0       ??_C@_0DM@CCJK@KZOEE055?5?9?5Invalid?5file?0?5LTH?5or?5@ 100b3fa0     KZOESYAA.OBJ
 0003:00010fe8       ??_C@_0CJ@OIAJ@KZOEE054?5?9?5Invalid?5record?5found?5@ 100b3fe8     KZOESYAA.OBJ
 0003:0001101c       ??_C@_0CP@CJAD@KZOEE053?5?9?5Invalid?5Entity?5level?5@ 100b401c     KZOESYAA.OBJ
 0003:00011054       ??_C@_0EG@KBNM@KZOEE052?5?9?5Invalid?5Object?5file?0?5@ 100b4054     KZOESYAA.OBJ
 0003:000110a8       ??_C@_0CL@EMEJ@KZOEE051?5?9?5Invalid?5View?5Object?5f@ 100b40a8     KZOESYAA.OBJ
 0003:000110dc       ??_C@_0CL@NPAH@KZOEE050?5?9?5Error?5opening?5View?5Ob@ 100b40dc     KZOESYAA.OBJ
 0003:00011110       ??_C@_0CB@KHLN@KZOEE032?5?9?5Mutex?5name?5is?5invalid@ 100b4110     KZOESYAA.OBJ
 0003:00011138       ??_C@_0CI@KCKB@KZOEE031?5?9?5Error?5locating?5Operat@ 100b4138     KZOESYAA.OBJ
 0003:00011168       ??_C@_0CF@MDHP@KZOEE030?5?9?5Error?5loading?5library@ 100b4168     KZOESYAA.OBJ
 0003:00011194       ??_C@_0CE@CFOB@KZOEE026?5?9?5Error?5creating?5direct@ 100b4194     KZOESYAA.OBJ
 0003:000111c0       ??_C@_0CM@LGJG@KZOEE025?5?9?5Error?5in?5directory?5sp@ 100b41c0     KZOESYAA.OBJ
 0003:000111f4       ??_C@_0BO@LNEH@KZOEE024?5?9?5Error?5opening?5file?$AA@ 100b41f4     KZOESYAA.OBJ
 0003:00011218       ??_C@_0BP@ENDH@KZOEE023?5?9?5Invalid?5parameter?0?5?$AA@ 100b4218     KZOESYAA.OBJ
 0003:00011240       ??_C@_0BO@PFIN@KZOEE022?5?9?5Error?5writing?5file?$AA@ 100b4240     KZOESYAA.OBJ
 0003:00011264       ??_C@_0EJ@OFCD@KZOEE021?5?9?5Internal?5error?0?5TaskO@ 100b4264     KZOESYAA.OBJ
 0003:000112bc       ??_C@_0CD@COHN@KZOEE020?5?9?5Invalid?5Operation?5cal@ 100b42bc     KZOESYAA.OBJ
 0003:000112e8       ??_C@_0CJ@PAMN@KZOEE019?5?9?5Invalid?5GetTaskInfo?5r@ 100b42e8     KZOESYAA.OBJ
 0003:0001131c       ??_C@_0CI@DHKC@KZOEE018?5?9?5Error?5in?5Domain?5file?0@ 100b431c     KZOESYAA.OBJ
 0003:0001134c       ??_C@_0BM@MOGK@KZOEE017?5?9?5Task?5is?5Disabled?$AA@ 100b434c     KZOESYAA.OBJ
 0003:00011370       ??_C@_0BI@EDAJ@KZOEE016?5?9?5Invalid?5Task?$AA@ 100b4370     KZOESYAA.OBJ
 0003:0001138c       ??_C@_0CI@OGFD@KZOEE015?5?9?5Invalid?5suballoc?5memo@ 100b438c     KZOESYAA.OBJ
 0003:000113bc       ??_C@_0CO@LCNE@KZOEE014?5?9?5Invalid?5suballoc?5memo@ 100b43bc     KZOESYAA.OBJ
 0003:000113f4       ??_C@_0CJ@MDMN@KZOEE013?5?9?5Internal?5operation?5ca@ 100b43f4     KZOESYAA.OBJ
 0003:00011428       ??_C@_0CD@KFHE@KZOEE012?5?9?5Error?5allocating?5memo@ 100b4428     KZOESYAA.OBJ
 0003:00011454       ??_C@_0DC@DKPD@KZOEE011?5?9?5Error?5opening?5applica@ 100b4454     KZOESYAA.OBJ
 0003:00011490       ??_C@_0CL@MFKJ@KZOEE010?5?9?5Requested?5application@ 100b4490     KZOESYAA.OBJ
 0003:000114c4       ??_C@_0DF@MKOJ@KZOEE009?5?9?5Error?5opening?5applica@ 100b44c4     KZOESYAA.OBJ
 0003:00011504       ??_C@_0EI@BCLB@KZOEE008?5?9?5Application?5definitio@ 100b4504     KZOESYAA.OBJ
 0003:0001155c       ??_C@_0ED@FDBJ@KZOEE007?5?9?5Internal?5Anchor?5block@ 100b455c     KZOESYAA.OBJ
 0003:000115ac       ??_C@_0CP@HIJD@KZOEE006?5?9?5Internal?5error?5freein@ 100b45ac     KZOESYAA.OBJ
 0003:000115e4       ??_C@_0DE@HEBF@KZOEE005?5?9?5Error?5communicating?5w@ 100b45e4     KZOESYAA.OBJ
 0003:00011624       ??_C@_0DE@HPME@KZOEE004?5?9?5Error?5communicating?5w@ 100b4624     KZOESYAA.OBJ
 0003:00011664       ??_C@_0CK@LHJO@KZOEE003?5?9?5Error?5starting?5Object@ 100b4664     KZOESYAA.OBJ
 0003:00011698       ??_C@_0CP@JFJD@KZOEE002?5?9?5ZEIDON?5environment?5va@ 100b4698     KZOESYAA.OBJ
 0003:000116d0       ??_C@_0DC@KKHB@KZOEE001?5?9?5Error?5communicating?5w@ 100b46d0     KZOESYAA.OBJ
 0003:0001170c       ??_C@_06LENA@iLzero?$AA@   100b470c     KZOESYAA.OBJ
 0003:00011714       ??_C@_07FACE@iDigits?$AA@  100b4714     KZOESYAA.OBJ
 0003:00011720       ??_C@_08GFHF@sDecimal?$AA@ 100b4720     KZOESYAA.OBJ
 0003:0001172c       ??_C@_09BEPN@sThousand?$AA@ 100b472c     KZOESYAA.OBJ
 0003:00011738       ??_C@_08LHOD@iNegCurr?$AA@ 100b4738     KZOESYAA.OBJ
 0003:00011744       ??_C@_0M@LKGH@iCurrDigits?$AA@ 100b4744     KZOESYAA.OBJ
 0003:00011754       ??_C@_09CBCN@iCurrency?$AA@ 100b4754     KZOESYAA.OBJ
 0003:00011760       ??_C@_09JDHO@sCurrency?$AA@ 100b4760     KZOESYAA.OBJ
 0003:0001176c       ??_C@_09JENF@sLongDate?$AA@ 100b476c     KZOESYAA.OBJ
 0003:00011778       ??_C@_0L@NPLI@sShortDate?$AA@ 100b4778     KZOESYAA.OBJ
 0003:00011788       ??_C@_07LDFB@iTLZero?$AA@  100b4788     KZOESYAA.OBJ
 0003:00011794       ??_C@_05DJMD@s2359?$AA@    100b4794     KZOESYAA.OBJ
 0003:0001179c       ??_C@_05PCBI@s1159?$AA@    100b479c     KZOESYAA.OBJ
 0003:000117a4       ??_C@_05PLM@sTime?$AA@     100b47a4     KZOESYAA.OBJ
 0003:000117ac       ??_C@_05EMIJ@iTime?$AA@    100b47ac     KZOESYAA.OBJ
 0003:000117b4       ??_C@_08HHE@iMeasure?$AA@  100b47b4     KZOESYAA.OBJ
 0003:000117c0       ??_C@_05NLOI@sList?$AA@    100b47c0     KZOESYAA.OBJ
 0003:000117c8       ??_C@_09IMGC@sLanguage?$AA@ 100b47c8     KZOESYAA.OBJ
 0003:000117d4       ??_C@_08JMM@sCountry?$AA@  100b47d4     KZOESYAA.OBJ
 0003:000117e0       ??_C@_08FKAM@iCountry?$AA@ 100b47e0     KZOESYAA.OBJ
 0003:000117ec       ??_C@_04KGMK@Intl?$AA@     100b47ec     KZOESYAA.OBJ
 0003:000117f4       ??_C@_08FAKH@Saturday?$AA@ 100b47f4     KZOESYAA.OBJ
 0003:00011800       ??_C@_06ONCK@Friday?$AA@   100b4800     KZOESYAA.OBJ
 0003:00011808       ??_C@_08CCFO@Thursday?$AA@ 100b4808     KZOESYAA.OBJ
 0003:00011814       ??_C@_09PBIN@Wednesday?$AA@ 100b4814     KZOESYAA.OBJ
 0003:00011820       ??_C@_07BMBC@Tuesday?$AA@  100b4820     KZOESYAA.OBJ
 0003:0001182c       ??_C@_06CHLK@Monday?$AA@   100b482c     KZOESYAA.OBJ
 0003:00011834       ??_C@_06OOEM@Sunday?$AA@   100b4834     KZOESYAA.OBJ
 0003:0001183c       ??_C@_08LIDF@December?$AA@ 100b483c     KZOESYAA.OBJ
 0003:00011848       ??_C@_08NJLI@November?$AA@ 100b4848     KZOESYAA.OBJ
 0003:00011854       ??_C@_07IAMM@October?$AA@  100b4854     KZOESYAA.OBJ
 0003:00011860       ??_C@_09MKGD@September?$AA@ 100b4860     KZOESYAA.OBJ
 0003:0001186c       ??_C@_06PADP@August?$AA@   100b486c     KZOESYAA.OBJ
 0003:00011874       ??_C@_04PIJO@July?$AA@     100b4874     KZOESYAA.OBJ
 0003:0001187c       ??_C@_04ICFP@June?$AA@     100b487c     KZOESYAA.OBJ
 0003:00011884       ??_C@_03MGHB@May?$AA@      100b4884     KZOESYAA.OBJ
 0003:00011888       ??_C@_05JFGC@April?$AA@    100b4888     KZOESYAA.OBJ
 0003:00011890       ??_C@_05FGPD@March?$AA@    100b4890     KZOESYAA.OBJ
 0003:00011898       ??_C@_08PGBA@February?$AA@ 100b4898     KZOESYAA.OBJ
 0003:000118a4       ??_C@_07BPKJ@January?$AA@  100b48a4     KZOESYAA.OBJ
 0003:000118b0       ??_C@_0BC@GMHO@MQ_MessagePresent?$AA@ 100b48b0     KZOESYAA.OBJ
 0003:000118c8       ??_C@_0BJ@MAFE@MQ_MessagePromptForInput?$AA@ 100b48c8     KZOESYAA.OBJ
 0003:000118e8       ??_C@_0BB@MBCE@MQ_MessagePrompt?$AA@ 100b48e8     KZOESYAA.OBJ
 0003:000118fc       ??_C@_0P@BAHL@MQ_MessageSend?$AA@ 100b48fc     KZOESYAA.OBJ
 0003:00011910       ??_C@_06COI@BEFORE?$AA@    100b4910     KZOESYAA.OBJ
 0003:00011918       ??_C@_05HBLJ@AFTER?$AA@    100b4918     KZOESYAA.OBJ
 0003:00011920       ??_C@_0BA@ODOC@OE?5System?5Error?$AA@ 100b4920     KZOESYAA.OBJ
 0003:00011934       ??_C@_0BG@FMPG@Data?5Validation?5Error?$AA@ 100b4934     KZOESYAA.OBJ
 0003:00011950       ??_C@_0CK@BELJ@Object?5Services?5?9?5Application?5Lo@ 100b4950     KZOESYAA.OBJ
 0003:00011984       ??_C@_04JGIO@ZKEY?$AA@     100b4984     KZOESYAA.OBJ
 0003:0001198c       ??_C@_06NDPG@UPDATE?$AA@   100b498c     KZOESYAA.OBJ
 0003:00011994       ??_C@_06PIPA@USERID?$AA@   100b4994     KZOESYAA.OBJ
 0003:0001199c       ??_C@_07KJPH@UP_DATE?$AA@  100b499c     KZOESYAA.OBJ
 0003:000119a8       ??_C@_04JHII@TYPE?$AA@     100b49a8     KZOESYAA.OBJ
 0003:000119b0       ??_C@_0O@HOCN@SRCXVAATT_TOK?$AA@ 100b49b0     KZOESYAA.OBJ
 0003:000119c0       ??_C@_08PKCB@SETNAME2?$AA@ 100b49c0     KZOESYAA.OBJ
 0003:000119cc       ??_C@_08FJI@SETNAME1?$AA@  100b49cc     KZOESYAA.OBJ
 0003:000119d8       ??_C@_06CIFL@SETID2?$AA@   100b49d8     KZOESYAA.OBJ
 0003:000119e0       ??_C@_06NHOC@SETID1?$AA@   100b49e0     KZOESYAA.OBJ
 0003:000119e8       ??_C@_06LIHO@SEQ_AD?$AA@   100b49e8     KZOESYAA.OBJ
 0003:000119f0       ??_C@_0L@FLNJ@SEQUENCING?$AA@ 100b49f0     KZOESYAA.OBJ
 0003:00011a00       ??_C@_06BJID@SERVER?$AA@   100b4a00     KZOESYAA.OBJ
 0003:00011a08       ??_C@_0L@GCMK@RESTRICTED?$AA@ 100b4a08     KZOESYAA.OBJ
 0003:00011a18       ??_C@_08BGDD@REQUIRED?$AA@ 100b4a18     KZOESYAA.OBJ
 0003:00011a24       ??_C@_0O@DBKM@RELXVAATT_TOK?$AA@ 100b4a24     KZOESYAA.OBJ
 0003:00011a34       ??_C@_09HINM@RELRECORD?$AA@ 100b4a34     KZOESYAA.OBJ
 0003:00011a40       ??_C@_08PMNP@RELFIELD?$AA@ 100b4a40     KZOESYAA.OBJ
 0003:00011a4c       ??_C@_03LNGM@REL?$AA@      100b4a4c     KZOESYAA.OBJ
 0003:00011a50       ??_C@_09GDN@RECURSIVE?$AA@ 100b4a50     KZOESYAA.OBJ
 0003:00011a5c       ??_C@_07NDLE@RECNAME?$AA@  100b4a5c     KZOESYAA.OBJ
 0003:00011a68       ??_C@_05NKIC@RECID?$AA@    100b4a68     KZOESYAA.OBJ
 0003:00011a70       ??_C@_05ILLO@PNAME?$AA@    100b4a70     KZOESYAA.OBJ
 0003:00011a78       ??_C@_07NIBE@PERSIST?$AA@  100b4a78     KZOESYAA.OBJ
 0003:00011a84       ??_C@_07BAEJ@PDELETE?$AA@  100b4a84     KZOESYAA.OBJ
 0003:00011a90       ??_C@_0L@JCEP@OWNER_MEMB?$AA@ 100b4a90     KZOESYAA.OBJ
 0003:00011aa0       ??_C@_0L@PJJC@OPER_LIBNM?$AA@ 100b4aa0     KZOESYAA.OBJ
 0003:00011ab0       ??_C@_07GKEM@OFBUFSZ?$AA@  100b4ab0     KZOESYAA.OBJ
 0003:00011abc       ??_C@_07NHGG@OFRECID?$AA@  100b4abc     KZOESYAA.OBJ
 0003:00011ac8       ??_C@_07HIHA@OCEOPER?$AA@  100b4ac8     KZOESYAA.OBJ
 0003:00011ad4       ??_C@_06HHGH@OCDROP?$AA@   100b4ad4     KZOESYAA.OBJ
 0003:00011adc       ??_C@_05KPHB@OCCOM?$AA@    100b4adc     KZOESYAA.OBJ
 0003:00011ae4       ??_C@_06PJLI@OCACTE?$AA@   100b4ae4     KZOESYAA.OBJ
 0003:00011aec       ??_C@_05LDPN@OCACT?$AA@    100b4aec     KZOESYAA.OBJ
 0003:00011af4       ??_C@_07PICA@NumRels?$AA@  100b4af4     KZOESYAA.OBJ
 0003:00011b00       ??_C@_07OOMM@NumEnts?$AA@  100b4b00     KZOESYAA.OBJ
 0003:00011b0c       ??_C@_07GOHG@NumAtts?$AA@  100b4b0c     KZOESYAA.OBJ
 0003:00011b18       ??_C@_07KFPJ@NETWORK?$AA@  100b4b18     KZOESYAA.OBJ
 0003:00011b24       ??_C@_0M@GNJA@NETCOMPRESS?$AA@ 100b4b24     KZOESYAA.OBJ
 0003:00011b34       ??_C@_04IALP@NAME?$AA@     100b4b34     KZOESYAA.OBJ
 0003:00011b3c       ??_C@_08DHHO@MR_LIMIT?$AA@ 100b4b3c     KZOESYAA.OBJ
 0003:00011b48       ??_C@_0N@LMHL@MAXSTRINGLTH?$AA@ 100b4b48     KZOESYAA.OBJ
 0003:00011b58       ??_C@_03DGJL@LTH?$AA@      100b4b58     KZOESYAA.OBJ
 0003:00011b5c       ??_C@_04NPLI@LOCK?$AA@     100b4b5c     KZOESYAA.OBJ
 0003:00011b64       ??_C@_05IFE@LNAME?$AA@     100b4b64     KZOESYAA.OBJ
 0003:00011b6c       ??_C@_0O@IHAG@LanguageIndex?$AA@ 100b4b6c     KZOESYAA.OBJ
 0003:00011b7c       ??_C@_03PHBO@KEY?$AA@      100b4b7c     KZOESYAA.OBJ
 0003:00011b80       ??_C@_09ECEN@ISDEFAULT?$AA@ 100b4b80     KZOESYAA.OBJ
 0003:00011b8c       ??_C@_0O@HIL@INTERNALVALUE?$AA@ 100b4b8c     KZOESYAA.OBJ
 0003:00011b9c       ??_C@_04NJI@INIT?$AA@      100b4b9c     KZOESYAA.OBJ
 0003:00011ba4       ??_C@_08FKFF@INCRLOAD?$AA@ 100b4ba4     KZOESYAA.OBJ
 0003:00011bb0       ??_C@_07KOHG@INCLUDE?$AA@  100b4bb0     KZOESYAA.OBJ
 0003:00011bbc       ??_C@_07KACF@INCLSRC?$AA@  100b4bbc     KZOESYAA.OBJ
 0003:00011bc8       ??_C@_06IJMB@HIDDEN?$AA@   100b4bc8     KZOESYAA.OBJ
 0003:00011bd0       ??_C@_07MHHO@HANDLER?$AA@  100b4bd0     KZOESYAA.OBJ
 0003:00011bdc       ??_C@_09IICP@GKHANDLER?$AA@ 100b4bdc     KZOESYAA.OBJ
 0003:00011be8       ??_C@_06PPGK@GENKEY?$AA@   100b4be8     KZOESYAA.OBJ
 0003:00011bf0       ??_C@_0M@FLLI@FULLPERSIST?$AA@ 100b4bf0     KZOESYAA.OBJ
 0003:00011c00       ??_C@_07MPNE@FLDTYPE?$AA@  100b4c00     KZOESYAA.OBJ
 0003:00011c0c       ??_C@_09BHNG@FLDOFFSET?$AA@ 100b4c0c     KZOESYAA.OBJ
 0003:00011c18       ??_C@_07NIOD@FLDNAME?$AA@  100b4c18     KZOESYAA.OBJ
 0003:00011c24       ??_C@_06GKHE@FLDLTH?$AA@   100b4c24     KZOESYAA.OBJ
 0003:00011c2c       ??_C@_05OJOB@FLDID?$AA@    100b4c2c     KZOESYAA.OBJ
 0003:00011c34       ??_C@_0O@HLIE@EXTERNALVALUE?$AA@ 100b4c34     KZOESYAA.OBJ
 0003:00011c44       ??_C@_07EHEP@EXCLUDE?$AA@  100b4c44     KZOESYAA.OBJ
 0003:00011c50       ??_C@_09DPNM@ERREL_TOK?$AA@ 100b4c50     KZOESYAA.OBJ
 0003:00011c5c       ??_C@_0L@GJDI@ERREL_LINK?$AA@ 100b4c5c     KZOESYAA.OBJ
 0003:00011c6c       ??_C@_09PPA@ERENT_TOK?$AA@ 100b4c6c     KZOESYAA.OBJ
 0003:00011c78       ??_C@_09GJOF@ERATT_TOK?$AA@ 100b4c78     KZOESYAA.OBJ
 0003:00011c84       ??_C@_0L@LMLE@EDITSTRING?$AA@ 100b4c84     KZOESYAA.OBJ
 0003:00011c94       ??_C@_05GHOJ@ECINC?$AA@    100b4c94     KZOESYAA.OBJ
 0003:00011c9c       ??_C@_05KCFA@ECEXC?$AA@    100b4c9c     KZOESYAA.OBJ
 0003:00011ca4       ??_C@_07FBPG@ECEOPER?$AA@  100b4ca4     KZOESYAA.OBJ
 0003:00011cb0       ??_C@_05GCOG@ECDEL?$AA@    100b4cb0     KZOESYAA.OBJ
 0003:00011cb8       ??_C@_04FPMK@ECCR?$AA@     100b4cb8     KZOESYAA.OBJ
 0003:00011cc0       ??_C@_05NDAD@ECCAN?$AA@    100b4cc0     KZOESYAA.OBJ
 0003:00011cc8       ??_C@_05OAI@ECACC?$AA@     100b4cc8     KZOESYAA.OBJ
 0003:00011cd0       ??_C@_08DECF@DUPRELIN?$AA@ 100b4cd0     KZOESYAA.OBJ
 0003:00011cdc       ??_C@_08KCDD@DUPENTIN?$AA@ 100b4cdc     KZOESYAA.OBJ
 0003:00011ce8       ??_C@_0L@KGBA@DOMAINTYPE?$AA@ 100b4ce8     KZOESYAA.OBJ
 0003:00011cf8       ??_C@_08DJGK@DLL_NAME?$AA@ 100b4cf8     KZOESYAA.OBJ
 0003:00011d04       ??_C@_0L@JBCC@DFT_SERVER?$AA@ 100b4d04     KZOESYAA.OBJ
 0003:00011d14       ??_C@_0L@HPIJ@DFT_DBNAME?$AA@ 100b4d14     KZOESYAA.OBJ
 0003:00011d24       ??_C@_08EALH@DERIVEDF?$AA@ 100b4d24     KZOESYAA.OBJ
 0003:00011d30       ??_C@_07FJF@DERIVED?$AA@   100b4d30     KZOESYAA.OBJ
 0003:00011d3c       ??_C@_06FMHL@DELETE?$AA@   100b4d3c     KZOESYAA.OBJ
 0003:00011d44       ??_C@_0O@GDML@DECIMALFORMAT?$AA@ 100b4d44     KZOESYAA.OBJ
 0003:00011d54       ??_C@_07OOBD@DECIMAL?$AA@  100b4d54     KZOESYAA.OBJ
 0003:00011d60       ??_C@_06PHCI@DBNAME?$AA@   100b4d60     KZOESYAA.OBJ
 0003:00011d68       ??_C@_08PKJA@DATATYPE?$AA@ 100b4d68     KZOESYAA.OBJ
 0003:00011d74       ??_C@_0L@PPLE@DATARECORD?$AA@ 100b4d74     KZOESYAA.OBJ
 0003:00011d84       ??_C@_09JEIA@DATAFIELD?$AA@ 100b4d84     KZOESYAA.OBJ
 0003:00011d90       ??_C@_07IMJA@CR_DATE?$AA@  100b4d90     KZOESYAA.OBJ
 0003:00011d9c       ??_C@_06JBCM@CREATE?$AA@   100b4d9c     KZOESYAA.OBJ
 0003:00011da4       ??_C@_0BD@DICE@CONTEXTRESTRICTION?$AA@ 100b4da4     KZOESYAA.OBJ
 0003:00011dbc       ??_C@_08JHJH@CASESENS?$AA@ 100b4dbc     KZOESYAA.OBJ
 0003:00011dc8       ??_C@_07KJPL@CARDMIN?$AA@  100b4dc8     KZOESYAA.OBJ
 0003:00011dd4       ??_C@_07EKKN@CARDMAX?$AA@  100b4dd4     KZOESYAA.OBJ
 0003:00011de0       ??_C@_0L@CDIB@XVAATT_TOK?$AA@ 100b4de0     KZOESYAA.OBJ
 0003:00011df0       ??_C@_08FEIG@AUTO_SEQ?$AA@ 100b4df0     KZOESYAA.OBJ
 0003:00011dfc       ??_C@_0BD@GGKI@AUTOLOADFROMPARENT?$AA@ 100b4dfc     KZOESYAA.OBJ
 0003:00011e14       ??_C@_0L@CCEG@AUTOCREATE?$AA@ 100b4e14     KZOESYAA.OBJ
 0003:00011e24       ??_C@_0BB@CGIJ@ATTRIBUTEDECIMAL?$AA@ 100b4e24     KZOESYAA.OBJ
 0003:00011e38       ??_C@_0O@HAFL@ATTRIBUTETYPE?$AA@ 100b4e38     KZOESYAA.OBJ
 0003:00011e48       ??_C@_08FEIL@APDM_TOK?$AA@ 100b4e48     KZOESYAA.OBJ
 0003:00011e54       ??_C@_0L@NAIP@APP_SOURCE?$AA@ 100b4e54     KZOESYAA.OBJ
 0003:00011e64       ??_C@_09MKDP@APP_QXODS?$AA@ 100b4e64     KZOESYAA.OBJ
 0003:00011e70       ??_C@_09BKCL@APP_QLPLR?$AA@ 100b4e70     KZOESYAA.OBJ
 0003:00011e7c       ??_C@_0L@KNHE@APP_SHARED?$AA@ 100b4e7c     KZOESYAA.OBJ
 0003:00011e8c       ??_C@_09HKKN@APP_LOCAL?$AA@ 100b4e8c     KZOESYAA.OBJ
 0003:00011e98       ??_C@_0L@GHPH@APP_ADOBIN?$AA@ 100b4e98     KZOESYAA.OBJ
 0003:00011ea8       ??_C@_07LAPC@APP_DLL?$AA@  100b4ea8     KZOESYAA.OBJ
 0003:00011eb4       ??_C@_0O@HKIJ@APP_DFLT_WDOD?$AA@ 100b4eb4     KZOESYAA.OBJ
 0003:00011ec4       ??_C@_08NHNM@APP_NAME?$AA@ 100b4ec4     KZOESYAA.OBJ
 0003:00011ed0       ??_C@_0L@JFF@ZEIDON_SHR?$AA@ 100b4ed0     KZOESYAA.OBJ
 0003:00011ee0       ??_C@_0L@GEFJ@ZEIDON_LOC?$AA@ 100b4ee0     KZOESYAA.OBJ
 0003:00011ef0       ??_C@_0L@NPMB@ZEIDON_SYS?$AA@ 100b4ef0     KZOESYAA.OBJ
 0003:00011f00       ??_C@_0L@DLBH@ZEIDON_BIN?$AA@ 100b4f00     KZOESYAA.OBJ
 0003:00011f10       ??_C@_0BC@JION@REGULAREXPRESSION?$AA@ 100b4f10     KZOESYAA.OBJ
 0003:00011f28       ??_C@_0L@EDPP@TABLEENTRY?$AA@ 100b4f28     KZOESYAA.OBJ
 0003:00011f38       ??_C@_0P@NJID@NLS_TABLEENTRY?$AA@ 100b4f38     KZOESYAA.OBJ
 0003:00011f4c       ??_C@_07OLKB@CONTEXT?$AA@  100b4f4c     KZOESYAA.OBJ
 0003:00011f58       ??_C@_05NMBE@MODEL?$AA@    100b4f58     KZOESYAA.OBJ
 0003:00011f60       ??_C@_06EIOP@DOMAIN?$AA@   100b4f60     KZOESYAA.OBJ
 0003:00011f68       ??_C@_06BLIJ@ATTRIB?$AA@   100b4f68     KZOESYAA.OBJ
 0003:00011f70       ??_C@_0M@PNOD@CHILDENTITY?$AA@ 100b4f70     KZOESYAA.OBJ
 0003:00011f80       ??_C@_06NIFE@ENTITY?$AA@   100b4f80     KZOESYAA.OBJ
 0003:00011f88       ??_C@_01FPMG@z?$AA@        100b4f88     KZOESYAA.OBJ
 0003:00011f8c       ??_C@_0N@DNNP@kzomdmoi?4xdm?$AA@ 100b4f8c     KZOESYAA.OBJ
 0003:00011f9c       ??_C@_0L@LFFP@zeidon?4xdm?$AA@ 100b4f9c     KZOESYAA.OBJ
 0003:00011fac       ??_C@_0L@JLJG@zeidon?4app?$AA@ 100b4fac     KZOESYAA.OBJ
 0003:00011fbc       ??_C@_06HLLH@ZEIDON?$AA@   100b4fbc     KZOESYAA.OBJ
 0003:00011fc4       ??_C@_04EJNG@?4dll?$AA@    100b4fc4     KZOESYAA.OBJ
 0003:00011fcc       ??_C@_04NPBE@?4xod?$AA@    100b4fcc     KZOESYAA.OBJ
 0003:00011fd4       ??_C@_0N@OAJM@kzoengaa?4dll?$AA@ 100b4fd4     KZOESYAA.OBJ
 0003:00011fe4       ??_C@_0N@FLGE@kzoengwa?4exe?$AA@ 100b4fe4     KZOESYAA.OBJ
 0003:00011ff4       ??_C@_0BH@IOGD@?1SHAREMEM?1KZOENGAA?4SEG?$AA@ 100b4ff4     KZOESYAA.OBJ
 0003:00012010       ??_C@_08BHMH@1?40b0?5?5?5?$AA@ 100b5010     KZOESYAA.OBJ
 0003:0001201c       ??_C@_08LNAM@1?40a2?5?5?5?$AA@ 100b501c     KZOESYAA.OBJ
 0003:00012028       ??_C@_0BO@FOCN@ZEIDON?5MUTEX?5?9?9?5NETWORK?5CHAIN?$AA@ 100b5028     KZOESYAA.OBJ
 0003:0001204c       ??_C@_0CB@LBIA@ZEIDON?5MUTEX?5?9?9?5PROC?5CHAIN?5WRITE@ 100b504c     KZOESYAA.OBJ
 0003:00012074       ??_C@_0BL@CPDB@ZEIDON?5MUTEX?5?9?9?5PROC?5CHAIN?$AA@ 100b5074     KZOESYAA.OBJ
 0003:00012094       ??_C@_0BM@DIIE@ZEIDON?5MUTEX?5?9?9?5TASKPROCESS?$AA@ 100b5094     KZOESYAA.OBJ
 0003:000120b8       ??_C@_0BL@OEL@ZEIDON?5MUTEX?5?9?9?5ENTITY?5KEY?$AA@ 100b50b8     KZOESYAA.OBJ
 0003:000120d8       ??_C@_0BG@GGGI@ZEIDON?5MUTEX?5?9?9?5APPLA?$AA@ 100b50d8     KZOESYAA.OBJ
 0003:000120f4       ??_C@_0CB@EGB@ZEIDON?5MUTEX?5?9?9?5PESSIMISTIC?5LOCK@ 100b50f4     KZOESYAA.OBJ
 0003:0001211c       ??_C@_0BM@PPAA@ZEIDON?5MUTEX?5?9?9?5DEBUGCHANGE?$AA@ 100b511c     KZOESYAA.OBJ
 0003:00012140       ??_C@_0BG@OLDG@ZEIDON?5MUTEX?5?9?9?5MUTEX?$AA@ 100b5140     KZOESYAA.OBJ
 0003:0001215c       ??_C@_0CB@FGNI@ZEIDON?5MUTEX?5?9?9?5TASK?5CHAIN?5WRITE@ 100b515c     KZOESYAA.OBJ
 0003:00012184       ??_C@_0BL@OFOI@ZEIDON?5MUTEX?5?9?9?5TASK?5CHAIN?$AA@ 100b5184     KZOESYAA.OBJ
 0003:000121a4       ??_C@_0BL@FIFA@ZEIDON?5MUTEX?5?9?9?5SHARED?5MEM?$AA@ 100b51a4     KZOESYAA.OBJ
 0003:000121c4       ??_C@_0BM@GEKC@ZEIDON?5MUTEX?5?9?9?5ANCHOR?5INIT?$AA@ 100b51c4     KZOESYAA.OBJ
 0003:000121e8       ??_C@_0BN@JMMP@ZEIDON?5MUTEX?5?9?9?5ANCHOR?5BLOCK?$AA@ 100b51e8     KZOESYAA.OBJ
 0003:0001220c       ??_C@_0CC@CFG@ZEIDON?5MUTEX?5?9?9?5MEMORY?5ALLOCATIO@ 100b520c     KZOESYAA.OBJ
 0003:00012234       ??_C@_0BJ@OCLO@ZEIDON?5MUTEX?5?9?9?5INITTERM?$AA@ 100b5234     KZOESYAA.OBJ
 0003:00012254       ??_C@_0DC@JNDE@Exceeded?5Process?5Limit?5?4?4?4?5Conta@ 100b5254     KZOESYAA.OBJ
 0003:00012290       ??_C@_0BH@MPNN@Zeidon?5Object?5Services?$AA@ 100b5290     KZOESYAA.OBJ
 0003:000122ac       ??_C@_0CH@FEHM@SysSetDefaultTaskForProcess?5Depr@ 100b52ac     KZOESYAA.OBJ
 0003:000122dc       ??_C@_0FF@GKII@STP?5S?1V?1T?3?5?$CFs?10x?$CF08x?10x?$CF08x?5?5?$DN?$DN?$DO@ 100b52dc     KZOESYAA.OBJ
 0003:00012344       ??_C@_0DF@MIGE@STP?5S?1V?1T?3?5?$CFs?10x?$CF08x?10x?$CF08x?5?5?$DN?$DN?$DO@ 100b5344     KZOESYAA.OBJ
 0003:00012384       ??_C@_0DJ@GGNM@Session?5Id?3?5?$CFs?5?5?$DN?$DN?$DO?5?$CFs?5?$CI?$CFs?$CJ?5?5Thr@ 100b5384     KZOESYAA.OBJ
 0003:000123c8       ??_C@_03JBJA@ON?5?$AA@     100b53c8     KZOESYAA.OBJ
 0003:000123cc       ??_C@_06JJCH@0x?$CF08x?$AA@ 100b53cc     KZOESYAA.OBJ
 0003:000123d4       ??_C@_0N@OCBP@WebDirectory?$AA@ 100b53d4     KZOESYAA.OBJ
 0003:000123e4       ??_C@_09KCAL@FocusCtrl?$AA@ 100b53e4     KZOESYAA.OBJ
 0003:000123f0       ??_C@_06FCEH@Window?$AA@   100b53f0     KZOESYAA.OBJ
 0003:000123f8       ??_C@_0L@CJHF@WindowName?$AA@ 100b53f8     KZOESYAA.OBJ
 0003:00012408       ??_C@_06FPEO@Dialog?$AA@   100b5408     KZOESYAA.OBJ
 0003:00012410       ??_C@_0L@IKFC@DialogName?$AA@ 100b5410     KZOESYAA.OBJ
 0003:00012420       ??_C@_08GACC@KZXMLPGO?$AA@ 100b5420     KZOESYAA.OBJ
 0003:0001242c       ??_C@_0L@PIKM@BannerName?$AA@ 100b542c     KZOESYAA.OBJ
 0003:0001243c       ??_C@_0BC@GCAG@DynamicBannerName?$AA@ 100b543c     KZOESYAA.OBJ
 0003:00012454       ??_C@_0GH@BDLJ@RegisterZeidonApplication?5?$DN?$DN?$DN?$DN?$DN?$DN@ 100b5454     KZOESYAA.OBJ
 0003:000124d0       ??_C@_0GC@PKCM@RegisterZeidonApplication?5?$DN?$DN?$DN?$DN?$DN?$DN@ 100b54d0     KZOESYAA.OBJ
 0003:00012548       ??_C@_0BG@KHAA@InitCriticalSection?3?5?$AA@ 100b5548     KZOESYAA.OBJ
 0003:00012564       ??_C@_0GN@DNGN@The?5Zeidon?5Object?5Engine?5hasn?8t?5@ 100b5564     KZOESYAA.OBJ
 0003:000125e8       ??_C@_0BH@IIPE@KZOENGWA?5?9?5Termination?$AA@ 100b55e8     KZOESYAA.OBJ
 0003:00012604       ??_C@_0FJ@COG@?$CIUnr?$CJ?5Cleaning?5up?5Registered?5S?1T@ 100b5604     KZOESYAA.OBJ
 0003:00012670       ??_C@_04PJGI@YYYY?$AA@     100b5670     KZOESYAA.OBJ
 0003:00012678       ??_C@_03PHAO@YYY?$AA@      100b5678     KZOESYAA.OBJ
 0003:0001267c       ??_C@_03PGJ@?5AM?$AA@      100b567c     KZOESYAA.OBJ
 0003:00012680       ??_C@_02IBO@MI?$AA@        100b5680     KZOESYAA.OBJ
 0003:00012684       ??_C@_01HMO@?$CC?$AA@      100b5684     KZOESYAA.OBJ
 0003:00012688       ??_C@_01PBHI@H?$AA@        100b5688     KZOESYAA.OBJ
 0003:0001268c       ??_C@_02OOIJ@HH?$AA@       100b568c     KZOESYAA.OBJ
 0003:00012690       ??_C@_01PILM@$?$AA@        100b5690     KZOESYAA.OBJ
 0003:00012694       ??_C@_0N@CFAC@mmm?5dd?0?5yyyy?$AA@ 100b5694     KZOESYAA.OBJ
 0003:000126a4       ??_C@_08NNHK@mm?1dd?1yy?$AA@ 100b56a4     KZOESYAA.OBJ
 0003:000126b0       ??_C@_03JNKA@SPA?$AA@      100b56b0     KZOESYAA.OBJ
 0003:000126b4       ??_C@_03IDPK@POR?$AA@      100b56b4     KZOESYAA.OBJ
 0003:000126b8       ??_C@_03NOPN@FRC?$AA@      100b56b8     KZOESYAA.OBJ
 0003:000126bc       ??_C@_03CHCO@DEU?$AA@      100b56bc     KZOESYAA.OBJ
 0003:000126c0       ??_C@_03PLJD@ENU?$AA@      100b56c0     KZOESYAA.OBJ
 0003:000126c4       ??_C@_0CB@BDDO@No?5terminating?5?8?$CF?8?5in?5ZEIDON?4APP@ 100b56c4     KZOESYAA.OBJ
 0003:000126ec       ??_C@_0L@PEHO@zeidon?4ini?$AA@ 100b56ec     KZOESYAA.OBJ
 0003:000126fc       ??_C@_0CK@LCNC@Object?5Services?5Running?5in?5Share@ 100b56fc     KZOESYAA.OBJ
 0003:00012730       ??_C@_0CK@EGPN@Object?5Services?5Running?5in?5Serve@ 100b5730     KZOESYAA.OBJ
 0003:00012764       ??_C@_0CL@NLJM@Object?5Services?5Initialization?5c@ 100b5764     KZOESYAA.OBJ
 0003:00012798       ??_C@_0O@CGLF@MemoryCeiling?$AA@ 100b5798     KZOESYAA.OBJ
 0003:000127a8       ??_C@_0BF@IKIP@MemoryTraceThreshold?$AA@ 100b57a8     KZOESYAA.OBJ
 0003:000127c4       ??_C@_03LDNL@TMP?$AA@      100b57c4     KZOESYAA.OBJ
 0003:000127c8       ??_C@_04FEEL@TEMP?$AA@     100b57c8     KZOESYAA.OBJ
 0003:000127d0       ??_C@_01HAF@?8?$AA@        100b57d0     KZOESYAA.OBJ
 0003:000127d4       ??_C@_02NCFH@?5?8?$AA@     100b57d4     KZOESYAA.OBJ
 0003:000127d8       ??_C@_0L@DBJB@InitAnchor?$AA@ 100b57d8     KZOESYAA.OBJ
 0003:000127e8       ??_C@_09CJOG@OE?5Anchor?$AA@ 100b57e8     KZOESYAA.OBJ
 0003:000127f4       ??_C@_09ODBK@AllocSize?$AA@ 100b57f4     KZOESYAA.OBJ
 0003:00012800       ??_C@_0FE@PDLP@fnFreeLocalAnchorBlock?5Page?5Tabl@ 100b5800     KZOESYAA.OBJ
 0003:00012864       ??_C@_0BA@KLMC@Unknown?5message?$AA@ 100b5864     KZOESYAA.OBJ
 0003:00012878       ??_C@_0BL@LBEN@Error?5destroying?5mutex?3?5?$CFs?$AA@ 100b5878     KZOESYAA.OBJ
 0003:00012898       ??_C@_0CK@JGNK@Internal?5error?5?9?9?5DuplicateHandl@ 100b5898     KZOESYAA.OBJ
 0003:000128cc       ??_C@_0BO@MJGK@?$CIsy?$CJ?5DuplicateHandle?5Failed?3?5?$AA@ 100b58cc     KZOESYAA.OBJ
 0003:000128f0       ??_C@_0BL@LLDD@?$CIsy?$CJ?5DuplicateHandle?5RC?5?$DN?5?$AA@ 100b58f0     KZOESYAA.OBJ
 0003:00012910       ??_C@_0BF@INJH@Zeidon?5Object?5Engine?$AA@ 100b5910     KZOESYAA.OBJ
 0003:0001292c       ??_C@_0CK@MMNK@Internal?5Error?5?9?5lpRequestProces@ 100b592c     KZOESYAA.OBJ
 0003:00012960       ??_C@_0CI@MHCA@Received?5a?5message?5while?5in?5Serv@ 100b5960     KZOESYAA.OBJ
 0003:00012990       ??_C@_0BJ@LNJI@Error?5Calling?5SendMsg?$CI?5?$CJ?$AA@ 100b5990     KZOESYAA.OBJ
 0003:000129b0       ??_C@_0M@EGB@AllocShared?$AA@ 100b59b0     KZOESYAA.OBJ
 0003:000129c0       ??_C@_0M@MIHA@Zeidon?5Core?$AA@ 100b59c0     KZOESYAA.OBJ
 0003:000129d0       ??_C@_0CE@PGOJ@Check?5Pointer?5Error?5for?5TableInd@ 100b59d0     KZOESYAA.OBJ
 0003:000129fc       ??_C@_0DJ@NCNE@Check?5Pointer?5Error?5for?5TableInd@ 100b59fc     KZOESYAA.OBJ
 0003:00012a40       ??_C@_07OCOK@No?5view?$AA@ 100b5a40     KZOESYAA.OBJ
 0003:00012a4c       ??_C@_0DI@JMDM@Invalid?5pointer?5handle?5for?5free?3@ 100b5a4c     KZOESYAA.OBJ
 0003:00012a90       ??_C@_0CP@HMMO@KZOE0012?5?9?5Error?5allocating?5memo@ 100b5a90     KZOESYAA.OBJ
 0003:00012ac8       ??_C@_09MIBB@GetAnchor?$AA@ 100b5ac8     KZOESYAA.OBJ
 0003:00012ad4       ??_C@_0BE@LDJC@g_lProcessIdx?5?$CB?$DN?5?91?$AA@ 100b5ad4     KZOESYAA.OBJ
 0003:00012aec       ??_C@_0EM@LLEE@fnGetAnchorBlock?5Page?5Table?5mapp@ 100b5aec     KZOESYAA.OBJ
 0003:00012b48       ??_C@_0CJ@LGIB@?$CIsy?$CJ?5SysStartObjectServices?5star@ 100b5b48     KZOESYAA.OBJ
 0003:00012b7c       ??_C@_08IBID@IBM?5OS?12?$AA@ 100b5b7c     KZOESYAA.OBJ
 0003:00012b88       ??_C@_0BB@CFLM@MS?5Windows?5NT?1XP?$AA@ 100b5b88     KZOESYAA.OBJ
 0003:00012b9c       ??_C@_0BB@FLLN@MS?5Windows?595?198?$AA@ 100b5b9c     KZOESYAA.OBJ
 0003:00012bb0       ??_C@_0P@FAPI@MS?5Windows?53?4x?$AA@ 100b5bb0     KZOESYAA.OBJ
 0003:00012bc4       ??_C@_03DMDD@?5?9?5?$AA@   100b5bc4     KZOESYAA.OBJ
 0003:00012bc8       ??_C@_0BO@GCKC@Zeidon?5?9?5Object?5Services?5Init?$AA@ 100b5bc8     KZOESYAA.OBJ
 0003:00012bec       ??_C@_0CI@JNJD@Couldn?8t?5find?5ZEIDON_BIN?5specifi@ 100b5bec     KZOESYAA.OBJ
 0003:00012c1c       ??_C@_0DO@NGGI@Invalid?5pointer?5handle?5?$CInull?$CJ?5at@ 100b5c1c     KZOESYAA.OBJ
 0003:00012c68       ??_C@_0DG@KGPA@Invalid?5pointer?5handle?5?$CIget?$CJ?5?3?5h@ 100b5c68     KZOESYAA.OBJ
 0003:00012ca8       ??_C@_0BO@IFBI@Invalid?5pointer?3?5hi?9bit?5set?$CB?$CB?$AA@ 100b5ca8     KZOESYAA.OBJ
 0003:00012ccc       ??_C@_0CC@EPII@Invalid?5pointer?3?5hi?9bit?5not?5set?$CB@ 100b5ccc     KZOESYAA.OBJ
 0003:00012cf4       ??_C@_0EC@HOEL@fnMapFile?5Page?5Table?5conflict?5at@ 100b5cf4     KZOESYAA.OBJ
 0003:00012d44       ??_C@_0BF@NNIF@Out?5of?5memory?5pages?$CB?$AA@ 100b5d44     KZOESYAA.OBJ
 0003:00012d60       ??_C@_0L@OCNM@Diagnostic?$AA@ 100b5d60     KZOESYAA.OBJ
 0003:00012d70       ??_C@_0DM@OLK@Message?5Handler?5Error?5opening?5lo@ 100b5d70     KZOESYAA.OBJ
 0003:00012db8       ??_C@_0M@NKGM@ServerDebug?$AA@ 100b5db8     KZOESYAA.OBJ
 0003:00012dc8       ??_C@_0CE@OFLB@SysMessageBox?5Title?3?5?$CFs?5?5?5Error?3@ 100b5dc8     KZOESYAA.OBJ
 0003:00012df4       ??_C@_0BF@FCLN@OE?5Trace?5Unavailable?$AA@ 100b5df4     KZOESYAA.OBJ
 0003:00012e10       ??_C@_0P@EADK@?$CFs?5Task?$CI?$CFx?$CJ?5?3?5?$AA@ 100b5e10     KZOESYAA.OBJ
 0003:00012e24       ??_C@_0BI@FAGA@YYYY?9MM?9DD?5HH?3MI?3SS?4999?$AA@ 100b5e24     KZOESYAA.OBJ
 0003:00012e40       ??_C@_0N@FMCK@HH?3MI?3SS?4999?$AA@ 100b5e40     KZOESYAA.OBJ
 0003:00012e50       ??_C@_0BD@FBHK@?$CIsy?$CJ?5Logon?5Userid?$DN?$AA@ 100b5e50     KZOESYAA.OBJ
 0003:00012e68       ??_C@_0BC@GEKD@?$CFsZTF_?$CFlx_?$CFlx?4TMP?$AA@ 100b5e68     KZOESYAA.OBJ
 0003:00012e80       ??_C@_0BG@OCKP@Zeidon?5MoveFile?5Error?$AA@ 100b5e80     KZOESYAA.OBJ
 0003:00012e9c       ??_C@_0EP@BOCM@SysRenameFile?5MoveFile?5RC?3?5?$CFld?5?5@ 100b5e9c     KZOESYAA.OBJ
 0003:00012efc       ??_C@_0BE@CEDG@?$CIsy?$CJ?5Reason?5code?5?$DN?5?$AA@ 100b5efc     KZOESYAA.OBJ
 0003:00012f14       ??_C@_0BL@LAPP@?$CIsy?$CJ?5Could?5not?5open?5file?3?5?$AA@ 100b5f14     KZOESYAA.OBJ
 0003:00012f34       ??_C@_0CM@PPJA@SysDeleteFile?5Error?3?5?$CFs?5?5?5File?3?5@ 100b5f34     KZOESYAA.OBJ
 0003:00012f68       ??_C@_08IHCD@0x?$CF08x?$CFs?$AA@ 100b5f68     KZOESYAA.OBJ
 0003:00012f74       ??_C@_0EA@ECMJ@SysOpenFile?5for?5file?3?5?$CFs?5failed?5@ 100b5f74     KZOESYAA.OBJ
 0003:00012fc0       ??_C@_0CL@CHJM@SysReadLine?5?4?4?4?5buffer?5acquisiti@ 100b5fc0     KZOESYAA.OBJ
 0003:00012ff4       ??_C@_0BO@JEGM@SysReadLine?5?4?4?4?5no?5open?5files?$AA@ 100b5ff4     KZOESYAA.OBJ
 0003:00013018       ??_C@_0BK@NLFO@SysReadLine?5null?5OpenFile?$AA@ 100b6018     KZOESYAA.OBJ
 0003:00013038       ??_C@_02PIMC@?$AN?6?$AA@   100b6038     KZOESYAA.OBJ
 0003:0001303c       ??_C@_0FG@EBEM@fnSysCloseFileWithControl?5?$CFs?5?5?5H@ 100b603c     KZOESYAA.OBJ
 0003:000130a4       ??_C@_0CE@FPAN@SysSetFileTime?3?5Couldn?8t?5open?5fi@ 100b60a4     KZOESYAA.OBJ
 0003:000130d0       ??_C@_0BA@BLPA@?$DP?$DP?$DP?$DP?$DP?$DP?$DP?$DP?$DP?$DP?$DP?$DP?$DP?$DP?$DP?$AA@ 100b60d0     KZOESYAA.OBJ
 0003:000130e4       ??_C@_0BM@PPDE@?$CF4d?$CF02d?$CF02d?$CF02d?$CF02d?$CF02d?$CF03d?$AA@ 100b60e4     KZOESYAA.OBJ
 0003:00013108       ??_C@_08GPBK@zWinSock?$AA@ 100b6108     KZOESYAA.OBJ
 0003:00013114       ??_C@_08NCBN@kzoengaa?$AA@ 100b6114     KZOESYAA.OBJ
 0003:00013120       ??_C@_0M@BHAM@GetDateTime?$AA@ 100b6120     KZOESYAA.OBJ
 0003:00013130       ??_C@_0BM@GEFP@Invalid?5type?5for?5Later?5Date?$AA@ 100b6130     KZOESYAA.OBJ
 0003:00013154       ??_C@_0BL@EONO@SysGetDateTimeDifference?3?5?$AA@ 100b6154     KZOESYAA.OBJ
 0003:00013174       ??_C@_0BM@GMLB@Invalid?5type?5for?5Early?5Date?$AA@ 100b6174     KZOESYAA.OBJ
 0003:00013198       ??_C@_07BDOP@SY00101?$AA@  100b6198     KZOESYAA.OBJ
 0003:000131a4       ??_C@_0BA@POOP@System?5Services?$AA@ 100b61a4     KZOESYAA.OBJ
 0003:000131b8       ??_C@_0BJ@PAML@Load?5failed?5for?3?5?$CFs?5?$CI?$CFs?$CJ?$AA@ 100b61b8     KZOESYAA.OBJ
 0003:000131d8       ??_C@_0GB@KOIH@?$CIsy?$CJ?5SysLoadLibrary?5failed?5to?5lo@ 100b61d8     KZOESYAA.OBJ
 0003:0001324c       ??_C@_0EE@LHFB@?$CIsy?$CJ?5SysGetProc?5failed?5with?5erro@ 100b624c     KZOESYAA.OBJ
 0003:000132a0       ??_C@_0DM@HPCG@FreeLibrary?5did?5not?5free?5?$CI0x?$CF08x@ 100b62a0     KZOESYAA.OBJ
 0003:000132e8       ??_C@_0EA@DNMP@FreeLibrary?5sent?5message?5?$CI0x?$CF08x@ 100b62e8     KZOESYAA.OBJ
 0003:00013334       ??_C@_0BC@GKOC@?$FLObject?5Services?$FN?$AA@ 100b6334     KZOESYAA.OBJ
 0003:0001334c       ??_C@_0P@HMIB@?$FLEncyclopedia?$FN?$AA@ 100b634c     KZOESYAA.OBJ
 0003:00013360       ??_C@_0L@IOL@zeidon?4in?$HO?$AA@ 100b6360     KZOESYAA.OBJ
 0003:00013370       ??_C@_05DBPH@?$CFs?$DN?$CFs?$AA@ 100b6370     KZOESYAA.OBJ
 0003:00013378       ??_C@_0BJ@KAEF@Error?5creating?5directory?$AA@ 100b6378     KZOESYAA.OBJ
 0003:00013398       ??_C@_0CB@OHMI@Error?5in?5directory?5specification@ 100b6398     KZOESYAA.OBJ
 0003:000133c0       ??_C@_0N@BFPA@MyWindowType?$AA@ 100b63c0     KZOESYAA.OBJ
 0003:000133d0       ??_C@_0CM@HOD@?$CIsy?$CJ?5Starting?5context?9sensitive?5@ 100b63d0     KZOESYAA.OBJ
 0003:00013404       ??_C@_0BK@OOIH@?$CIsy?$CJ?5Starting?5help?5with?3?5?$AA@ 100b6404     KZOESYAA.OBJ
 0003:00013424       ??_C@_08NHGK@?$DOmainwin?$AA@ 100b6424     KZOESYAA.OBJ
 0003:00013430       ??_C@_04MCON@?4CHM?$AA@    100b6430     KZOESYAA.OBJ
 0003:00013438       ??_C@_0M@DADJ@winhelp?4hlp?$AA@ 100b6438     KZOESYAA.OBJ
 0003:00013448       ??_C@_0M@LGM@SYSTEM?5HELP?$AA@ 100b6448     KZOESYAA.OBJ
 0003:00013458       ??_C@_0P@BGCK@?5?$DN?5?$CFlf?5seconds?$AA@ 100b6458     KZOESYAA.OBJ
 0003:0001346c       ??_C@_03IPNG@0?40?$AA@     100b646c     KZOESYAA.OBJ
 0003:00013470       ??_C@_02JBAA@?$CFf?$AA@    100b6470     KZOESYAA.OBJ
 0003:00013474       ??_C@_04GBEO@?$CF?4?$CKf?$AA@ 100b6474     KZOESYAA.OBJ
 0003:0001347c       ??_C@_0CC@GDM@?$CIZDecimal?$CJ?5Precision?5?$CIin?5bits?$CJ?5?$DN@ 100b647c     KZOESYAA.OBJ
 0003:000134a4       ??_C@_0CO@IFCF@?$CIZDecimal?$CJ?5Using?5default?5zDecima@ 100b64a4     KZOESYAA.OBJ
 0003:000134dc       ??_C@_0BI@NCB@Error?5creating?5mutex?5?$CFs?$AA@ 100b64dc     KZOESYAA.OBJ
 0003:000134f8       ??_C@_0BL@OJCG@Mutex?5?8?$CFs?8?5already?5created?$AA@ 100b64f8     KZOESYAA.OBJ
 0003:00013518       ??_C@_0BK@ODA@Error?5destroying?5mutex?5?$CFs?$AA@ 100b6518     KZOESYAA.OBJ
 0003:00013538       ??_C@_0CA@JEKI@Trying?5to?5destroy?5NULL?5Mutex?5?$CFs?$AA@ 100b6538     KZOESYAA.OBJ
 0003:00013560       ??_C@_0BN@NAII@Trying?5to?5lock?5NULL?5Mutex?5?$CFs?$AA@ 100b6560     KZOESYAA.OBJ
 0003:00013584       ??_C@_0BJ@HDOA@Error?5releasing?5mutex?5?$CFs?$AA@ 100b6584     KZOESYAA.OBJ
 0003:000135a4       ??_C@_0BP@PNEP@Trying?5to?5unlock?5NULL?5Mutex?5?$CFs?$AA@ 100b65a4     KZOESYAA.OBJ
 0003:000135cc       ??_C@_09PEMB@MutexFind?$AA@ 100b65cc     KZOESYAA.OBJ
 0003:000135d8       ??_C@_09KKLG@Null?5task?$AA@ 100b65d8     KZOESYAA.OBJ
 0003:000135e4       ??_C@_0CD@KDEH@fnMutexCreate?5Invalid?5mutex?5name@ 100b65e4     KZOESYAA.OBJ
 0003:00013610       ??_C@_0BE@IMPM@Error?5locking?5mutex?$AA@ 100b6610     KZOESYAA.OBJ
 0003:00013628       ??_C@_0CB@MGPE@?$CItm?$CJ?5Error?5trying?5to?5lock?5mutex?5@ 100b6628     KZOESYAA.OBJ
 0003:00013650       ??_C@_0EG@GHCJ@Task?50x?$CF08x?5?$CIprocess?5id?3?$CFd?$CJ?5is?5w@ 100b6650     KZOESYAA.OBJ
 0003:000136a4       ??_C@_0CH@OFLB@Mutex?5?8?$CFs?8?5is?5unlocked?5?5?5Process@ 100b66a4     KZOESYAA.OBJ
 0003:000136d4       ??_C@_0CN@GMLN@Mutex?5?8?$CFs?8?5locked?5by?5Task?3?5?$CFd?5?5P@ 100b66d4     KZOESYAA.OBJ
 0003:0001370c       ??_C@_0BK@INMI@MutexQueryStatus?5?$CFs?5?9?9?5OK?$AA@ 100b670c     KZOESYAA.OBJ
 0003:0001372c       ??_C@_0CD@LOL@MutexQueryStatus?5?$CFs?5?9?9?5FAILED?5?$CI?$CF@ 100b672c     KZOESYAA.OBJ
 0003:00013758       ??_C@_0CE@DCCM@MutexQueryStatus?5?$CFs?5?9?9?5Checking?5@ 100b6758     KZOESYAA.OBJ
 0003:00013784       ??_C@_0BH@FCNG@?5?9?9?9?9?5MUTEX?5LIST?5?9?9?9?9?5?$AA@ 100b6784     KZOESYAA.OBJ
 0003:000137a0       ??_C@_08EIPD@KZOESYAA?$AA@ 100b67a0     KZOESYAA.OBJ
 0003:000137ac       ??_C@_0CI@DLDL@SysMainWndProc?5for?5Tomcat?5sessio@ 100b67ac     KZOESYAA.OBJ
 0003:000137dc       ??_C@_0DP@DCII@SysInitApplicationWindow?5Class?3?5@ 100b67dc     KZOESYAA.OBJ
 0003:00013828       ??_C@_0N@JELK@ObjectEngine?$AA@ 100b6828     KZOESYAA.OBJ
 0003:00013838       ??_C@_0L@EMHA@ServerMode?$AA@ 100b6838     KZOESYAA.OBJ
 0003:00013848       ??_C@_08HAKP@KZOESRVC?$AA@ 100b6848     KZOESYAA.OBJ
 0003:00013854       ??_C@_0BB@PIKC@DKC_MSECT_EVT_?$CFs?$AA@ 100b6854     METERSEC.OBJ
 0003:00013868       ??_C@_0BB@KJDG@DKC_MSECT_MMF_?$CFs?$AA@ 100b6868     METERSEC.OBJ
 0003:0001387c       ??_C@_0BN@FBPI@Compile?5Date?1Time?5for?5OE?5is?5?$AA@ 100b687c     KZOETSAA.OBJ
 0003:000138a0       ??_C@_0BF@IFEK@Apr?522?52014?516?304?346?$AA@ 100b68a0     KZOETSAA.OBJ
 0003:00013fb8       ??_C@_00A@?$AA@            100b6fb8     KZOEAPAA.OBJ
 0003:00013ff4       _g_chNetSendCompressed     100b6ff4     KZOENETA.OBJ
 0003:00014000       _g_pProbeArea              100b7000     KZOEUFAA.OBJ
 0003:00014040       _g_ZeidonPageTable         100b7040     KZOESYAA.OBJ
 0003:00014440       _g_FileMappingHandles      100b7440     KZOESYAA.OBJ
 0003:00014840       _g_nOE_TraceWarning        100b7840     KZOESYAA.OBJ
 0003:00014844       _g_vRealTaskView           100b7844     KZOESYAA.OBJ
 0003:00014848       _g_vDefaultTaskView        100b7848     KZOESYAA.OBJ
 0003:0001484c       _g_lProcessID              100b784c     KZOESYAA.OBJ
 0003:00014850       _g_ZeidonMutexTable        100b7850     KZOESYAA.OBJ
 0003:00014890       _g_hAnchorBlock            100b7890     KZOESYAA.OBJ
 0003:00014894       _AnchorBlock               100b7894     KZOESYAA.OBJ
 0003:00014898       _g_bServerMode             100b7898     KZOESYAA.OBJ
 0003:0001489c       _lpNullP                   100b789c     KZOESYAA.OBJ
 0003:000148a0       _pHab                      100b78a0     KZOESYAA.OBJ
 0003:000148a4       _hModule                   100b78a4     KZOESYAA.OBJ
 0003:000148a8       _g_wOENG_Message           100b78a8     KZOESYAA.OBJ
 0003:000148ac       _g_wClientMessage          100b78ac     KZOESYAA.OBJ
 0003:000148b0       _g_ZeidonMutexLockCnt      100b78b0     KZOESYAA.OBJ
 0003:000148f0       _g_hInstance               100b78f0     KZOESYAA.OBJ
 0003:000148f4       _g_bProcessRegistered      100b78f4     KZOESYAA.OBJ
 0003:00014ad0       ??_C@_08A@?$AA?$AA?$AA?$AA?$AA?$AA?$AA?$AA?$AA@ 100b7ad0     KZOESYAA.OBJ
 0003:00014aec       ?pHtmlHelpW@@3P6GPAUHWND__@@PAU1@PBGIK@ZA 100b7aec     htmlhelp:init.obj
 0003:00014af0       ?pHtmlHelpA@@3P6GPAUHWND__@@PAU1@PBDIK@ZA 100b7af0     htmlhelp:init.obj
 0003:00014af4       __hmod__XMLPARSE           100b7af4     xmlparse:xmlparse.dll
 0003:00014af8       ___puiHead                 100b7af8     DelayImp:delayhlp.obj
 0003:00014afc       ___pfnDliFailureHook       100b7afc     DelayImp:delayhk1.obj
 0003:00014b00       ___pfnDliNotifyHook        100b7b00     DelayImp:delayhk2.obj
 0003:00014b08       _g_pfnGetHndl              100b7b08     <common>
 0003:00014b80       _g_lTable                  100b7b80     <common>
 0003:00014bc0       _g_csReuseEntity           100b7bc0     <common>
 0003:00014bd8       _g_lCurrentProcessID       100b7bd8     <common>
 0003:00014bdc       _g_hThreadInfo             100b7bdc     <common>
 0003:00014be0       _g_pfnGetPtr               100b7be0     <common>
 0003:00014c00       _g_ZeidonCritTable         100b7c00     <common>
 0003:00014d80       _g_csSysLoadLibrary        100b7d80     <common>
 0003:00014da0       _jbEmergencyExit           100b7da0     <common>
 0003:00014df4       _g_bTraceDataspace         100b7df4     <common>
 0003:00014e00       __adjust_fdiv              100b7e00     <common>
 0003:00014e0c       ___onexitend               100b7e0c     <common>
 0003:00014e1c       ___onexitbegin             100b7e1c     <common>
 0003:00014e20       __pRawDllMain              100b7e20     <common>
 0004:00000000       __IMPORT_DESCRIPTOR_USER32 100b8000     user32:USER32.dll
 0004:00000014       __IMPORT_DESCRIPTOR_KERNEL32 100b8014     kernel32:KERNEL32.dll
 0004:00000028       __IMPORT_DESCRIPTOR_GDI32  100b8028     gdi32:GDI32.dll
 0004:0000003c       __IMPORT_DESCRIPTOR_ZDECIMAL 100b803c     zdecimal:ZDECIMAL.dll
 0004:00000050       __IMPORT_DESCRIPTOR_MSVCRTD 100b8050     MSVCRTD:MSVCRTD.dll
 0004:00000064       __IMPORT_DESCRIPTOR_ADVAPI32 100b8064     advapi32:ADVAPI32.dll
 0004:00000078       __NULL_IMPORT_DESCRIPTOR   100b8078     user32:USER32.dll
 0004:00000424       __imp__RegQueryValueExA@24 100b8424     advapi32:ADVAPI32.dll
 0004:00000428       __imp__RegOpenKeyExA@20    100b8428     advapi32:ADVAPI32.dll
 0004:0000042c       __imp__RegCloseKey@4       100b842c     advapi32:ADVAPI32.dll
 0004:00000430       \177ADVAPI32_NULL_THUNK_DATA 100b8430     advapi32:ADVAPI32.dll
 0004:0000045c       __imp__GetStockObject@4    100b845c     gdi32:GDI32.dll
 0004:00000460       \177GDI32_NULL_THUNK_DATA  100b8460     gdi32:GDI32.dll
 0004:0000048c       __imp__LocalAlloc@8        100b848c     kernel32:KERNEL32.dll
 0004:00000490       __imp__GetFileAttributesA@4 100b8490     kernel32:KERNEL32.dll
 0004:00000494       __imp__InterlockedExchange@8 100b8494     kernel32:KERNEL32.dll
 0004:00000498       __imp__OpenEventA@12       100b8498     kernel32:KERNEL32.dll
 0004:0000049c       __imp__SetEvent@4          100b849c     kernel32:KERNEL32.dll
 0004:000004a0       __imp__ResetEvent@4        100b84a0     kernel32:KERNEL32.dll
 0004:000004a4       __imp__SetLastError@4      100b84a4     kernel32:KERNEL32.dll
 0004:000004a8       __imp__GetVersionExA@4     100b84a8     kernel32:KERNEL32.dll
 0004:000004ac       __imp__GetPrivateProfileStringA@24 100b84ac     kernel32:KERNEL32.dll
 0004:000004b0       __imp__ReleaseMutex@4      100b84b0     kernel32:KERNEL32.dll
 0004:000004b4       __imp__CreateMutexA@12     100b84b4     kernel32:KERNEL32.dll
 0004:000004b8       __imp__GetTickCount@0      100b84b8     kernel32:KERNEL32.dll
 0004:000004bc       __imp__GetFullPathNameA@16 100b84bc     kernel32:KERNEL32.dll
 0004:000004c0       __imp__RaiseException@16   100b84c0     kernel32:KERNEL32.dll
 0004:000004c4       __imp__CreateDirectoryA@8  100b84c4     kernel32:KERNEL32.dll
 0004:000004c8       __imp__GetProcAddress@8    100b84c8     kernel32:KERNEL32.dll
 0004:000004cc       __imp__GetCurrentProcessId@0 100b84cc     kernel32:KERNEL32.dll
 0004:000004d0       __imp__GetCurrentThreadId@0 100b84d0     kernel32:KERNEL32.dll
 0004:000004d4       __imp__LeaveCriticalSection@4 100b84d4     kernel32:KERNEL32.dll
 0004:000004d8       __imp__EnterCriticalSection@4 100b84d8     kernel32:KERNEL32.dll
 0004:000004dc       __imp__InitializeCriticalSection@4 100b84dc     kernel32:KERNEL32.dll
 0004:000004e0       __imp__CloseHandle@4       100b84e0     kernel32:KERNEL32.dll
 0004:000004e4       __imp__OpenMutexA@12       100b84e4     kernel32:KERNEL32.dll
 0004:000004e8       __imp__GetLastError@0      100b84e8     kernel32:KERNEL32.dll
 0004:000004ec       __imp__DeleteCriticalSection@4 100b84ec     kernel32:KERNEL32.dll
 0004:000004f0       __imp__GetProfileStringA@20 100b84f0     kernel32:KERNEL32.dll
 0004:000004f4       __imp__GetProfileIntA@12   100b84f4     kernel32:KERNEL32.dll
 0004:000004f8       __imp__GetPrivateProfileIntA@16 100b84f8     kernel32:KERNEL32.dll
 0004:000004fc       __imp__UnmapViewOfFile@4   100b84fc     kernel32:KERNEL32.dll
 0004:00000500       __imp__FreeLibrary@4       100b8500     kernel32:KERNEL32.dll
 0004:00000504       __imp__LocalFree@4         100b8504     kernel32:KERNEL32.dll
 0004:00000508       __imp__FormatMessageA@28   100b8508     kernel32:KERNEL32.dll
 0004:0000050c       __imp__GetHandleInformation@8 100b850c     kernel32:KERNEL32.dll
 0004:00000510       __imp__DuplicateHandle@28  100b8510     kernel32:KERNEL32.dll
 0004:00000514       __imp__OpenProcess@12      100b8514     kernel32:KERNEL32.dll
 0004:00000518       __imp__GetCurrentProcess@0 100b8518     kernel32:KERNEL32.dll
 0004:0000051c       __imp__IsBadReadPtr@8      100b851c     kernel32:KERNEL32.dll
 0004:00000520       __imp__IsBadWritePtr@8     100b8520     kernel32:KERNEL32.dll
 0004:00000524       __imp__MapViewOfFile@20    100b8524     kernel32:KERNEL32.dll
 0004:00000528       __imp__OpenFileMappingA@12 100b8528     kernel32:KERNEL32.dll
 0004:0000052c       __imp__WaitForSingleObject@8 100b852c     kernel32:KERNEL32.dll
 0004:00000530       __imp__CreateProcessA@40   100b8530     kernel32:KERNEL32.dll
 0004:00000534       __imp__CreateEventA@16     100b8534     kernel32:KERNEL32.dll
 0004:00000538       __imp__ReadFile@20         100b8538     kernel32:KERNEL32.dll
 0004:0000053c       __imp__CreateFileA@28      100b853c     kernel32:KERNEL32.dll
 0004:00000540       __imp__CreateFileMappingA@24 100b8540     kernel32:KERNEL32.dll
 0004:00000544       __imp__GetEnvironmentVariableA@12 100b8544     kernel32:KERNEL32.dll
 0004:00000548       __imp__Sleep@4             100b8548     kernel32:KERNEL32.dll
 0004:0000054c       __imp__MoveFileA@8         100b854c     kernel32:KERNEL32.dll
 0004:00000550       __imp__DeleteFileA@4       100b8550     kernel32:KERNEL32.dll
 0004:00000554       __imp__SearchPathA@24      100b8554     kernel32:KERNEL32.dll
 0004:00000558       __imp__SetFilePointer@16   100b8558     kernel32:KERNEL32.dll
 0004:0000055c       __imp__WriteFile@20        100b855c     kernel32:KERNEL32.dll
 0004:00000560       __imp__SetFileTime@16      100b8560     kernel32:KERNEL32.dll
 0004:00000564       __imp__SystemTimeToFileTime@8 100b8564     kernel32:KERNEL32.dll
 0004:00000568       __imp__GetFileSize@8       100b8568     kernel32:KERNEL32.dll
 0004:0000056c       __imp__FileTimeToSystemTime@8 100b856c     kernel32:KERNEL32.dll
 0004:00000570       __imp__GetFileTime@16      100b8570     kernel32:KERNEL32.dll
 0004:00000574       __imp__GetLocalTime@4      100b8574     kernel32:KERNEL32.dll
 0004:00000578       __imp__LoadLibraryA@4      100b8578     kernel32:KERNEL32.dll
 0004:0000057c       __imp__LoadLibraryExA@12   100b857c     kernel32:KERNEL32.dll
 0004:00000580       __imp__SetCurrentDirectoryA@4 100b8580     kernel32:KERNEL32.dll
 0004:00000584       __imp__GetCurrentDirectoryA@8 100b8584     kernel32:KERNEL32.dll
 0004:00000588       \177KERNEL32_NULL_THUNK_DATA 100b8588     kernel32:KERNEL32.dll
 0004:000005e4       __imp__strtoul             100b85e4     MSVCRTD:MSVCRTD.dll
 0004:000005e8       __imp____dllonexit         100b85e8     MSVCRTD:MSVCRTD.dll
 0004:000005ec       __imp___adjust_fdiv        100b85ec     MSVCRTD:MSVCRTD.dll
 0004:000005f0       __imp___malloc_dbg         100b85f0     MSVCRTD:MSVCRTD.dll
 0004:000005f4       __imp___initterm           100b85f4     MSVCRTD:MSVCRTD.dll
 0004:000005f8       __imp___free_dbg           100b85f8     MSVCRTD:MSVCRTD.dll
 0004:000005fc       __imp___ftol               100b85fc     MSVCRTD:MSVCRTD.dll
 0004:00000600       __imp__atof                100b8600     MSVCRTD:MSVCRTD.dll
 0004:00000604       __imp__floor               100b8604     MSVCRTD:MSVCRTD.dll
 0004:00000608       __imp___strupr             100b8608     MSVCRTD:MSVCRTD.dll
 0004:0000060c       __imp___msize              100b860c     MSVCRTD:MSVCRTD.dll
 0004:00000610       __imp__atoi                100b8610     MSVCRTD:MSVCRTD.dll
 0004:00000614       __imp__calloc              100b8614     MSVCRTD:MSVCRTD.dll
 0004:00000618       __imp_??2@YAPAXI@Z         100b8618     MSVCRTD:MSVCRTD.dll
 0004:0000061c       __imp__srand               100b861c     MSVCRTD:MSVCRTD.dll
 0004:00000620       __imp__rand                100b8620     MSVCRTD:MSVCRTD.dll
 0004:00000624       __imp_??3@YAXPAX@Z         100b8624     MSVCRTD:MSVCRTD.dll
 0004:00000628       __imp___strrev             100b8628     MSVCRTD:MSVCRTD.dll
 0004:0000062c       __imp__strcpy              100b862c     MSVCRTD:MSVCRTD.dll
 0004:00000630       __imp__strlen              100b8630     MSVCRTD:MSVCRTD.dll
 0004:00000634       __imp___pctype             100b8634     MSVCRTD:MSVCRTD.dll
 0004:00000638       __imp___isctype            100b8638     MSVCRTD:MSVCRTD.dll
 0004:0000063c       __imp____mb_cur_max        100b863c     MSVCRTD:MSVCRTD.dll
 0004:00000640       __imp__strchr              100b8640     MSVCRTD:MSVCRTD.dll
 0004:00000644       __imp__atol                100b8644     MSVCRTD:MSVCRTD.dll
 0004:00000648       __imp__strcmp              100b8648     MSVCRTD:MSVCRTD.dll
 0004:0000064c       __imp__strncmp             100b864c     MSVCRTD:MSVCRTD.dll
 0004:00000650       __imp__strcat              100b8650     MSVCRTD:MSVCRTD.dll
 0004:00000654       __imp___stricmp            100b8654     MSVCRTD:MSVCRTD.dll
 0004:00000658       __imp__memcpy              100b8658     MSVCRTD:MSVCRTD.dll
 0004:0000065c       __imp__memcmp              100b865c     MSVCRTD:MSVCRTD.dll
 0004:00000660       __imp___ltoa               100b8660     MSVCRTD:MSVCRTD.dll
 0004:00000664       __imp__strncat             100b8664     MSVCRTD:MSVCRTD.dll
 0004:00000668       __imp__strncpy             100b8668     MSVCRTD:MSVCRTD.dll
 0004:0000066c       __imp__memset              100b866c     MSVCRTD:MSVCRTD.dll
 0004:00000670       __imp__sprintf             100b8670     MSVCRTD:MSVCRTD.dll
 0004:00000674       __imp__strstr              100b8674     MSVCRTD:MSVCRTD.dll
 0004:00000678       __imp___setjmp3            100b8678     MSVCRTD:MSVCRTD.dll
 0004:0000067c       __imp__toupper             100b867c     MSVCRTD:MSVCRTD.dll
 0004:00000680       __imp__strtol              100b8680     MSVCRTD:MSVCRTD.dll
 0004:00000684       __imp___strlwr             100b8684     MSVCRTD:MSVCRTD.dll
 0004:00000688       __imp__free                100b8688     MSVCRTD:MSVCRTD.dll
 0004:0000068c       __imp__malloc              100b868c     MSVCRTD:MSVCRTD.dll
 0004:00000690       __imp___strnicmp           100b8690     MSVCRTD:MSVCRTD.dll
 0004:00000694       __imp__strrchr             100b8694     MSVCRTD:MSVCRTD.dll
 0004:00000698       __imp___vsnprintf          100b8698     MSVCRTD:MSVCRTD.dll
 0004:0000069c       __imp__tolower             100b869c     MSVCRTD:MSVCRTD.dll
 0004:000006a0       __imp__labs                100b86a0     MSVCRTD:MSVCRTD.dll
 0004:000006a4       __imp___onexit             100b86a4     MSVCRTD:MSVCRTD.dll
 0004:000006a8       \177MSVCRTD_NULL_THUNK_DATA 100b86a8     MSVCRTD:MSVCRTD.dll
 0004:000006f8       __imp__UnregisterClassA@8  100b86f8     user32:USER32.dll
 0004:000006fc       __imp__GetActiveWindow@0   100b86fc     user32:USER32.dll
 0004:00000700       __imp__IsWindow@4          100b8700     user32:USER32.dll
 0004:00000704       __imp__CharUpperA@4        100b8704     user32:USER32.dll
 0004:00000708       __imp__CharLowerA@4        100b8708     user32:USER32.dll
 0004:0000070c       __imp__MessageBeep@4       100b870c     user32:USER32.dll
 0004:00000710       __imp__GetDesktopWindow@0  100b8710     user32:USER32.dll
 0004:00000714       __imp__WinHelpA@16         100b8714     user32:USER32.dll
 0004:00000718       __imp__RegisterWindowMessageA@4 100b8718     user32:USER32.dll
 0004:0000071c       __imp__DefWindowProcA@16   100b871c     user32:USER32.dll
 0004:00000720       __imp__PostQuitMessage@4   100b8720     user32:USER32.dll
 0004:00000724       __imp__ShowWindow@8        100b8724     user32:USER32.dll
 0004:00000728       __imp__CreateWindowExA@48  100b8728     user32:USER32.dll
 0004:0000072c       __imp__GetSystemMetrics@4  100b872c     user32:USER32.dll
 0004:00000730       __imp__RegisterClassA@4    100b8730     user32:USER32.dll
 0004:00000734       __imp__LoadCursorA@8       100b8734     user32:USER32.dll
 0004:00000738       __imp__LoadIconA@8         100b8738     user32:USER32.dll
 0004:0000073c       __imp__wsprintfA           100b873c     user32:USER32.dll
 0004:00000740       __imp__GetWindowTextA@12   100b8740     user32:USER32.dll
 0004:00000744       __imp__SendMessageA@16     100b8744     user32:USER32.dll
 0004:00000748       __imp__PostMessageA@16     100b8748     user32:USER32.dll
 0004:0000074c       __imp__MessageBoxA@16      100b874c     user32:USER32.dll
 0004:00000750       \177USER32_NULL_THUNK_DATA 100b8750     user32:USER32.dll
 0004:0000078c       __imp__DecimalOperation@16 100b878c     zdecimal:ZDECIMAL.dll
 0004:00000790       \177ZDECIMAL_NULL_THUNK_DATA 100b8790     zdecimal:ZDECIMAL.dll
 0005:00000000       __DELAY_IMPORT_DESCRIPTOR_xmlparse 100ba000     xmlparse:xmlparse.dll
 0005:00000128       __NULL_DELAY_IMPORT_DESCRIPTOR 100ba128     xmlparse:xmlparse.dll
 0005:00000278       \177xmlparse_NULL_THUNK_DATA_DLN 100ba278     xmlparse:xmlparse.dll
 0005:00000384       __imp__XML_ParserFree      100ba384     xmlparse:xmlparse.dll
 0005:00000388       __imp__XML_ErrorString     100ba388     xmlparse:xmlparse.dll
 0005:0000038c       __imp__XML_GetErrorCode    100ba38c     xmlparse:xmlparse.dll
 0005:00000390       __imp__XML_GetCurrentLineNumber 100ba390     xmlparse:xmlparse.dll
 0005:00000394       __imp__XML_Parse           100ba394     xmlparse:xmlparse.dll
 0005:00000398       __imp__XML_SetUnknownEncodingHandler 100ba398     xmlparse:xmlparse.dll
 0005:0000039c       __imp__XML_SetCharacterDataHandler 100ba39c     xmlparse:xmlparse.dll
 0005:000003a0       __imp__XML_SetElementHandler 100ba3a0     xmlparse:xmlparse.dll
 0005:000003a4       __imp__XML_SetUserData     100ba3a4     xmlparse:xmlparse.dll
 0005:000003a8       __imp__XML_ParserCreate    100ba3a8     xmlparse:xmlparse.dll
 0005:000003ac       \177xmlparse_NULL_THUNK_DATA_DLA 100ba3ac     xmlparse:xmlparse.dll
 0005:000006c4       \177xmlparse_NULL_THUNK_DATA_DLB 100ba6c4     xmlparse:xmlparse.dll

 entry point at        0001:000991f0

